
/tmp/mtk_disasm/mini2011/mr_graphics.obj:     file format elf32-littlearm


Disassembly of section i.calc_anchor:

00000000 <calc_anchor>:
   0:	e92d4070 	push	{r4, r5, r6, lr}
   4:	e28de010 	add	lr, sp, #16
   8:	e5906018 	ldr	r6, [r0, #24]
   c:	e590001c 	ldr	r0, [r0, #28]
  10:	e89e4030 	ldm	lr, {r4, r5, lr}
  14:	e59dc01c 	ldr	ip, [sp, #28]
  18:	e3550000 	cmp	r5, #0
  1c:	e0861001 	add	r1, r6, r1
  20:	e0800002 	add	r0, r0, r2
  24:	0a000004 	beq	3c <calc_anchor+0x3c>
  28:	e205200d 	and	r2, r5, #13
  2c:	e3520004 	cmp	r2, #4
  30:	e2055072 	and	r5, r5, #114	; 0x72
  34:	03550010 	cmpeq	r5, #16
  38:	1a000001 	bne	44 <calc_anchor+0x44>
  3c:	e58e1000 	str	r1, [lr]
  40:	ea000017 	b	a4 <calc_anchor+0xa4>
  44:	e3520001 	cmp	r2, #1
  48:	00832fa3 	addeq	r2, r3, r3, lsr #31
  4c:	004110c2 	subeq	r1, r1, r2, asr #1
  50:	0a000004 	beq	68 <calc_anchor+0x68>
  54:	e3520004 	cmp	r2, #4
  58:	0a000002 	beq	68 <calc_anchor+0x68>
  5c:	e3520008 	cmp	r2, #8
  60:	18bd8070 	popne	{r4, r5, r6, pc}
  64:	e0411003 	sub	r1, r1, r3
  68:	e58e1000 	str	r1, [lr]
  6c:	e0841fa4 	add	r1, r4, r4, lsr #31
  70:	e3550002 	cmp	r5, #2
  74:	e1a010c1 	asr	r1, r1, #1
  78:	00400001 	subeq	r0, r0, r1
  7c:	0a000008 	beq	a4 <calc_anchor+0xa4>
  80:	e3550010 	cmp	r5, #16
  84:	0a000006 	beq	a4 <calc_anchor+0xa4>
  88:	e3550020 	cmp	r5, #32
  8c:	00400004 	subeq	r0, r0, r4
  90:	0a000003 	beq	a4 <calc_anchor+0xa4>
  94:	e3550040 	cmp	r5, #64	; 0x40
  98:	18bd8070 	popne	{r4, r5, r6, pc}
  9c:	e0400001 	sub	r0, r0, r1
  a0:	e2400003 	sub	r0, r0, #3
  a4:	e58c0000 	str	r0, [ip]
  a8:	e8bd8070 	pop	{r4, r5, r6, pc}

Disassembly of section i.mr_drawRegion:

00000000 <mr_drawRegion>:
   0:	e92d4ff0 	push	{r4, r5, r6, r7, r8, r9, sl, fp, lr}
   4:	e24dd01c 	sub	sp, sp, #28
   8:	e1b06000 	movs	r6, r0
   c:	e5900040 	ldr	r0, [r0, #64]	; 0x40
  10:	e1a04001 	mov	r4, r1
  14:	e59d1054 	ldr	r1, [sp, #84]	; 0x54
  18:	e59d7048 	ldr	r7, [sp, #72]	; 0x48
  1c:	e59db044 	ldr	fp, [sp, #68]	; 0x44
  20:	13540000 	cmpne	r4, #0
  24:	e1a09002 	mov	r9, r2
  28:	e1a08003 	mov	r8, r3
  2c:	e58d0010 	str	r0, [sp, #16]
  30:	0a00006e 	beq	1f0 <mr_drawRegion+0x1f0>
  34:	e5d40008 	ldrb	r0, [r4, #8]
  38:	e3500000 	cmp	r0, #0
  3c:	0a000004 	beq	54 <mr_drawRegion+0x54>
  40:	e3500001 	cmp	r0, #1
  44:	05940000 	ldreq	r0, [r4]
  48:	11d4e0ba 	ldrhne	lr, [r4, #10]
  4c:	01d0e0b0 	ldrheq	lr, [r0]
  50:	e58de018 	str	lr, [sp, #24]
  54:	e3510014 	cmp	r1, #20
  58:	e59dc04c 	ldr	ip, [sp, #76]	; 0x4c
  5c:	13510000 	cmpne	r1, #0
  60:	1a000007 	bne	84 <mr_drawRegion+0x84>
  64:	e5960018 	ldr	r0, [r6, #24]
  68:	e59d1050 	ldr	r1, [sp, #80]	; 0x50
  6c:	e080000c 	add	r0, r0, ip
  70:	e58d004c 	str	r0, [sp, #76]	; 0x4c
  74:	e596001c 	ldr	r0, [r6, #28]
  78:	e0800001 	add	r0, r0, r1
  7c:	e58d0050 	str	r0, [sp, #80]	; 0x50
  80:	ea00000f 	b	c4 <mr_drawRegion+0xc4>
  84:	e1b00147 	asrs	r0, r7, #2
  88:	159d0040 	ldrne	r0, [sp, #64]	; 0x40
  8c:	e59de050 	ldr	lr, [sp, #80]	; 0x50
  90:	e28d3050 	add	r3, sp, #80	; 0x50
  94:	01a0000b 	moveq	r0, fp
  98:	e28d204c 	add	r2, sp, #76	; 0x4c
  9c:	e58d300c 	str	r3, [sp, #12]
  a0:	e58d1004 	str	r1, [sp, #4]
  a4:	e58d2008 	str	r2, [sp, #8]
  a8:	e58d0000 	str	r0, [sp]
  ac:	059d3040 	ldreq	r3, [sp, #64]	; 0x40
  b0:	e1a00006 	mov	r0, r6
  b4:	e1a0200e 	mov	r2, lr
  b8:	e1a0100c 	mov	r1, ip
  bc:	11a0300b 	movne	r3, fp
  c0:	ebfffffe 	bl	0 <mr_drawRegion>
  c4:	e5960000 	ldr	r0, [r6]
  c8:	e59d204c 	ldr	r2, [sp, #76]	; 0x4c
  cc:	e5961004 	ldr	r1, [r6, #4]
  d0:	e59d3050 	ldr	r3, [sp, #80]	; 0x50
  d4:	e1500002 	cmp	r0, r2
  d8:	b1a00002 	movlt	r0, r2
  dc:	e1510003 	cmp	r1, r3
  e0:	b1a01003 	movlt	r1, r3
  e4:	e1b0c147 	asrs	ip, r7, #2
  e8:	1a000006 	bne	108 <mr_drawRegion+0x108>
  ec:	e59de040 	ldr	lr, [sp, #64]	; 0x40
  f0:	e082c00e 	add	ip, r2, lr
  f4:	e596e010 	ldr	lr, [r6, #16]
  f8:	e15c000e 	cmp	ip, lr
  fc:	a1a0c00e 	movge	ip, lr
 100:	e083e00b 	add	lr, r3, fp
 104:	ea000005 	b	120 <mr_drawRegion+0x120>
 108:	e596e010 	ldr	lr, [r6, #16]
 10c:	e082c00b 	add	ip, r2, fp
 110:	e15c000e 	cmp	ip, lr
 114:	a1a0c00e 	movge	ip, lr
 118:	e59de040 	ldr	lr, [sp, #64]	; 0x40
 11c:	e083e00e 	add	lr, r3, lr
 120:	e5965014 	ldr	r5, [r6, #20]
 124:	e04cc000 	sub	ip, ip, r0
 128:	e15e0005 	cmp	lr, r5
 12c:	a1a0e005 	movge	lr, r5
 130:	e04e5001 	sub	r5, lr, r1
 134:	e3550000 	cmp	r5, #0
 138:	c35c0000 	cmpgt	ip, #0
 13c:	e58dc014 	str	ip, [sp, #20]
 140:	da00002a 	ble	1f0 <mr_drawRegion+0x1f0>
 144:	e08ba008 	add	sl, fp, r8
 148:	e3570007 	cmp	r7, #7
 14c:	e24aa001 	sub	sl, sl, #1
 150:	908ff107 	addls	pc, pc, r7, lsl #2
 154:	ea000025 	b	1f0 <mr_drawRegion+0x1f0>
 158:	ea000006 	b	178 <mr_drawRegion+0x178>
 15c:	ea000025 	b	1f8 <mr_drawRegion+0x1f8>
 160:	ea000058 	b	2c8 <mr_drawRegion+0x2c8>
 164:	ea000046 	b	284 <mr_drawRegion+0x284>
 168:	ea000094 	b	3c0 <mr_drawRegion+0x3c0>
 16c:	ea000064 	b	304 <mr_drawRegion+0x304>
 170:	ea000081 	b	37c <mr_drawRegion+0x37c>
 174:	ea00006f 	b	338 <mr_drawRegion+0x338>
 178:	e5d4e008 	ldrb	lr, [r4, #8]
 17c:	e35e0000 	cmp	lr, #0
 180:	1a00009b 	bne	3f4 <mr_drawRegion+0x3f4>
 184:	e089e001 	add	lr, r9, r1
 188:	e04e3003 	sub	r3, lr, r3
 18c:	e1d4e0b4 	ldrh	lr, [r4, #4]
 190:	e0402002 	sub	r2, r0, r2
 194:	e0822009 	add	r2, r2, r9
 198:	e003039e 	mul	r3, lr, r3
 19c:	e594e000 	ldr	lr, [r4]
 1a0:	e1d440f4 	ldrsh	r4, [r4, #4]
 1a4:	e08e3083 	add	r3, lr, r3, lsl #1
 1a8:	e0837082 	add	r7, r3, r2, lsl #1
 1ac:	e5963030 	ldr	r3, [r6, #48]	; 0x30
 1b0:	e596202c 	ldr	r2, [r6, #44]	; 0x2c
 1b4:	e0010193 	mul	r1, r3, r1
 1b8:	e1a0808c 	lsl	r8, ip, #1
 1bc:	e0821081 	add	r1, r2, r1, lsl #1
 1c0:	e0816080 	add	r6, r1, r0, lsl #1
 1c4:	ea000006 	b	1e4 <mr_drawRegion+0x1e4>
 1c8:	e1a02008 	mov	r2, r8
 1cc:	e1a01007 	mov	r1, r7
 1d0:	e1a00006 	mov	r0, r6
 1d4:	ebfffffe 	bl	0 <__aeabi_memcpy>
 1d8:	e59d0010 	ldr	r0, [sp, #16]
 1dc:	e0877084 	add	r7, r7, r4, lsl #1
 1e0:	e0866080 	add	r6, r6, r0, lsl #1
 1e4:	e2550000 	subs	r0, r5, #0
 1e8:	e2455001 	sub	r5, r5, #1
 1ec:	cafffff5 	bgt	1c8 <mr_drawRegion+0x1c8>
 1f0:	e28dd01c 	add	sp, sp, #28
 1f4:	e8bd8ff0 	pop	{r4, r5, r6, r7, r8, r9, sl, fp, pc}
 1f8:	e0413003 	sub	r3, r1, r3
 1fc:	e1d4e0b4 	ldrh	lr, [r4, #4]
 200:	e0433008 	sub	r3, r3, r8
 204:	e04b3003 	sub	r3, fp, r3
 208:	e2433001 	sub	r3, r3, #1
 20c:	e003039e 	mul	r3, lr, r3
 210:	e594e000 	ldr	lr, [r4]
 214:	e0402002 	sub	r2, r0, r2
 218:	e0822009 	add	r2, r2, r9
 21c:	e08e3083 	add	r3, lr, r3, lsl #1
 220:	e0837082 	add	r7, r3, r2, lsl #1
 224:	e1d420f4 	ldrsh	r2, [r4, #4]
 228:	e3a09001 	mov	r9, #1
 22c:	e2628000 	rsb	r8, r2, #0
 230:	e5d42008 	ldrb	r2, [r4, #8]
 234:	e3520000 	cmp	r2, #0
 238:	1a00006d 	bne	3f4 <mr_drawRegion+0x3f4>
 23c:	e5963030 	ldr	r3, [r6, #48]	; 0x30
 240:	e596202c 	ldr	r2, [r6, #44]	; 0x2c
 244:	e0010193 	mul	r1, r3, r1
 248:	e1a0608c 	lsl	r6, ip, #1
 24c:	e0821081 	add	r1, r2, r1, lsl #1
 250:	e0814080 	add	r4, r1, r0, lsl #1
 254:	ea000006 	b	274 <mr_drawRegion+0x274>
 258:	e1a02006 	mov	r2, r6
 25c:	e1a01007 	mov	r1, r7
 260:	e1a00004 	mov	r0, r4
 264:	ebfffffe 	bl	0 <__aeabi_memcpy>
 268:	e59d0010 	ldr	r0, [sp, #16]
 26c:	e0877088 	add	r7, r7, r8, lsl #1
 270:	e0844080 	add	r4, r4, r0, lsl #1
 274:	e2550000 	subs	r0, r5, #0
 278:	e2455001 	sub	r5, r5, #1
 27c:	cafffff5 	bgt	258 <mr_drawRegion+0x258>
 280:	eaffffda 	b	1f0 <mr_drawRegion+0x1f0>
 284:	e1d4e0b4 	ldrh	lr, [r4, #4]
 288:	e5948000 	ldr	r8, [r4]
 28c:	e0413003 	sub	r3, r1, r3
 290:	e0070a9e 	mul	r7, lr, sl
 294:	e003039e 	mul	r3, lr, r3
 298:	e0887087 	add	r7, r8, r7, lsl #1
 29c:	e59d8040 	ldr	r8, [sp, #64]	; 0x40
 2a0:	e0877088 	add	r7, r7, r8, lsl #1
 2a4:	e0473083 	sub	r3, r7, r3, lsl #1
 2a8:	e0833089 	add	r3, r3, r9, lsl #1
 2ac:	e0433080 	sub	r3, r3, r0, lsl #1
 2b0:	e0832082 	add	r2, r3, r2, lsl #1
 2b4:	e2427002 	sub	r7, r2, #2
 2b8:	e1d420f4 	ldrsh	r2, [r4, #4]
 2bc:	e3e09000 	mvn	r9, #0
 2c0:	e2628000 	rsb	r8, r2, #0
 2c4:	ea00004a 	b	3f4 <mr_drawRegion+0x3f4>
 2c8:	e1d4e0b4 	ldrh	lr, [r4, #4]
 2cc:	e0413003 	sub	r3, r1, r3
 2d0:	e0833008 	add	r3, r3, r8
 2d4:	e003039e 	mul	r3, lr, r3
 2d8:	e594e000 	ldr	lr, [r4]
 2dc:	e1d480f4 	ldrsh	r8, [r4, #4]
 2e0:	e08e3083 	add	r3, lr, r3, lsl #1
 2e4:	e59de040 	ldr	lr, [sp, #64]	; 0x40
 2e8:	e0833089 	add	r3, r3, r9, lsl #1
 2ec:	e083308e 	add	r3, r3, lr, lsl #1
 2f0:	e0832082 	add	r2, r3, r2, lsl #1
 2f4:	e0422080 	sub	r2, r2, r0, lsl #1
 2f8:	e2427002 	sub	r7, r2, #2
 2fc:	e3e09000 	mvn	r9, #0
 300:	ea00003b 	b	3f4 <mr_drawRegion+0x3f4>
 304:	e1d4e0b4 	ldrh	lr, [r4, #4]
 308:	e5948000 	ldr	r8, [r4]
 30c:	e0402002 	sub	r2, r0, r2
 310:	e0070a9e 	mul	r7, lr, sl
 314:	e0413003 	sub	r3, r1, r3
 318:	e0887087 	add	r7, r8, r7, lsl #1
 31c:	e0873083 	add	r3, r7, r3, lsl #1
 320:	e002029e 	mul	r2, lr, r2
 324:	e0833089 	add	r3, r3, r9, lsl #1
 328:	e0437082 	sub	r7, r3, r2, lsl #1
 32c:	e1d420f4 	ldrsh	r2, [r4, #4]
 330:	e2629000 	rsb	r9, r2, #0
 334:	ea00002d 	b	3f0 <mr_drawRegion+0x3f0>
 338:	e1d470b4 	ldrh	r7, [r4, #4]
 33c:	e594e000 	ldr	lr, [r4]
 340:	e0080a97 	mul	r8, r7, sl
 344:	e08ee089 	add	lr, lr, r9, lsl #1
 348:	e08ee088 	add	lr, lr, r8, lsl #1
 34c:	e59d8040 	ldr	r8, [sp, #64]	; 0x40
 350:	e0020297 	mul	r2, r7, r2
 354:	e08ee088 	add	lr, lr, r8, lsl #1
 358:	e04ee081 	sub	lr, lr, r1, lsl #1
 35c:	e08e3083 	add	r3, lr, r3, lsl #1
 360:	e00e0790 	mul	lr, r0, r7
 364:	e043308e 	sub	r3, r3, lr, lsl #1
 368:	e0832082 	add	r2, r3, r2, lsl #1
 36c:	e2427002 	sub	r7, r2, #2
 370:	e1d420f4 	ldrsh	r2, [r4, #4]
 374:	e2629000 	rsb	r9, r2, #0
 378:	ea00000e 	b	3b8 <mr_drawRegion+0x3b8>
 37c:	e594e000 	ldr	lr, [r4]
 380:	e0413003 	sub	r3, r1, r3
 384:	e08e7089 	add	r7, lr, r9, lsl #1
 388:	e1d4e0b4 	ldrh	lr, [r4, #4]
 38c:	e1d490f4 	ldrsh	r9, [r4, #4]
 390:	e008089e 	mul	r8, lr, r8
 394:	e002029e 	mul	r2, lr, r2
 398:	e0877088 	add	r7, r7, r8, lsl #1
 39c:	e59d8040 	ldr	r8, [sp, #64]	; 0x40
 3a0:	e0877088 	add	r7, r7, r8, lsl #1
 3a4:	e0473083 	sub	r3, r7, r3, lsl #1
 3a8:	e0070e90 	mul	r7, r0, lr
 3ac:	e0833087 	add	r3, r3, r7, lsl #1
 3b0:	e0432082 	sub	r2, r3, r2, lsl #1
 3b4:	e2427002 	sub	r7, r2, #2
 3b8:	e3e08000 	mvn	r8, #0
 3bc:	ea00000c 	b	3f4 <mr_drawRegion+0x3f4>
 3c0:	e1d4e0b4 	ldrh	lr, [r4, #4]
 3c4:	e5947000 	ldr	r7, [r4]
 3c8:	e008089e 	mul	r8, lr, r8
 3cc:	e002029e 	mul	r2, lr, r2
 3d0:	e0877088 	add	r7, r7, r8, lsl #1
 3d4:	e0473083 	sub	r3, r7, r3, lsl #1
 3d8:	e0833089 	add	r3, r3, r9, lsl #1
 3dc:	e0070e90 	mul	r7, r0, lr
 3e0:	e1d490f4 	ldrsh	r9, [r4, #4]
 3e4:	e0833081 	add	r3, r3, r1, lsl #1
 3e8:	e0833087 	add	r3, r3, r7, lsl #1
 3ec:	e0437082 	sub	r7, r3, r2, lsl #1
 3f0:	e3a08001 	mov	r8, #1
 3f4:	e5963030 	ldr	r3, [r6, #48]	; 0x30
 3f8:	e596202c 	ldr	r2, [r6, #44]	; 0x2c
 3fc:	e0010193 	mul	r1, r3, r1
 400:	e0821081 	add	r1, r2, r1, lsl #1
 404:	e5d42008 	ldrb	r2, [r4, #8]
 408:	e0810080 	add	r0, r1, r0, lsl #1
 40c:	e1a01000 	mov	r1, r0
 410:	e3520000 	cmp	r2, #0
 414:	1a000020 	bne	49c <mr_drawRegion+0x49c>
 418:	ea00000b 	b	44c <mr_drawRegion+0x44c>
 41c:	e1a02007 	mov	r2, r7
 420:	e25c3000 	subs	r3, ip, #0
 424:	c1d230b0 	ldrhgt	r3, [r2]
 428:	c0822089 	addgt	r2, r2, r9, lsl #1
 42c:	e24cc001 	sub	ip, ip, #1
 430:	c0c030b2 	strhgt	r3, [r0], #2
 434:	cafffff9 	bgt	420 <mr_drawRegion+0x420>
 438:	e59d0010 	ldr	r0, [sp, #16]
 43c:	e59dc014 	ldr	ip, [sp, #20]
 440:	e0810080 	add	r0, r1, r0, lsl #1
 444:	e1a01000 	mov	r1, r0
 448:	e0877088 	add	r7, r7, r8, lsl #1
 44c:	e2552000 	subs	r2, r5, #0
 450:	e2455001 	sub	r5, r5, #1
 454:	cafffff0 	bgt	41c <mr_drawRegion+0x41c>
 458:	eaffff64 	b	1f0 <mr_drawRegion+0x1f0>
 45c:	e1a02007 	mov	r2, r7
 460:	ea000005 	b	47c <mr_drawRegion+0x47c>
 464:	e1d230b0 	ldrh	r3, [r2]
 468:	e59de018 	ldr	lr, [sp, #24]
 46c:	e0822089 	add	r2, r2, r9, lsl #1
 470:	e153000e 	cmp	r3, lr
 474:	11c030b0 	strhne	r3, [r0]
 478:	e2800002 	add	r0, r0, #2
 47c:	e25c3000 	subs	r3, ip, #0
 480:	e24cc001 	sub	ip, ip, #1
 484:	cafffff6 	bgt	464 <mr_drawRegion+0x464>
 488:	e59d0010 	ldr	r0, [sp, #16]
 48c:	e59dc014 	ldr	ip, [sp, #20]
 490:	e0810080 	add	r0, r1, r0, lsl #1
 494:	e1a01000 	mov	r1, r0
 498:	e0877088 	add	r7, r7, r8, lsl #1
 49c:	e2552000 	subs	r2, r5, #0
 4a0:	e2455001 	sub	r5, r5, #1
 4a4:	caffffec 	bgt	45c <mr_drawRegion+0x45c>
 4a8:	eaffff50 	b	1f0 <mr_drawRegion+0x1f0>

Disassembly of section i.mr_transbitmapDraw:

00000000 <mr_transbitmapDraw>:
   0:	e92d4ff0 	push	{r4, r5, r6, r7, r8, r9, sl, fp, lr}
   4:	e24dd014 	sub	sp, sp, #20
   8:	e1b06000 	movs	r6, r0
   c:	e59d4038 	ldr	r4, [sp, #56]	; 0x38
  10:	e59de03c 	ldr	lr, [sp, #60]	; 0x3c
  14:	e59d504c 	ldr	r5, [sp, #76]	; 0x4c
  18:	e59d8048 	ldr	r8, [sp, #72]	; 0x48
  1c:	e59d9040 	ldr	r9, [sp, #64]	; 0x40
  20:	e59dc044 	ldr	ip, [sp, #68]	; 0x44
  24:	03e00000 	mvneq	r0, #0
  28:	e3a07000 	mov	r7, #0
  2c:	0a00006c 	beq	1e4 <mr_transbitmapDraw+0x1e4>
  30:	e3580000 	cmp	r8, #0
  34:	b0444008 	sublt	r4, r4, r8
  38:	b0899008 	addlt	r9, r9, r8
  3c:	b3a08000 	movlt	r8, #0
  40:	e58d200c 	str	r2, [sp, #12]
  44:	e59d200c 	ldr	r2, [sp, #12]
  48:	e3550000 	cmp	r5, #0
  4c:	b04ee005 	sublt	lr, lr, r5
  50:	b08cc005 	addlt	ip, ip, r5
  54:	e0420008 	sub	r0, r2, r8
  58:	b3a05000 	movlt	r5, #0
  5c:	e1590000 	cmp	r9, r0
  60:	b1a00009 	movlt	r0, r9
  64:	e5969018 	ldr	r9, [r6, #24]
  68:	e5962014 	ldr	r2, [r6, #20]
  6c:	e009099e 	mul	r9, lr, r9
  70:	e084a000 	add	sl, r4, r0
  74:	e082b109 	add	fp, r2, r9, lsl #2
  78:	e596900c 	ldr	r9, [r6, #12]
  7c:	e5962000 	ldr	r2, [r6]
  80:	e009099e 	mul	r9, lr, r9
  84:	e0430005 	sub	r0, r3, r5
  88:	e0829089 	add	r9, r2, r9, lsl #1
  8c:	e59d200c 	ldr	r2, [sp, #12]
  90:	e150000c 	cmp	r0, ip
  94:	e0020295 	mul	r2, r5, r2
  98:	b1a0c000 	movlt	ip, r0
  9c:	e08e000c 	add	r0, lr, ip
  a0:	e0811082 	add	r1, r1, r2, lsl #1
  a4:	e0818088 	add	r8, r1, r8, lsl #1
  a8:	e58d0010 	str	r0, [sp, #16]
  ac:	e58de008 	str	lr, [sp, #8]
  b0:	ea000046 	b	1d0 <mr_transbitmapDraw+0x1d0>
  b4:	e3a05000 	mov	r5, #0
  b8:	ea000025 	b	154 <mr_transbitmapDraw+0x154>
  bc:	e08b1105 	add	r1, fp, r5, lsl #2
  c0:	e1d100f0 	ldrsh	r0, [r1]
  c4:	e3500000 	cmp	r0, #0
  c8:	ba000024 	blt	160 <mr_transbitmapDraw+0x160>
  cc:	e2422001 	sub	r2, r2, #1
  d0:	e1d110f2 	ldrsh	r1, [r1, #2]
  d4:	e1520005 	cmp	r2, r5
  d8:	1a000004 	bne	f0 <mr_transbitmapDraw+0xf0>
  dc:	e2117901 	ands	r7, r1, #16384	; 0x4000
  e0:	e1a01901 	lsl	r1, r1, #18
  e4:	e1a01921 	lsr	r1, r1, #18
  e8:	10802001 	addne	r2, r0, r1
  ec:	158d2004 	strne	r2, [sp, #4]
  f0:	e0801001 	add	r1, r0, r1
  f4:	e1510000 	cmp	r1, r0
  f8:	a15a0004 	cmpge	sl, r4
  fc:	ba000013 	blt	150 <mr_transbitmapDraw+0x150>
 100:	e1500004 	cmp	r0, r4
 104:	d1a00004 	movle	r0, r4
 108:	e151000a 	cmp	r1, sl
 10c:	a1a0100a 	movge	r1, sl
 110:	e0412000 	sub	r2, r1, r0
 114:	e0891080 	add	r1, r9, r0, lsl #1
 118:	e0400004 	sub	r0, r0, r4
 11c:	e3520000 	cmp	r2, #0
 120:	e0880080 	add	r0, r8, r0, lsl #1
 124:	da000009 	ble	150 <mr_transbitmapDraw+0x150>
 128:	e3100003 	tst	r0, #3
 12c:	13110003 	tstne	r1, #3
 130:	0a000004 	beq	148 <mr_transbitmapDraw+0x148>
 134:	e0d130b2 	ldrh	r3, [r1], #2
 138:	e2422001 	sub	r2, r2, #1
 13c:	e3520000 	cmp	r2, #0
 140:	e0c030b2 	strh	r3, [r0], #2
 144:	da000001 	ble	150 <mr_transbitmapDraw+0x150>
 148:	e1a02082 	lsl	r2, r2, #1
 14c:	ebfffffe 	bl	0 <__aeabi_memcpy>
 150:	e2855001 	add	r5, r5, #1
 154:	e5962018 	ldr	r2, [r6, #24]
 158:	e1520005 	cmp	r2, r5
 15c:	caffffd6 	bgt	bc <mr_transbitmapDraw+0xbc>
 160:	e3570000 	cmp	r7, #0
 164:	0a000010 	beq	1ac <mr_transbitmapDraw+0x1ac>
 168:	e59d0004 	ldr	r0, [sp, #4]
 16c:	e3a07000 	mov	r7, #0
 170:	e1500004 	cmp	r0, r4
 174:	d1a00004 	movle	r0, r4
 178:	e0401004 	sub	r1, r0, r4
 17c:	e0881081 	add	r1, r8, r1, lsl #1
 180:	e0892080 	add	r2, r9, r0, lsl #1
 184:	ea000006 	b	1a4 <mr_transbitmapDraw+0x1a4>
 188:	e1d230b0 	ldrh	r3, [r2]
 18c:	e1d6c1b0 	ldrh	ip, [r6, #16]
 190:	e2822002 	add	r2, r2, #2
 194:	e2800001 	add	r0, r0, #1
 198:	e153000c 	cmp	r3, ip
 19c:	11c130b0 	strhne	r3, [r1]
 1a0:	e2811002 	add	r1, r1, #2
 1a4:	e15a0000 	cmp	sl, r0
 1a8:	cafffff6 	bgt	188 <mr_transbitmapDraw+0x188>
 1ac:	e596000c 	ldr	r0, [r6, #12]
 1b0:	e59de008 	ldr	lr, [sp, #8]
 1b4:	e0899080 	add	r9, r9, r0, lsl #1
 1b8:	e5960018 	ldr	r0, [r6, #24]
 1bc:	e59d200c 	ldr	r2, [sp, #12]
 1c0:	e28ee001 	add	lr, lr, #1
 1c4:	e08bb100 	add	fp, fp, r0, lsl #2
 1c8:	e0888082 	add	r8, r8, r2, lsl #1
 1cc:	e58de008 	str	lr, [sp, #8]
 1d0:	e59d0010 	ldr	r0, [sp, #16]
 1d4:	e59de008 	ldr	lr, [sp, #8]
 1d8:	e150000e 	cmp	r0, lr
 1dc:	caffffb4 	bgt	b4 <mr_transbitmapDraw+0xb4>
 1e0:	e3a00000 	mov	r0, #0
 1e4:	e28dd014 	add	sp, sp, #20
 1e8:	e8bd8ff0 	pop	{r4, r5, r6, r7, r8, r9, sl, fp, pc}
