
/tmp/mtk_disasm/full1968/mythroad.obj:     file format elf32-littlearm


Disassembly of section i._mr_div:

00000000 <_mr_div>:
   0:	eafffffe 	b	0 <__aeabi_idivmod>

Disassembly of section i._mr_mod:

00000000 <_mr_mod>:
   0:	e92d4010 	push	{r4, lr}
   4:	ebfffffe 	bl	0 <__aeabi_idivmod>
   8:	e1a00001 	mov	r0, r1
   c:	e8bd8010 	pop	{r4, pc}

Disassembly of section i._mr_mem_init:

00000000 <_mr_mem_init>:
   0:	e92d4010 	push	{r4, lr}
   4:	e59f4098 	ldr	r4, [pc, #152]	; a4 <_mr_mem_init+0xa4>
   8:	e28f0098 	add	r0, pc, #152	; 0x98
   c:	e5941080 	ldr	r1, [r4, #128]	; 0x80
  10:	ebfffffe 	bl	0 <mr_printf>
  14:	e2841080 	add	r1, r4, #128	; 0x80
  18:	e284007c 	add	r0, r4, #124	; 0x7c
  1c:	ebfffffe 	bl	0 <mr_mem_get>
  20:	e3500000 	cmp	r0, #0
  24:	0a000003 	beq	38 <_mr_mem_init+0x38>
  28:	e28f0094 	add	r0, pc, #148	; 0x94
  2c:	ebfffffe 	bl	0 <mr_printf>
  30:	e3e00000 	mvn	r0, #0
  34:	e8bd8010 	pop	{r4, pc}
  38:	e5941080 	ldr	r1, [r4, #128]	; 0x80
  3c:	e28f0094 	add	r0, pc, #148	; 0x94
  40:	ebfffffe 	bl	0 <mr_printf>
  44:	e594107c 	ldr	r1, [r4, #124]	; 0x7c
  48:	e59f30a4 	ldr	r3, [pc, #164]	; f4 <_mr_mem_init+0xf4>
  4c:	e2810003 	add	r0, r1, #3
  50:	e3c00003 	bic	r0, r0, #3
  54:	e5840074 	str	r0, [r4, #116]	; 0x74
  58:	e5942080 	ldr	r2, [r4, #128]	; 0x80
  5c:	e0401001 	sub	r1, r0, r1
  60:	e0421001 	sub	r1, r2, r1
  64:	e3c11003 	bic	r1, r1, #3
  68:	e0802001 	add	r2, r0, r1
  6c:	e5841078 	str	r1, [r4, #120]	; 0x78
  70:	e5842084 	str	r2, [r4, #132]	; 0x84
  74:	e3a02000 	mov	r2, #0
  78:	e5832000 	str	r2, [r3]
  7c:	e5832004 	str	r2, [r3, #4]
  80:	e5801000 	str	r1, [r0]
  84:	e5940078 	ldr	r0, [r4, #120]	; 0x78
  88:	e5941074 	ldr	r1, [r4, #116]	; 0x74
  8c:	e5810004 	str	r0, [r1, #4]
  90:	e5840088 	str	r0, [r4, #136]	; 0x88
  94:	e584006c 	str	r0, [r4, #108]	; 0x6c
  98:	e3a00000 	mov	r0, #0
  9c:	e5842070 	str	r2, [r4, #112]	; 0x70
  a0:	e8bd8010 	pop	{r4, pc}
  a4:	00000000 	.word	0x00000000
  a8:	206b7361 	.word	0x206b7361
  ac:	6769724f 	.word	0x6769724f
  b0:	4c5f6e69 	.word	0x4c5f6e69
  b4:	656d5f47 	.word	0x656d5f47
  b8:	656c5f6d 	.word	0x656c5f6d
  bc:	64253a6e 	.word	0x64253a6e
  c0:	00000000 	.word	0x00000000
  c4:	6d5f726d 	.word	0x6d5f726d
  c8:	675f6d65 	.word	0x675f6d65
  cc:	66207465 	.word	0x66207465
  d0:	656c6961 	.word	0x656c6961
  d4:	00002164 	.word	0x00002164
  d8:	20746f67 	.word	0x20746f67
  dc:	6769724f 	.word	0x6769724f
  e0:	4c5f6e69 	.word	0x4c5f6e69
  e4:	656d5f47 	.word	0x656d5f47
  e8:	656c5f6d 	.word	0x656c5f6d
  ec:	64253a6e 	.word	0x64253a6e
  f0:	00000000 	.word	0x00000000
  f4:	000000a8 	.word	0x000000a8

Disassembly of section i.mr_malloc:

00000000 <mr_malloc>:
   0:	e92d4010 	push	{r4, lr}
   4:	e59f40d0 	ldr	r4, [pc, #208]	; dc <mr_malloc+0xdc>
   8:	e2800007 	add	r0, r0, #7
   c:	e3c01007 	bic	r1, r0, #7
  10:	e5940088 	ldr	r0, [r4, #136]	; 0x88
  14:	e1510000 	cmp	r1, r0
  18:	3a000001 	bcc	24 <mr_malloc+0x24>
  1c:	e28f00bc 	add	r0, pc, #188	; 0xbc
  20:	ea00000b 	b	54 <mr_malloc+0x54>
  24:	e3510000 	cmp	r1, #0
  28:	028f00c4 	addeq	r0, pc, #196	; 0xc4
  2c:	0a000008 	beq	54 <mr_malloc+0x54>
  30:	e59f00e0 	ldr	r0, [pc, #224]	; 118 <mr_malloc+0x118>
  34:	e594c074 	ldr	ip, [r4, #116]	; 0x74
  38:	e5900000 	ldr	r0, [r0]
  3c:	e594e084 	ldr	lr, [r4, #132]	; 0x84
  40:	e080000c 	add	r0, r0, ip
  44:	e150000e 	cmp	r0, lr
  48:	959f20c8 	ldrls	r2, [pc, #200]	; 118 <mr_malloc+0x118>
  4c:	9a00001f 	bls	d0 <mr_malloc+0xd0>
  50:	e28f00c4 	add	r0, pc, #196	; 0xc4
  54:	ebfffffe 	bl	0 <mr_printf>
  58:	e3a00000 	mov	r0, #0
  5c:	e8bd8010 	pop	{r4, pc}
  60:	e5903004 	ldr	r3, [r0, #4]
  64:	e1530001 	cmp	r3, r1
  68:	05903000 	ldreq	r3, [r0]
  6c:	0a00000b 	beq	a0 <mr_malloc+0xa0>
  70:	91a02000 	movls	r2, r0
  74:	95900000 	ldrls	r0, [r0]
  78:	9080000c 	addls	r0, r0, ip
  7c:	9a000013 	bls	d0 <mr_malloc+0xd0>
  80:	e590c000 	ldr	ip, [r0]
  84:	e0803001 	add	r3, r0, r1
  88:	e583c000 	str	ip, [r3]
  8c:	e590c004 	ldr	ip, [r0, #4]
  90:	e04cc001 	sub	ip, ip, r1
  94:	e583c004 	str	ip, [r3, #4]
  98:	e5923000 	ldr	r3, [r2]
  9c:	e0833001 	add	r3, r3, r1
  a0:	e5823000 	str	r3, [r2]
  a4:	e5943088 	ldr	r3, [r4, #136]	; 0x88
  a8:	e0431001 	sub	r1, r3, r1
  ac:	e5841088 	str	r1, [r4, #136]	; 0x88
  b0:	e594306c 	ldr	r3, [r4, #108]	; 0x6c
  b4:	e1510003 	cmp	r1, r3
  b8:	3584106c 	strcc	r1, [r4, #108]	; 0x6c
  bc:	e5921000 	ldr	r1, [r2]
  c0:	e5942070 	ldr	r2, [r4, #112]	; 0x70
  c4:	e1510002 	cmp	r1, r2
  c8:	85841070 	strhi	r1, [r4, #112]	; 0x70
  cc:	e8bd8010 	pop	{r4, pc}
  d0:	e150000e 	cmp	r0, lr
  d4:	3affffe1 	bcc	60 <mr_malloc+0x60>
  d8:	eaffffcf 	b	1c <mr_malloc+0x1c>
  dc:	00000000 	.word	0x00000000
  e0:	6d5f726d 	.word	0x6d5f726d
  e4:	6f6c6c61 	.word	0x6f6c6c61
  e8:	6f6e2063 	.word	0x6f6e2063
  ec:	6d656d20 	.word	0x6d656d20
  f0:	0079726f 	.word	0x0079726f
  f4:	6d5f726d 	.word	0x6d5f726d
  f8:	6f6c6c61 	.word	0x6f6c6c61
  fc:	6e692063 	.word	0x6e692063
 100:	696c6176 	.word	0x696c6176
 104:	656d2064 	.word	0x656d2064
 108:	79726f6d 	.word	0x79726f6d
 10c:	71657220 	.word	0x71657220
 110:	74736575 	.word	0x74736575
 114:	00000000 	.word	0x00000000
 118:	000000a8 	.word	0x000000a8
 11c:	6d5f726d 	.word	0x6d5f726d
 120:	6f6c6c61 	.word	0x6f6c6c61
 124:	6f632063 	.word	0x6f632063
 128:	70757272 	.word	0x70757272
 12c:	20646574 	.word	0x20646574
 130:	6f6d656d 	.word	0x6f6d656d
 134:	00007972 	.word	0x00007972

Disassembly of section i.mr_free:

00000000 <mr_free>:
   0:	e92d40f8 	push	{r3, r4, r5, r6, r7, lr}
   4:	e1a04000 	mov	r4, r0
   8:	e2810007 	add	r0, r1, #7
   c:	e3d05007 	bics	r5, r0, #7
  10:	e59f6104 	ldr	r6, [pc, #260]	; 11c <mr_free+0x11c>
  14:	13540000 	cmpne	r4, #0
  18:	0a00000d 	beq	54 <mr_free+0x54>
  1c:	e5960074 	ldr	r0, [r6, #116]	; 0x74
  20:	e1a0e006 	mov	lr, r6
  24:	e1540000 	cmp	r4, r0
  28:	3a000009 	bcc	54 <mr_free+0x54>
  2c:	e59e1084 	ldr	r1, [lr, #132]	; 0x84
  30:	e1540001 	cmp	r4, r1
  34:	2a000006 	bcs	54 <mr_free+0x54>
  38:	e0842005 	add	r2, r4, r5
  3c:	e1520001 	cmp	r2, r1
  40:	8a000003 	bhi	54 <mr_free+0x54>
  44:	e1520000 	cmp	r2, r0
  48:	859fc0d0 	ldrhi	ip, [pc, #208]	; 120 <mr_free+0x120>
  4c:	859c3000 	ldrhi	r3, [ip]
  50:	8a00000b 	bhi	84 <mr_free+0x84>
  54:	e28f00c8 	add	r0, pc, #200	; 0xc8
  58:	ebfffffe 	bl	0 <mr_printf>
  5c:	e5963084 	ldr	r3, [r6, #132]	; 0x84
  60:	e1a02005 	mov	r2, r5
  64:	e58d3000 	str	r3, [sp]
  68:	e5963074 	ldr	r3, [r6, #116]	; 0x74
  6c:	e1a01004 	mov	r1, r4
  70:	e28f00bc 	add	r0, pc, #188	; 0xbc
  74:	ebfffffe 	bl	0 <mr_printf>
  78:	e8bd80f8 	pop	{r3, r4, r5, r6, r7, pc}
  7c:	e1a0c003 	mov	ip, r3
  80:	e5933000 	ldr	r3, [r3]
  84:	e0833000 	add	r3, r3, r0
  88:	e1530001 	cmp	r3, r1
  8c:	31530004 	cmpcc	r3, r4
  90:	3afffff9 	bcc	7c <mr_free+0x7c>
  94:	e154000c 	cmp	r4, ip
  98:	11540003 	cmpne	r4, r3
  9c:	08bd40f8 	popeq	{r3, r4, r5, r6, r7, lr}
  a0:	028f00ac 	addeq	r0, pc, #172	; 0xac
  a4:	0afffffe 	beq	0 <mr_printf>
  a8:	e59f1070 	ldr	r1, [pc, #112]	; 120 <mr_free+0x120>
  ac:	e15c0001 	cmp	ip, r1
  b0:	0a000005 	beq	cc <mr_free+0xcc>
  b4:	e59c1004 	ldr	r1, [ip, #4]
  b8:	e081600c 	add	r6, r1, ip
  bc:	e1560004 	cmp	r6, r4
  c0:	00810005 	addeq	r0, r1, r5
  c4:	058c0004 	streq	r0, [ip, #4]
  c8:	0a000005 	beq	e4 <mr_free+0xe4>
  cc:	e0440000 	sub	r0, r4, r0
  d0:	e58c0000 	str	r0, [ip]
  d4:	e59e0074 	ldr	r0, [lr, #116]	; 0x74
  d8:	e1a0c004 	mov	ip, r4
  dc:	e0430000 	sub	r0, r3, r0
  e0:	e8840021 	stm	r4, {r0, r5}
  e4:	e59e0084 	ldr	r0, [lr, #132]	; 0x84
  e8:	e1530000 	cmp	r3, r0
  ec:	2a000006 	bcs	10c <mr_free+0x10c>
  f0:	e1520003 	cmp	r2, r3
  f4:	05930000 	ldreq	r0, [r3]
  f8:	058c0000 	streq	r0, [ip]
  fc:	059c0004 	ldreq	r0, [ip, #4]
 100:	05931004 	ldreq	r1, [r3, #4]
 104:	00800001 	addeq	r0, r0, r1
 108:	058c0004 	streq	r0, [ip, #4]
 10c:	e59e0088 	ldr	r0, [lr, #136]	; 0x88
 110:	e0800005 	add	r0, r0, r5
 114:	e58e0088 	str	r0, [lr, #136]	; 0x88
 118:	e8bd80f8 	pop	{r3, r4, r5, r6, r7, pc}
 11c:	00000000 	.word	0x00000000
 120:	000000a8 	.word	0x000000a8
 124:	665f726d 	.word	0x665f726d
 128:	20656572 	.word	0x20656572
 12c:	61766e69 	.word	0x61766e69
 130:	0064696c 	.word	0x0064696c
 134:	64253d70 	.word	0x64253d70
 138:	253d6c2c 	.word	0x253d6c2c
 13c:	61622c64 	.word	0x61622c64
 140:	253d6573 	.word	0x253d6573
 144:	474c2c64 	.word	0x474c2c64
 148:	6d656d5f 	.word	0x6d656d5f
 14c:	646e655f 	.word	0x646e655f
 150:	0064253d 	.word	0x0064253d
 154:	665f726d 	.word	0x665f726d
 158:	3a656572 	.word	0x3a656572
 15c:	65726c61 	.word	0x65726c61
 160:	20796461 	.word	0x20796461
 164:	65657266 	.word	0x65657266
 168:	00000000 	.word	0x00000000

Disassembly of section i.mr_realloc:

00000000 <mr_realloc>:
   0:	e92d41f0 	push	{r4, r5, r6, r7, r8, lr}
   4:	e1510002 	cmp	r1, r2
   8:	e1a06000 	mov	r6, r0
   c:	e1a00002 	mov	r0, r2
  10:	e1a05001 	mov	r5, r1
  14:	91a07005 	movls	r7, r5
  18:	81a07000 	movhi	r7, r0
  1c:	e3560000 	cmp	r6, #0
  20:	08bd41f0 	popeq	{r4, r5, r6, r7, r8, lr}
  24:	0afffffe 	beq	0 <mr_realloc>
  28:	e3500000 	cmp	r0, #0
  2c:	1a000004 	bne	44 <mr_realloc+0x44>
  30:	e1a01005 	mov	r1, r5
  34:	e1a00006 	mov	r0, r6
  38:	ebfffffe 	bl	0 <mr_realloc>
  3c:	e3a00000 	mov	r0, #0
  40:	e8bd81f0 	pop	{r4, r5, r6, r7, r8, pc}
  44:	ebfffffe 	bl	0 <mr_realloc>
  48:	e1b04000 	movs	r4, r0
  4c:	0a000006 	beq	6c <mr_realloc+0x6c>
  50:	e1a02007 	mov	r2, r7
  54:	e1a01006 	mov	r1, r6
  58:	e1a00004 	mov	r0, r4
  5c:	ebfffffe 	bl	0 <__aeabi_memmove>
  60:	e1a01005 	mov	r1, r5
  64:	e1a00006 	mov	r0, r6
  68:	ebfffffe 	bl	0 <mr_realloc>
  6c:	e1a00004 	mov	r0, r4
  70:	e8bd81f0 	pop	{r4, r5, r6, r7, r8, pc}

Disassembly of section i.mr_platDrawChar:

00000000 <mr_platDrawChar>:
   0:	e1a03803 	lsl	r3, r3, #16
   4:	e1a03823 	lsr	r3, r3, #16
   8:	eafffffe 	b	0 <mr_platDrawCharReal>

Disassembly of section i._DrawPoint:

00000000 <_DrawPoint>:
   0:	e3500000 	cmp	r0, #0
   4:	a3510000 	cmpge	r1, #0
   8:	e52de004 	push	{lr}		; (str lr, [sp, #-4]!)
   c:	b49df004 	poplt	{pc}		; (ldrlt pc, [sp], #4)
  10:	e59fe028 	ldr	lr, [pc, #40]	; 40 <_DrawPoint+0x40>
  14:	e59e3044 	ldr	r3, [lr, #68]	; 0x44
  18:	e1500003 	cmp	r0, r3
  1c:	b59ec048 	ldrlt	ip, [lr, #72]	; 0x48
  20:	b151000c 	cmplt	r1, ip
  24:	a49df004 	popge	{pc}		; (ldrge pc, [sp], #4)
  28:	e0010193 	mul	r1, r3, r1
  2c:	e59e3040 	ldr	r3, [lr, #64]	; 0x40
  30:	e0831081 	add	r1, r3, r1, lsl #1
  34:	e0810080 	add	r0, r1, r0, lsl #1
  38:	e1c020b0 	strh	r2, [r0]
  3c:	e49df004 	pop	{pc}		; (ldr pc, [sp], #4)
  40:	00000000 	.word	0x00000000

Disassembly of section i._DrawBitmap:

00000000 <_DrawBitmap>:
   0:	e92d4ffe 	push	{r1, r2, r3, r4, r5, r6, r7, r8, r9, sl, fp, lr}
   4:	e59f6610 	ldr	r6, [pc, #1552]	; 61c <_DrawBitmap+0x61c>
   8:	e1a07002 	mov	r7, r2
   c:	e59d2030 	ldr	r2, [sp, #48]	; 0x30
  10:	e1a08001 	mov	r8, r1
  14:	e5961048 	ldr	r1, [r6, #72]	; 0x48
  18:	e1a09000 	mov	r9, r0
  1c:	e0870002 	add	r0, r7, r2
  20:	e1500001 	cmp	r0, r1
  24:	e59f65f0 	ldr	r6, [pc, #1520]	; 61c <_DrawBitmap+0x61c>
  28:	c1a00001 	movgt	r0, r1
  2c:	e5961044 	ldr	r1, [r6, #68]	; 0x44
  30:	e1a0b000 	mov	fp, r0
  34:	e1a05003 	mov	r5, r3
  38:	e0880005 	add	r0, r8, r5
  3c:	e1500001 	cmp	r0, r1
  40:	c1a00001 	movgt	r0, r1
  44:	e3580000 	cmp	r8, #0
  48:	a1a04008 	movge	r4, r8
  4c:	b3a04000 	movlt	r4, #0
  50:	e3570000 	cmp	r7, #0
  54:	e1a0a000 	mov	sl, r0
  58:	b3a00000 	movlt	r0, #0
  5c:	a1a00007 	movge	r0, r7
  60:	e59d1034 	ldr	r1, [sp, #52]	; 0x34
  64:	e1a00800 	lsl	r0, r0, #16
  68:	e3510b01 	cmp	r1, #1024	; 0x400
  6c:	e59d1034 	ldr	r1, [sp, #52]	; 0x34
  70:	e1a00820 	lsr	r0, r0, #16
  74:	9a0000b0 	bls	33c <_DrawBitmap+0x33c>
  78:	e59d3034 	ldr	r3, [sp, #52]	; 0x34
  7c:	e3c11b3f 	bic	r1, r1, #64512	; 0xfc00
  80:	e3a0c004 	mov	ip, #4
  84:	e1a02983 	lsl	r2, r3, #19
  88:	e3510002 	cmp	r1, #2
  8c:	e1a02f22 	lsr	r2, r2, #30
  90:	e00c65a3 	and	r6, ip, r3, lsr #11
  94:	0a00001f 	beq	118 <_DrawBitmap+0x118>
  98:	e3510006 	cmp	r1, #6
  9c:	1a00001c 	bne	114 <_DrawBitmap+0x114>
  a0:	ea000019 	b	10c <_DrawBitmap+0x10c>
  a4:	e59f2570 	ldr	r2, [pc, #1392]	; 61c <_DrawBitmap+0x61c>
  a8:	e0443008 	sub	r3, r4, r8
  ac:	e5921044 	ldr	r1, [r2, #68]	; 0x44
  b0:	e5922040 	ldr	r2, [r2, #64]	; 0x40
  b4:	e0010190 	mul	r1, r0, r1
  b8:	e0821081 	add	r1, r2, r1, lsl #1
  bc:	e0402007 	sub	r2, r0, r7
  c0:	e0020295 	mul	r2, r5, r2
  c4:	e0811084 	add	r1, r1, r4, lsl #1
  c8:	e0892082 	add	r2, r9, r2, lsl #1
  cc:	e0822083 	add	r2, r2, r3, lsl #1
  d0:	e1a03804 	lsl	r3, r4, #16
  d4:	e1a03823 	lsr	r3, r3, #16
  d8:	ea000007 	b	fc <_DrawBitmap+0xfc>
  dc:	e1d2c0b0 	ldrh	ip, [r2]
  e0:	e59de038 	ldr	lr, [sp, #56]	; 0x38
  e4:	e2833001 	add	r3, r3, #1
  e8:	e15c000e 	cmp	ip, lr
  ec:	11c1c0b0 	strhne	ip, [r1]
  f0:	e2811002 	add	r1, r1, #2
  f4:	e3c33801 	bic	r3, r3, #65536	; 0x10000
  f8:	e2822002 	add	r2, r2, #2
  fc:	e153000a 	cmp	r3, sl
 100:	bafffff5 	blt	dc <_DrawBitmap+0xdc>
 104:	e2800001 	add	r0, r0, #1
 108:	e3c00801 	bic	r0, r0, #65536	; 0x10000
 10c:	e150000b 	cmp	r0, fp
 110:	baffffe3 	blt	a4 <_DrawBitmap+0xa4>
 114:	e8bd8ffe 	pop	{r1, r2, r3, r4, r5, r6, r7, r8, r9, sl, fp, pc}
 118:	e3520000 	cmp	r2, #0
 11c:	0a000006 	beq	13c <_DrawBitmap+0x13c>
 120:	e3520001 	cmp	r2, #1
 124:	0a000043 	beq	238 <_DrawBitmap+0x238>
 128:	e3520002 	cmp	r2, #2
 12c:	0a00005f 	beq	2b0 <_DrawBitmap+0x2b0>
 130:	e3520003 	cmp	r2, #3
 134:	18bd8ffe 	popne	{r1, r2, r3, r4, r5, r6, r7, r8, r9, sl, fp, pc}
 138:	ea00007c 	b	330 <_DrawBitmap+0x330>
 13c:	e15a0004 	cmp	sl, r4
 140:	d8bd8ffe 	pople	{r1, r2, r3, r4, r5, r6, r7, r8, r9, sl, fp, pc}
 144:	e58d0004 	str	r0, [sp, #4]
 148:	ea000017 	b	1ac <_DrawBitmap+0x1ac>
 14c:	e59f24c8 	ldr	r2, [pc, #1224]	; 61c <_DrawBitmap+0x61c>
 150:	e59d1004 	ldr	r1, [sp, #4]
 154:	e5920044 	ldr	r0, [r2, #68]	; 0x44
 158:	e3560000 	cmp	r6, #0
 15c:	e0000091 	mul	r0, r1, r0
 160:	e5921040 	ldr	r1, [r2, #64]	; 0x40
 164:	159d2030 	ldrne	r2, [sp, #48]	; 0x30
 168:	e0810080 	add	r0, r1, r0, lsl #1
 16c:	e59d1004 	ldr	r1, [sp, #4]
 170:	e0800084 	add	r0, r0, r4, lsl #1
 174:	e0411007 	sub	r1, r1, r7
 178:	10421001 	subne	r1, r2, r1
 17c:	12411001 	subne	r1, r1, #1
 180:	e0010195 	mul	r1, r5, r1
 184:	e0442008 	sub	r2, r4, r8
 188:	e0891081 	add	r1, r9, r1, lsl #1
 18c:	e0811082 	add	r1, r1, r2, lsl #1
 190:	e04a2004 	sub	r2, sl, r4
 194:	e1a02082 	lsl	r2, r2, #1
 198:	ebfffffe 	bl	0 <__aeabi_memcpy>
 19c:	e59d0004 	ldr	r0, [sp, #4]
 1a0:	e2800001 	add	r0, r0, #1
 1a4:	e3c00801 	bic	r0, r0, #65536	; 0x10000
 1a8:	eaffffe5 	b	144 <_DrawBitmap+0x144>
 1ac:	e59d0004 	ldr	r0, [sp, #4]
 1b0:	e150000b 	cmp	r0, fp
 1b4:	baffffe4 	blt	14c <_DrawBitmap+0x14c>
 1b8:	e8bd8ffe 	pop	{r1, r2, r3, r4, r5, r6, r7, r8, r9, sl, fp, pc}
 1bc:	e59f2458 	ldr	r2, [pc, #1112]	; 61c <_DrawBitmap+0x61c>
 1c0:	e3560000 	cmp	r6, #0
 1c4:	e5921044 	ldr	r1, [r2, #68]	; 0x44
 1c8:	e5922040 	ldr	r2, [r2, #64]	; 0x40
 1cc:	e0010190 	mul	r1, r0, r1
 1d0:	159d3030 	ldrne	r3, [sp, #48]	; 0x30
 1d4:	e0821081 	add	r1, r2, r1, lsl #1
 1d8:	e0812084 	add	r2, r1, r4, lsl #1
 1dc:	e0441008 	sub	r1, r4, r8
 1e0:	10431001 	subne	r1, r3, r1
 1e4:	12411001 	subne	r1, r1, #1
 1e8:	e0010195 	mul	r1, r5, r1
 1ec:	e0403007 	sub	r3, r0, r7
 1f0:	e0453003 	sub	r3, r5, r3
 1f4:	e0891081 	add	r1, r9, r1, lsl #1
 1f8:	e0811083 	add	r1, r1, r3, lsl #1
 1fc:	e1a03804 	lsl	r3, r4, #16
 200:	e1a03823 	lsr	r3, r3, #16
 204:	e2411002 	sub	r1, r1, #2
 208:	ea000006 	b	228 <_DrawBitmap+0x228>
 20c:	e1d1c0b0 	ldrh	ip, [r1]
 210:	e3560000 	cmp	r6, #0
 214:	00811085 	addeq	r1, r1, r5, lsl #1
 218:	e2833001 	add	r3, r3, #1
 21c:	e3c33801 	bic	r3, r3, #65536	; 0x10000
 220:	10411085 	subne	r1, r1, r5, lsl #1
 224:	e0c2c0b2 	strh	ip, [r2], #2
 228:	e153000a 	cmp	r3, sl
 22c:	bafffff6 	blt	20c <_DrawBitmap+0x20c>
 230:	e2800001 	add	r0, r0, #1
 234:	e3c00801 	bic	r0, r0, #65536	; 0x10000
 238:	e150000b 	cmp	r0, fp
 23c:	baffffde 	blt	1bc <_DrawBitmap+0x1bc>
 240:	e8bd8ffe 	pop	{r1, r2, r3, r4, r5, r6, r7, r8, r9, sl, fp, pc}
 244:	e59f23d0 	ldr	r2, [pc, #976]	; 61c <_DrawBitmap+0x61c>
 248:	e3560000 	cmp	r6, #0
 24c:	e5921044 	ldr	r1, [r2, #68]	; 0x44
 250:	e5922040 	ldr	r2, [r2, #64]	; 0x40
 254:	e0010190 	mul	r1, r0, r1
 258:	059d3030 	ldreq	r3, [sp, #48]	; 0x30
 25c:	e0821081 	add	r1, r2, r1, lsl #1
 260:	e0402007 	sub	r2, r0, r7
 264:	00432002 	subeq	r2, r3, r2
 268:	02422001 	subeq	r2, r2, #1
 26c:	e0020295 	mul	r2, r5, r2
 270:	e0443008 	sub	r3, r4, r8
 274:	e0453003 	sub	r3, r5, r3
 278:	e0892082 	add	r2, r9, r2, lsl #1
 27c:	e0822083 	add	r2, r2, r3, lsl #1
 280:	e1a03804 	lsl	r3, r4, #16
 284:	e1a03823 	lsr	r3, r3, #16
 288:	e2422002 	sub	r2, r2, #2
 28c:	e0811084 	add	r1, r1, r4, lsl #1
 290:	e153000a 	cmp	r3, sl
 294:	b052c0b2 	ldrhlt	ip, [r2], #-2
 298:	b2833001 	addlt	r3, r3, #1
 29c:	b3c33801 	biclt	r3, r3, #65536	; 0x10000
 2a0:	b0c1c0b2 	strhlt	ip, [r1], #2
 2a4:	bafffff9 	blt	290 <_DrawBitmap+0x290>
 2a8:	e2800001 	add	r0, r0, #1
 2ac:	e3c00801 	bic	r0, r0, #65536	; 0x10000
 2b0:	e150000b 	cmp	r0, fp
 2b4:	baffffe2 	blt	244 <_DrawBitmap+0x244>
 2b8:	e8bd8ffe 	pop	{r1, r2, r3, r4, r5, r6, r7, r8, r9, sl, fp, pc}
 2bc:	e59f2358 	ldr	r2, [pc, #856]	; 61c <_DrawBitmap+0x61c>
 2c0:	e3560000 	cmp	r6, #0
 2c4:	e5921044 	ldr	r1, [r2, #68]	; 0x44
 2c8:	e5922040 	ldr	r2, [r2, #64]	; 0x40
 2cc:	e0010190 	mul	r1, r0, r1
 2d0:	059d3030 	ldreq	r3, [sp, #48]	; 0x30
 2d4:	e0821081 	add	r1, r2, r1, lsl #1
 2d8:	e0812084 	add	r2, r1, r4, lsl #1
 2dc:	e0441008 	sub	r1, r4, r8
 2e0:	00431001 	subeq	r1, r3, r1
 2e4:	02411001 	subeq	r1, r1, #1
 2e8:	e0010195 	mul	r1, r5, r1
 2ec:	e0403007 	sub	r3, r0, r7
 2f0:	e0891081 	add	r1, r9, r1, lsl #1
 2f4:	e0811083 	add	r1, r1, r3, lsl #1
 2f8:	e1a03804 	lsl	r3, r4, #16
 2fc:	e1a03823 	lsr	r3, r3, #16
 300:	ea000006 	b	320 <_DrawBitmap+0x320>
 304:	e1d1c0b0 	ldrh	ip, [r1]
 308:	e3560000 	cmp	r6, #0
 30c:	00411085 	subeq	r1, r1, r5, lsl #1
 310:	e2833001 	add	r3, r3, #1
 314:	e3c33801 	bic	r3, r3, #65536	; 0x10000
 318:	10811085 	addne	r1, r1, r5, lsl #1
 31c:	e0c2c0b2 	strh	ip, [r2], #2
 320:	e153000a 	cmp	r3, sl
 324:	bafffff6 	blt	304 <_DrawBitmap+0x304>
 328:	e2800001 	add	r0, r0, #1
 32c:	e3c00801 	bic	r0, r0, #65536	; 0x10000
 330:	e150000b 	cmp	r0, fp
 334:	baffffe0 	blt	2bc <_DrawBitmap+0x2bc>
 338:	e8bd8ffe 	pop	{r1, r2, r3, r4, r5, r6, r7, r8, r9, sl, fp, pc}
 33c:	e3510009 	cmp	r1, #9
 340:	908ff101 	addls	pc, pc, r1, lsl #2
 344:	e8bd8ffe 	pop	{r1, r2, r3, r4, r5, r6, r7, r8, r9, sl, fp, pc}
 348:	ea000049 	b	474 <_DrawBitmap+0x474>
 34c:	ea000048 	b	474 <_DrawBitmap+0x474>
 350:	ea00002a 	b	400 <_DrawBitmap+0x400>
 354:	ea000046 	b	474 <_DrawBitmap+0x474>
 358:	ea000045 	b	474 <_DrawBitmap+0x474>
 35c:	ea000044 	b	474 <_DrawBitmap+0x474>
 360:	ea000002 	b	370 <_DrawBitmap+0x370>
 364:	ea000042 	b	474 <_DrawBitmap+0x474>
 368:	ea000041 	b	474 <_DrawBitmap+0x474>
 36c:	ea000040 	b	474 <_DrawBitmap+0x474>
 370:	e1a05000 	mov	r5, r0
 374:	ea00001e 	b	3f4 <_DrawBitmap+0x3f4>
 378:	e59f629c 	ldr	r6, [pc, #668]	; 61c <_DrawBitmap+0x61c>
 37c:	e59d2040 	ldr	r2, [sp, #64]	; 0x40
 380:	e5960044 	ldr	r0, [r6, #68]	; 0x44
 384:	e5961040 	ldr	r1, [r6, #64]	; 0x40
 388:	e0000095 	mul	r0, r5, r0
 38c:	e59d303c 	ldr	r3, [sp, #60]	; 0x3c
 390:	e0810080 	add	r0, r1, r0, lsl #1
 394:	e0451007 	sub	r1, r5, r7
 398:	e0811002 	add	r1, r1, r2
 39c:	e59d2044 	ldr	r2, [sp, #68]	; 0x44
 3a0:	e0800084 	add	r0, r0, r4, lsl #1
 3a4:	e0010192 	mul	r1, r2, r1
 3a8:	e0442008 	sub	r2, r4, r8
 3ac:	e0822003 	add	r2, r2, r3
 3b0:	e0891081 	add	r1, r9, r1, lsl #1
 3b4:	e0811082 	add	r1, r1, r2, lsl #1
 3b8:	e1a02804 	lsl	r2, r4, #16
 3bc:	e1a02822 	lsr	r2, r2, #16
 3c0:	ea000007 	b	3e4 <_DrawBitmap+0x3e4>
 3c4:	e1d130b0 	ldrh	r3, [r1]
 3c8:	e59dc038 	ldr	ip, [sp, #56]	; 0x38
 3cc:	e2822001 	add	r2, r2, #1
 3d0:	e153000c 	cmp	r3, ip
 3d4:	11c030b0 	strhne	r3, [r0]
 3d8:	e2800002 	add	r0, r0, #2
 3dc:	e3c22801 	bic	r2, r2, #65536	; 0x10000
 3e0:	e2811002 	add	r1, r1, #2
 3e4:	e152000a 	cmp	r2, sl
 3e8:	bafffff5 	blt	3c4 <_DrawBitmap+0x3c4>
 3ec:	e2850001 	add	r0, r5, #1
 3f0:	e3c05801 	bic	r5, r0, #65536	; 0x10000
 3f4:	e155000b 	cmp	r5, fp
 3f8:	baffffde 	blt	378 <_DrawBitmap+0x378>
 3fc:	e8bd8ffe 	pop	{r1, r2, r3, r4, r5, r6, r7, r8, r9, sl, fp, pc}
 400:	e15a0004 	cmp	sl, r4
 404:	d8bd8ffe 	pople	{r1, r2, r3, r4, r5, r6, r7, r8, r9, sl, fp, pc}
 408:	e59d203c 	ldr	r2, [sp, #60]	; 0x3c
 40c:	e1a05000 	mov	r5, r0
 410:	e04a0004 	sub	r0, sl, r4
 414:	e0441008 	sub	r1, r4, r8
 418:	e59f61fc 	ldr	r6, [pc, #508]	; 61c <_DrawBitmap+0x61c>
 41c:	e0818002 	add	r8, r1, r2
 420:	e1a0a080 	lsl	sl, r0, #1
 424:	ea00000f 	b	468 <_DrawBitmap+0x468>
 428:	e5960044 	ldr	r0, [r6, #68]	; 0x44
 42c:	e5961040 	ldr	r1, [r6, #64]	; 0x40
 430:	e0000095 	mul	r0, r5, r0
 434:	e59d2040 	ldr	r2, [sp, #64]	; 0x40
 438:	e0810080 	add	r0, r1, r0, lsl #1
 43c:	e0451007 	sub	r1, r5, r7
 440:	e0811002 	add	r1, r1, r2
 444:	e59d2044 	ldr	r2, [sp, #68]	; 0x44
 448:	e0800084 	add	r0, r0, r4, lsl #1
 44c:	e0010192 	mul	r1, r2, r1
 450:	e1a0200a 	mov	r2, sl
 454:	e0891081 	add	r1, r9, r1, lsl #1
 458:	e0811088 	add	r1, r1, r8, lsl #1
 45c:	ebfffffe 	bl	0 <__aeabi_memcpy>
 460:	e2850001 	add	r0, r5, #1
 464:	e3c05801 	bic	r5, r0, #65536	; 0x10000
 468:	e155000b 	cmp	r5, fp
 46c:	baffffed 	blt	428 <_DrawBitmap+0x428>
 470:	e8bd8ffe 	pop	{r1, r2, r3, r4, r5, r6, r7, r8, r9, sl, fp, pc}
 474:	e58d0004 	str	r0, [sp, #4]
 478:	ea000063 	b	60c <_DrawBitmap+0x60c>
 47c:	e59f6198 	ldr	r6, [pc, #408]	; 61c <_DrawBitmap+0x61c>
 480:	e59d1004 	ldr	r1, [sp, #4]
 484:	e5960044 	ldr	r0, [r6, #68]	; 0x44
 488:	e59d203c 	ldr	r2, [sp, #60]	; 0x3c
 48c:	e0000091 	mul	r0, r1, r0
 490:	e5961040 	ldr	r1, [r6, #64]	; 0x40
 494:	e0810080 	add	r0, r1, r0, lsl #1
 498:	e0805084 	add	r5, r0, r4, lsl #1
 49c:	e59d0004 	ldr	r0, [sp, #4]
 4a0:	e59d1040 	ldr	r1, [sp, #64]	; 0x40
 4a4:	e0400007 	sub	r0, r0, r7
 4a8:	e0800001 	add	r0, r0, r1
 4ac:	e59d1044 	ldr	r1, [sp, #68]	; 0x44
 4b0:	e0000091 	mul	r0, r1, r0
 4b4:	e0441008 	sub	r1, r4, r8
 4b8:	e0811002 	add	r1, r1, r2
 4bc:	e0890080 	add	r0, r9, r0, lsl #1
 4c0:	e0806081 	add	r6, r0, r1, lsl #1
 4c4:	e1a00804 	lsl	r0, r4, #16
 4c8:	e1a00820 	lsr	r0, r0, #16
 4cc:	ea000047 	b	5f0 <_DrawBitmap+0x5f0>
 4d0:	e59d0034 	ldr	r0, [sp, #52]	; 0x34
 4d4:	e3500009 	cmp	r0, #9
 4d8:	908ff100 	addls	pc, pc, r0, lsl #2
 4dc:	ea00003e 	b	5dc <_DrawBitmap+0x5dc>
 4e0:	ea000028 	b	588 <_DrawBitmap+0x588>
 4e4:	ea000029 	b	590 <_DrawBitmap+0x590>
 4e8:	ea00003b 	b	5dc <_DrawBitmap+0x5dc>
 4ec:	ea00002b 	b	5a0 <_DrawBitmap+0x5a0>
 4f0:	ea00002c 	b	5a8 <_DrawBitmap+0x5a8>
 4f4:	ea000030 	b	5bc <_DrawBitmap+0x5bc>
 4f8:	ea000037 	b	5dc <_DrawBitmap+0x5dc>
 4fc:	ea000032 	b	5cc <_DrawBitmap+0x5cc>
 500:	ea000000 	b	508 <_DrawBitmap+0x508>
 504:	ea000018 	b	56c <_DrawBitmap+0x56c>
 508:	e1d610b0 	ldrh	r1, [r6]
 50c:	e59d0038 	ldr	r0, [sp, #56]	; 0x38
 510:	e1510000 	cmp	r1, r0
 514:	0a000030 	beq	5dc <_DrawBitmap+0x5dc>
 518:	e2010b3e 	and	r0, r1, #63488	; 0xf800
 51c:	e1a025a0 	lsr	r2, r0, #11
 520:	e3a0303c 	mov	r3, #60	; 0x3c
 524:	e1620382 	smulbb	r2, r2, r3
 528:	e2010e7e 	and	r0, r1, #2016	; 0x7e0
 52c:	e1a00320 	lsr	r0, r0, #6
 530:	e3a0303b 	mov	r3, #59	; 0x3b
 534:	e1600380 	smulbb	r0, r0, r3
 538:	e201101f 	and	r1, r1, #31
 53c:	e0820080 	add	r0, r2, r0, lsl #1
 540:	e3a0200b 	mov	r2, #11
 544:	e0010192 	mul	r1, r2, r1
 548:	e0800081 	add	r0, r0, r1, lsl #1
 54c:	e3a01019 	mov	r1, #25
 550:	ebfffffe 	bl	0 <__aeabi_uidivmod>
 554:	e1a011a0 	lsr	r1, r0, #3
 558:	e1a01581 	lsl	r1, r1, #11
 55c:	e1a02120 	lsr	r2, r0, #2
 560:	e0811282 	add	r1, r1, r2, lsl #5
 564:	e08101a0 	add	r0, r1, r0, lsr #3
 568:	ea000004 	b	580 <_DrawBitmap+0x580>
 56c:	e1d600b0 	ldrh	r0, [r6]
 570:	e59d1038 	ldr	r1, [sp, #56]	; 0x38
 574:	e1500001 	cmp	r0, r1
 578:	0a000017 	beq	5dc <_DrawBitmap+0x5dc>
 57c:	e1e00000 	mvn	r0, r0
 580:	e1c500b0 	strh	r0, [r5]
 584:	ea000014 	b	5dc <_DrawBitmap+0x5dc>
 588:	e1d600b0 	ldrh	r0, [r6]
 58c:	ea000007 	b	5b0 <_DrawBitmap+0x5b0>
 590:	e1d600b0 	ldrh	r0, [r6]
 594:	e1d510b0 	ldrh	r1, [r5]
 598:	e0200001 	eor	r0, r0, r1
 59c:	eafffff7 	b	580 <_DrawBitmap+0x580>
 5a0:	e1d600b0 	ldrh	r0, [r6]
 5a4:	eafffff4 	b	57c <_DrawBitmap+0x57c>
 5a8:	e1d600b0 	ldrh	r0, [r6]
 5ac:	e1e00000 	mvn	r0, r0
 5b0:	e1d510b0 	ldrh	r1, [r5]
 5b4:	e1800001 	orr	r0, r0, r1
 5b8:	eafffff0 	b	580 <_DrawBitmap+0x580>
 5bc:	e1d500b0 	ldrh	r0, [r5]
 5c0:	e1d610b0 	ldrh	r1, [r6]
 5c4:	e1c00001 	bic	r0, r0, r1
 5c8:	eaffffec 	b	580 <_DrawBitmap+0x580>
 5cc:	e1d600b0 	ldrh	r0, [r6]
 5d0:	e1d510b0 	ldrh	r1, [r5]
 5d4:	e0000001 	and	r0, r0, r1
 5d8:	eaffffe8 	b	580 <_DrawBitmap+0x580>
 5dc:	e59d0008 	ldr	r0, [sp, #8]
 5e0:	e2855002 	add	r5, r5, #2
 5e4:	e2800001 	add	r0, r0, #1
 5e8:	e3c00801 	bic	r0, r0, #65536	; 0x10000
 5ec:	e2866002 	add	r6, r6, #2
 5f0:	e150000a 	cmp	r0, sl
 5f4:	e58d0008 	str	r0, [sp, #8]
 5f8:	baffffb4 	blt	4d0 <_DrawBitmap+0x4d0>
 5fc:	e59d0004 	ldr	r0, [sp, #4]
 600:	e2800001 	add	r0, r0, #1
 604:	e3c00801 	bic	r0, r0, #65536	; 0x10000
 608:	eaffff99 	b	474 <_DrawBitmap+0x474>
 60c:	e59d0004 	ldr	r0, [sp, #4]
 610:	e150000b 	cmp	r0, fp
 614:	baffff98 	blt	47c <_DrawBitmap+0x47c>
 618:	e8bd8ffe 	pop	{r1, r2, r3, r4, r5, r6, r7, r8, r9, sl, fp, pc}
 61c:	00000000 	.word	0x00000000

Disassembly of section i._DrawBitmapEx:

00000000 <_DrawBitmapEx>:
   0:	e92d4fff 	push	{r0, r1, r2, r3, r4, r5, r6, r7, r8, r9, sl, fp, lr}
   4:	e24dd04c 	sub	sp, sp, #76	; 0x4c
   8:	e1a05000 	mov	r5, r0
   c:	e59d0080 	ldr	r0, [sp, #128]	; 0x80
  10:	e1a06002 	mov	r6, r2
  14:	e1d000f0 	ldrsh	r0, [r0]
  18:	e1a07003 	mov	r7, r3
  1c:	e58d0020 	str	r0, [sp, #32]
  20:	e59d0080 	ldr	r0, [sp, #128]	; 0x80
  24:	e1d020f2 	ldrsh	r2, [r0, #2]
  28:	e58d201c 	str	r2, [sp, #28]
  2c:	e1d010f4 	ldrsh	r1, [r0, #4]
  30:	e59d2050 	ldr	r2, [sp, #80]	; 0x50
  34:	e58d1018 	str	r1, [sp, #24]
  38:	e1d080f6 	ldrsh	r8, [r0, #6]
  3c:	e1d200b8 	ldrh	r0, [r2, #8]
  40:	e59d1018 	ldr	r1, [sp, #24]
  44:	e08000a6 	add	r0, r0, r6, lsr #1
  48:	e1a02800 	lsl	r2, r0, #16
  4c:	e1a02842 	asr	r2, r2, #16
  50:	e58d2014 	str	r2, [sp, #20]
  54:	e59d2050 	ldr	r2, [sp, #80]	; 0x50
  58:	e3510000 	cmp	r1, #0
  5c:	e1d200ba 	ldrh	r0, [r2, #10]
  60:	e59d201c 	ldr	r2, [sp, #28]
  64:	e08000a7 	add	r0, r0, r7, lsr #1
  68:	e1a00800 	lsl	r0, r0, #16
  6c:	e1a00840 	asr	r0, r0, #16
  70:	e58d0010 	str	r0, [sp, #16]
  74:	e59d0020 	ldr	r0, [sp, #32]
  78:	e1620182 	smulbb	r2, r2, r1
  7c:	e1600880 	smulbb	r0, r0, r8
  80:	b2611000 	rsblt	r1, r1, #0
  84:	e0409002 	sub	r9, r0, r2
  88:	e2580000 	subs	r0, r8, #0
  8c:	e0010196 	mul	r1, r6, r1
  90:	b2600000 	rsblt	r0, r0, #0
  94:	e59d2050 	ldr	r2, [sp, #80]	; 0x50
  98:	e0201097 	mla	r0, r7, r0, r1
  9c:	e1d220b6 	ldrh	r2, [r2, #6]
  a0:	e1a01380 	lsl	r1, r0, #7
  a4:	e59d3010 	ldr	r3, [sp, #16]
  a8:	e1a01841 	asr	r1, r1, #16
  ac:	e2610000 	rsb	r0, r1, #0
  b0:	e0422003 	sub	r2, r2, r3
  b4:	e1520001 	cmp	r2, r1
  b8:	d1a01002 	movle	r1, r2
  bc:	e1a01801 	lsl	r1, r1, #16
  c0:	e59d3010 	ldr	r3, [sp, #16]
  c4:	e1a01841 	asr	r1, r1, #16
  c8:	e1a00800 	lsl	r0, r0, #16
  cc:	e58d100c 	str	r1, [sp, #12]
  d0:	e2631000 	rsb	r1, r3, #0
  d4:	e1a00840 	asr	r0, r0, #16
  d8:	e1500001 	cmp	r0, r1
  dc:	d1a00001 	movle	r0, r1
  e0:	e1a04800 	lsl	r4, r0, #16
  e4:	e1a04844 	asr	r4, r4, #16
  e8:	ea000114 	b	540 <_DrawBitmapEx+0x540>
  ec:	e3580000 	cmp	r8, #0
  f0:	059fa45c 	ldreq	sl, [pc, #1116]	; 554 <_DrawBitmapEx+0x554>
  f4:	0a00000e 	beq	134 <_DrawBitmapEx+0x134>
  f8:	e59d101c 	ldr	r1, [sp, #28]
  fc:	e00a0699 	mul	sl, r9, r6
 100:	e0000194 	mul	r0, r4, r1
 104:	e1a01008 	mov	r1, r8
 108:	e58d0048 	str	r0, [sp, #72]	; 0x48
 10c:	e08004ca 	add	r0, r0, sl, asr #9
 110:	ebfffffe 	bl	0 <__aeabi_idivmod>
 114:	e1a0b000 	mov	fp, r0
 118:	e59d0048 	ldr	r0, [sp, #72]	; 0x48
 11c:	e1a01008 	mov	r1, r8
 120:	e04004ca 	sub	r0, r0, sl, asr #9
 124:	ebfffffe 	bl	0 <__aeabi_idivmod>
 128:	e15b0000 	cmp	fp, r0
 12c:	c1a0000b 	movgt	r0, fp
 130:	e1a0a000 	mov	sl, r0
 134:	e59d1018 	ldr	r1, [sp, #24]
 138:	e3510000 	cmp	r1, #0
 13c:	059f0410 	ldreq	r0, [pc, #1040]	; 554 <_DrawBitmapEx+0x554>
 140:	0a00000f 	beq	184 <_DrawBitmapEx+0x184>
 144:	e59d0020 	ldr	r0, [sp, #32]
 148:	e0010799 	mul	r1, r9, r7
 14c:	e0000094 	mul	r0, r4, r0
 150:	e58d1040 	str	r1, [sp, #64]	; 0x40
 154:	e58d0044 	str	r0, [sp, #68]	; 0x44
 158:	e08004c1 	add	r0, r0, r1, asr #9
 15c:	e59d1018 	ldr	r1, [sp, #24]
 160:	ebfffffe 	bl	0 <__aeabi_idivmod>
 164:	e1a0b000 	mov	fp, r0
 168:	e59d0044 	ldr	r0, [sp, #68]	; 0x44
 16c:	e59d1040 	ldr	r1, [sp, #64]	; 0x40
 170:	e04004c1 	sub	r0, r0, r1, asr #9
 174:	e59d1018 	ldr	r1, [sp, #24]
 178:	ebfffffe 	bl	0 <__aeabi_idivmod>
 17c:	e15b0000 	cmp	fp, r0
 180:	c1a0000b 	movgt	r0, fp
 184:	e15a0000 	cmp	sl, r0
 188:	aa00000d 	bge	1c4 <_DrawBitmapEx+0x1c4>
 18c:	e3580000 	cmp	r8, #0
 190:	0a00000e 	beq	1d0 <_DrawBitmapEx+0x1d0>
 194:	e59d101c 	ldr	r1, [sp, #28]
 198:	e00a0699 	mul	sl, r9, r6
 19c:	e0000194 	mul	r0, r4, r1
 1a0:	e1a01008 	mov	r1, r8
 1a4:	e58d003c 	str	r0, [sp, #60]	; 0x3c
 1a8:	e08004ca 	add	r0, r0, sl, asr #9
 1ac:	ebfffffe 	bl	0 <__aeabi_idivmod>
 1b0:	e1a0b000 	mov	fp, r0
 1b4:	e59d003c 	ldr	r0, [sp, #60]	; 0x3c
 1b8:	e1a01008 	mov	r1, r8
 1bc:	e04004ca 	sub	r0, r0, sl, asr #9
 1c0:	ea00000f 	b	204 <_DrawBitmapEx+0x204>
 1c4:	e59d1018 	ldr	r1, [sp, #24]
 1c8:	e3510000 	cmp	r1, #0
 1cc:	1a000001 	bne	1d8 <_DrawBitmapEx+0x1d8>
 1d0:	e59f037c 	ldr	r0, [pc, #892]	; 554 <_DrawBitmapEx+0x554>
 1d4:	ea00000d 	b	210 <_DrawBitmapEx+0x210>
 1d8:	e59d0020 	ldr	r0, [sp, #32]
 1dc:	e00a0799 	mul	sl, r9, r7
 1e0:	e0000094 	mul	r0, r4, r0
 1e4:	e59d1018 	ldr	r1, [sp, #24]
 1e8:	e58d0038 	str	r0, [sp, #56]	; 0x38
 1ec:	e08004ca 	add	r0, r0, sl, asr #9
 1f0:	ebfffffe 	bl	0 <__aeabi_idivmod>
 1f4:	e1a0b000 	mov	fp, r0
 1f8:	e59d0038 	ldr	r0, [sp, #56]	; 0x38
 1fc:	e59d1018 	ldr	r1, [sp, #24]
 200:	e04004ca 	sub	r0, r0, sl, asr #9
 204:	ebfffffe 	bl	0 <__aeabi_idivmod>
 208:	e15b0000 	cmp	fp, r0
 20c:	c1a0000b 	movgt	r0, fp
 210:	e1a02800 	lsl	r2, r0, #16
 214:	e3580000 	cmp	r8, #0
 218:	e1a02842 	asr	r2, r2, #16
 21c:	059fa334 	ldreq	sl, [pc, #820]	; 558 <_DrawBitmapEx+0x558>
 220:	e58d2008 	str	r2, [sp, #8]
 224:	0a00000e 	beq	264 <_DrawBitmapEx+0x264>
 228:	e59d101c 	ldr	r1, [sp, #28]
 22c:	e00a0699 	mul	sl, r9, r6
 230:	e0000194 	mul	r0, r4, r1
 234:	e1a01008 	mov	r1, r8
 238:	e58d0034 	str	r0, [sp, #52]	; 0x34
 23c:	e04004ca 	sub	r0, r0, sl, asr #9
 240:	ebfffffe 	bl	0 <__aeabi_idivmod>
 244:	e1a0b000 	mov	fp, r0
 248:	e59d0034 	ldr	r0, [sp, #52]	; 0x34
 24c:	e1a01008 	mov	r1, r8
 250:	e08004ca 	add	r0, r0, sl, asr #9
 254:	ebfffffe 	bl	0 <__aeabi_idivmod>
 258:	e15b0000 	cmp	fp, r0
 25c:	b1a0000b 	movlt	r0, fp
 260:	e1a0a000 	mov	sl, r0
 264:	e59d1018 	ldr	r1, [sp, #24]
 268:	e3510000 	cmp	r1, #0
 26c:	059f02e4 	ldreq	r0, [pc, #740]	; 558 <_DrawBitmapEx+0x558>
 270:	0a00000f 	beq	2b4 <_DrawBitmapEx+0x2b4>
 274:	e59d0020 	ldr	r0, [sp, #32]
 278:	e0010799 	mul	r1, r9, r7
 27c:	e0000094 	mul	r0, r4, r0
 280:	e58d102c 	str	r1, [sp, #44]	; 0x2c
 284:	e58d0030 	str	r0, [sp, #48]	; 0x30
 288:	e04004c1 	sub	r0, r0, r1, asr #9
 28c:	e59d1018 	ldr	r1, [sp, #24]
 290:	ebfffffe 	bl	0 <__aeabi_idivmod>
 294:	e1a0b000 	mov	fp, r0
 298:	e59d0030 	ldr	r0, [sp, #48]	; 0x30
 29c:	e59d102c 	ldr	r1, [sp, #44]	; 0x2c
 2a0:	e08004c1 	add	r0, r0, r1, asr #9
 2a4:	e59d1018 	ldr	r1, [sp, #24]
 2a8:	ebfffffe 	bl	0 <__aeabi_idivmod>
 2ac:	e15b0000 	cmp	fp, r0
 2b0:	b1a0000b 	movlt	r0, fp
 2b4:	e15a0000 	cmp	sl, r0
 2b8:	da00000d 	ble	2f4 <_DrawBitmapEx+0x2f4>
 2bc:	e3580000 	cmp	r8, #0
 2c0:	0a00000e 	beq	300 <_DrawBitmapEx+0x300>
 2c4:	e59d101c 	ldr	r1, [sp, #28]
 2c8:	e00a0699 	mul	sl, r9, r6
 2cc:	e0000194 	mul	r0, r4, r1
 2d0:	e1a01008 	mov	r1, r8
 2d4:	e58d0028 	str	r0, [sp, #40]	; 0x28
 2d8:	e04004ca 	sub	r0, r0, sl, asr #9
 2dc:	ebfffffe 	bl	0 <__aeabi_idivmod>
 2e0:	e1a0b000 	mov	fp, r0
 2e4:	e59d0028 	ldr	r0, [sp, #40]	; 0x28
 2e8:	e1a01008 	mov	r1, r8
 2ec:	e08004ca 	add	r0, r0, sl, asr #9
 2f0:	ea00000f 	b	334 <_DrawBitmapEx+0x334>
 2f4:	e59d1018 	ldr	r1, [sp, #24]
 2f8:	e3510000 	cmp	r1, #0
 2fc:	1a000001 	bne	308 <_DrawBitmapEx+0x308>
 300:	e59f0250 	ldr	r0, [pc, #592]	; 558 <_DrawBitmapEx+0x558>
 304:	ea00000d 	b	340 <_DrawBitmapEx+0x340>
 308:	e59d0020 	ldr	r0, [sp, #32]
 30c:	e00a0799 	mul	sl, r9, r7
 310:	e0000094 	mul	r0, r4, r0
 314:	e59d1018 	ldr	r1, [sp, #24]
 318:	e58d0024 	str	r0, [sp, #36]	; 0x24
 31c:	e04004ca 	sub	r0, r0, sl, asr #9
 320:	ebfffffe 	bl	0 <__aeabi_idivmod>
 324:	e1a0b000 	mov	fp, r0
 328:	e59d0024 	ldr	r0, [sp, #36]	; 0x24
 32c:	e59d1018 	ldr	r1, [sp, #24]
 330:	e08004ca 	add	r0, r0, sl, asr #9
 334:	ebfffffe 	bl	0 <__aeabi_idivmod>
 338:	e15b0000 	cmp	fp, r0
 33c:	b1a0000b 	movlt	r0, fp
 340:	e59d1050 	ldr	r1, [sp, #80]	; 0x50
 344:	e59d2014 	ldr	r2, [sp, #20]
 348:	e1d110b4 	ldrh	r1, [r1, #4]
 34c:	e59d3008 	ldr	r3, [sp, #8]
 350:	e1a00800 	lsl	r0, r0, #16
 354:	e0412002 	sub	r2, r1, r2
 358:	e1520003 	cmp	r2, r3
 35c:	c59d2008 	ldrgt	r2, [sp, #8]
 360:	e1a00840 	asr	r0, r0, #16
 364:	e1a02802 	lsl	r2, r2, #16
 368:	e1a02842 	asr	r2, r2, #16
 36c:	e58d2008 	str	r2, [sp, #8]
 370:	e59d2014 	ldr	r2, [sp, #20]
 374:	e2622000 	rsb	r2, r2, #0
 378:	e1500002 	cmp	r0, r2
 37c:	d1a00002 	movle	r0, r2
 380:	e1a0b800 	lsl	fp, r0, #16
 384:	e59d0010 	ldr	r0, [sp, #16]
 388:	e59d2014 	ldr	r2, [sp, #20]
 38c:	e0840000 	add	r0, r4, r0
 390:	e0000091 	mul	r0, r1, r0
 394:	e59d1050 	ldr	r1, [sp, #80]	; 0x50
 398:	e1a0b84b 	asr	fp, fp, #16
 39c:	e5911000 	ldr	r1, [r1]
 3a0:	e0810080 	add	r0, r1, r0, lsl #1
 3a4:	e08b1002 	add	r1, fp, r2
 3a8:	e080a081 	add	sl, r0, r1, lsl #1
 3ac:	e59d0080 	ldr	r0, [sp, #128]	; 0x80
 3b0:	e1d000b8 	ldrh	r0, [r0, #8]
 3b4:	e3500002 	cmp	r0, #2
 3b8:	0a00005c 	beq	530 <_DrawBitmapEx+0x530>
 3bc:	e3500006 	cmp	r0, #6
 3c0:	1a00005d 	bne	53c <_DrawBitmapEx+0x53c>
 3c4:	ea00002b 	b	478 <_DrawBitmapEx+0x478>
 3c8:	e59d0020 	ldr	r0, [sp, #32]
 3cc:	e59d1018 	ldr	r1, [sp, #24]
 3d0:	e0000094 	mul	r0, r4, r0
 3d4:	e001019b 	mul	r1, fp, r1
 3d8:	e0400001 	sub	r0, r0, r1
 3dc:	e1a00400 	lsl	r0, r0, #8
 3e0:	e1a01009 	mov	r1, r9
 3e4:	ebfffffe 	bl	0 <__aeabi_idivmod>
 3e8:	e08010a7 	add	r1, r0, r7, lsr #1
 3ec:	e58d1004 	str	r1, [sp, #4]
 3f0:	e59d101c 	ldr	r1, [sp, #28]
 3f4:	e000089b 	mul	r0, fp, r8
 3f8:	e0010194 	mul	r1, r4, r1
 3fc:	e0400001 	sub	r0, r0, r1
 400:	e1a00400 	lsl	r0, r0, #8
 404:	e1a01009 	mov	r1, r9
 408:	ebfffffe 	bl	0 <__aeabi_idivmod>
 40c:	e59d1004 	ldr	r1, [sp, #4]
 410:	e08000a6 	add	r0, r0, r6, lsr #1
 414:	e1510007 	cmp	r1, r7
 418:	aa000014 	bge	470 <_DrawBitmapEx+0x470>
 41c:	e59d1004 	ldr	r1, [sp, #4]
 420:	e3510000 	cmp	r1, #0
 424:	ba000011 	blt	470 <_DrawBitmapEx+0x470>
 428:	e1500006 	cmp	r0, r6
 42c:	aa00000f 	bge	470 <_DrawBitmapEx+0x470>
 430:	e3500000 	cmp	r0, #0
 434:	ba00000d 	blt	470 <_DrawBitmapEx+0x470>
 438:	e1d510ba 	ldrh	r1, [r5, #10]
 43c:	e59d2004 	ldr	r2, [sp, #4]
 440:	e0811002 	add	r1, r1, r2
 444:	e1d520b4 	ldrh	r2, [r5, #4]
 448:	e0010192 	mul	r1, r2, r1
 44c:	e5952000 	ldr	r2, [r5]
 450:	e0821081 	add	r1, r2, r1, lsl #1
 454:	e1d520b8 	ldrh	r2, [r5, #8]
 458:	e0820000 	add	r0, r2, r0
 45c:	e0810080 	add	r0, r1, r0, lsl #1
 460:	e1d000b0 	ldrh	r0, [r0]
 464:	e59d1084 	ldr	r1, [sp, #132]	; 0x84
 468:	e1500001 	cmp	r0, r1
 46c:	11ca00b0 	strhne	r0, [sl]
 470:	e28aa002 	add	sl, sl, #2
 474:	e28bb001 	add	fp, fp, #1
 478:	e59d0008 	ldr	r0, [sp, #8]
 47c:	e15b0000 	cmp	fp, r0
 480:	baffffd0 	blt	3c8 <_DrawBitmapEx+0x3c8>
 484:	ea00002c 	b	53c <_DrawBitmapEx+0x53c>
 488:	e59d0020 	ldr	r0, [sp, #32]
 48c:	e59d1018 	ldr	r1, [sp, #24]
 490:	e0000094 	mul	r0, r4, r0
 494:	e001019b 	mul	r1, fp, r1
 498:	e0400001 	sub	r0, r0, r1
 49c:	e1a00400 	lsl	r0, r0, #8
 4a0:	e1a01009 	mov	r1, r9
 4a4:	ebfffffe 	bl	0 <__aeabi_idivmod>
 4a8:	e08010a7 	add	r1, r0, r7, lsr #1
 4ac:	e58d1004 	str	r1, [sp, #4]
 4b0:	e59d101c 	ldr	r1, [sp, #28]
 4b4:	e000089b 	mul	r0, fp, r8
 4b8:	e0010194 	mul	r1, r4, r1
 4bc:	e0400001 	sub	r0, r0, r1
 4c0:	e1a00400 	lsl	r0, r0, #8
 4c4:	e1a01009 	mov	r1, r9
 4c8:	ebfffffe 	bl	0 <__aeabi_idivmod>
 4cc:	e59d1004 	ldr	r1, [sp, #4]
 4d0:	e08000a6 	add	r0, r0, r6, lsr #1
 4d4:	e1510007 	cmp	r1, r7
 4d8:	aa000012 	bge	528 <_DrawBitmapEx+0x528>
 4dc:	e59d1004 	ldr	r1, [sp, #4]
 4e0:	e3510000 	cmp	r1, #0
 4e4:	ba00000f 	blt	528 <_DrawBitmapEx+0x528>
 4e8:	e1500006 	cmp	r0, r6
 4ec:	aa00000d 	bge	528 <_DrawBitmapEx+0x528>
 4f0:	e3500000 	cmp	r0, #0
 4f4:	ba00000b 	blt	528 <_DrawBitmapEx+0x528>
 4f8:	e1d510ba 	ldrh	r1, [r5, #10]
 4fc:	e59d2004 	ldr	r2, [sp, #4]
 500:	e0811002 	add	r1, r1, r2
 504:	e1d520b4 	ldrh	r2, [r5, #4]
 508:	e0010192 	mul	r1, r2, r1
 50c:	e5952000 	ldr	r2, [r5]
 510:	e0821081 	add	r1, r2, r1, lsl #1
 514:	e1d520b8 	ldrh	r2, [r5, #8]
 518:	e0820000 	add	r0, r2, r0
 51c:	e0810080 	add	r0, r1, r0, lsl #1
 520:	e1d000b0 	ldrh	r0, [r0]
 524:	e1ca00b0 	strh	r0, [sl]
 528:	e28aa002 	add	sl, sl, #2
 52c:	e28bb001 	add	fp, fp, #1
 530:	e59d0008 	ldr	r0, [sp, #8]
 534:	e15b0000 	cmp	fp, r0
 538:	baffffd2 	blt	488 <_DrawBitmapEx+0x488>
 53c:	e2844001 	add	r4, r4, #1
 540:	e59d000c 	ldr	r0, [sp, #12]
 544:	e1540000 	cmp	r4, r0
 548:	bafffee7 	blt	ec <_DrawBitmapEx+0xec>
 54c:	e28dd05c 	add	sp, sp, #92	; 0x5c
 550:	e8bd8ff0 	pop	{r4, r5, r6, r7, r8, r9, sl, fp, pc}
 554:	000003e7 	.word	0x000003e7
 558:	fffffc19 	.word	0xfffffc19

Disassembly of section i.DrawRect:

00000000 <DrawRect>:
   0:	e92d47f0 	push	{r4, r5, r6, r7, r8, r9, sl, lr}
   4:	e59f8140 	ldr	r8, [pc, #320]	; 14c <DrawRect+0x14c>
   8:	e0813003 	add	r3, r1, r3
   c:	e5984048 	ldr	r4, [r8, #72]	; 0x48
  10:	e0802002 	add	r2, r0, r2
  14:	e1530004 	cmp	r3, r4
  18:	c1a03004 	movgt	r3, r4
  1c:	e1a06003 	mov	r6, r3
  20:	e5983044 	ldr	r3, [r8, #68]	; 0x44
  24:	e59dc020 	ldr	ip, [sp, #32]
  28:	e1520003 	cmp	r2, r3
  2c:	c1a02003 	movgt	r2, r3
  30:	e3510000 	cmp	r1, #0
  34:	b3a01000 	movlt	r1, #0
  38:	e3500000 	cmp	r0, #0
  3c:	b3a00000 	movlt	r0, #0
  40:	e1a04000 	mov	r4, r0
  44:	e59de024 	ldr	lr, [sp, #36]	; 0x24
  48:	e1a001ac 	lsr	r0, ip, #3
  4c:	e59d5028 	ldr	r5, [sp, #40]	; 0x28
  50:	e1a00580 	lsl	r0, r0, #11
  54:	e1a0c12e 	lsr	ip, lr, #2
  58:	e080028c 	add	r0, r0, ip, lsl #5
  5c:	e1560001 	cmp	r6, r1
  60:	e08001a5 	add	r0, r0, r5, lsr #3
  64:	c1520004 	cmpgt	r2, r4
  68:	e3c07803 	bic	r7, r0, #196608	; 0x30000
  6c:	d8bd87f0 	pople	{r4, r5, r6, r7, r8, r9, sl, pc}
  70:	e0000193 	mul	r0, r3, r1
  74:	e5983040 	ldr	r3, [r8, #64]	; 0x40
  78:	e0830080 	add	r0, r3, r0, lsl #1
  7c:	e0800084 	add	r0, r0, r4, lsl #1
  80:	e1a03804 	lsl	r3, r4, #16
  84:	e1a03823 	lsr	r3, r3, #16
  88:	e1a05000 	mov	r5, r0
  8c:	e1530002 	cmp	r3, r2
  90:	b2833001 	addlt	r3, r3, #1
  94:	b3c33801 	biclt	r3, r3, #65536	; 0x10000
  98:	b0c070b2 	strhlt	r7, [r0], #2
  9c:	bafffffa 	blt	8c <DrawRect+0x8c>
  a0:	e3150003 	tst	r5, #3
  a4:	0a000015 	beq	100 <DrawRect+0x100>
  a8:	e285a002 	add	sl, r5, #2
  ac:	e2810001 	add	r0, r1, #1
  b0:	e1a05800 	lsl	r5, r0, #16
  b4:	e0420004 	sub	r0, r2, r4
  b8:	e2400001 	sub	r0, r0, #1
  bc:	e1a09080 	lsl	r9, r0, #1
  c0:	e1a05825 	lsr	r5, r5, #16
  c4:	ea00000a 	b	f4 <DrawRect+0xf4>
  c8:	e5980044 	ldr	r0, [r8, #68]	; 0x44
  cc:	e5981040 	ldr	r1, [r8, #64]	; 0x40
  d0:	e0000095 	mul	r0, r5, r0
  d4:	e1a02009 	mov	r2, r9
  d8:	e0810080 	add	r0, r1, r0, lsl #1
  dc:	e0800084 	add	r0, r0, r4, lsl #1
  e0:	e1a0100a 	mov	r1, sl
  e4:	e0c070b2 	strh	r7, [r0], #2
  e8:	ebfffffe 	bl	0 <__aeabi_memcpy>
  ec:	e2850001 	add	r0, r5, #1
  f0:	e3c05801 	bic	r5, r0, #65536	; 0x10000
  f4:	e1550006 	cmp	r5, r6
  f8:	bafffff2 	blt	c8 <DrawRect+0xc8>
  fc:	e8bd87f0 	pop	{r4, r5, r6, r7, r8, r9, sl, pc}
 100:	e2810001 	add	r0, r1, #1
 104:	e1a07800 	lsl	r7, r0, #16
 108:	e0420004 	sub	r0, r2, r4
 10c:	e1a09080 	lsl	r9, r0, #1
 110:	e1a07827 	lsr	r7, r7, #16
 114:	ea000009 	b	140 <DrawRect+0x140>
 118:	e5980044 	ldr	r0, [r8, #68]	; 0x44
 11c:	e5981040 	ldr	r1, [r8, #64]	; 0x40
 120:	e0000097 	mul	r0, r7, r0
 124:	e1a02009 	mov	r2, r9
 128:	e0810080 	add	r0, r1, r0, lsl #1
 12c:	e0800084 	add	r0, r0, r4, lsl #1
 130:	e1a01005 	mov	r1, r5
 134:	ebfffffe 	bl	0 <__aeabi_memcpy>
 138:	e2870001 	add	r0, r7, #1
 13c:	e3c07801 	bic	r7, r0, #65536	; 0x10000
 140:	e1570006 	cmp	r7, r6
 144:	bafffff3 	blt	118 <DrawRect+0x118>
 148:	e8bd87f0 	pop	{r4, r5, r6, r7, r8, r9, sl, pc}
 14c:	00000000 	.word	0x00000000

Disassembly of section i._DrawText:

00000000 <_DrawText>:
   0:	e92d4ffe 	push	{r1, r2, r3, r4, r5, r6, r7, r8, r9, sl, fp, lr}
   4:	e3500000 	cmp	r0, #0
   8:	e1a05001 	mov	r5, r1
   c:	e59d7038 	ldr	r7, [sp, #56]	; 0x38
  10:	01a01005 	moveq	r1, r5
  14:	028f00f4 	addeq	r0, pc, #244	; 0xf4
  18:	e1a09003 	mov	r9, r3
  1c:	e1a08002 	mov	r8, r2
  20:	e1cda3d0 	ldrd	sl, [sp, #48]	; 0x30
  24:	0a000009 	beq	50 <_DrawText+0x50>
  28:	e3570000 	cmp	r7, #0
  2c:	11a06000 	movne	r6, r0
  30:	1a000008 	bne	58 <_DrawText+0x58>
  34:	e28d2008 	add	r2, sp, #8
  38:	e3a01000 	mov	r1, #0
  3c:	ebfffffe 	bl	0 <c2u>
  40:	e1b06000 	movs	r6, r0
  44:	1a000003 	bne	58 <_DrawText+0x58>
  48:	e1a01005 	mov	r1, r5
  4c:	e28f00d8 	add	r0, pc, #216	; 0xd8
  50:	ebfffffe 	bl	0 <mr_printf>
  54:	ea00002b 	b	108 <_DrawText+0x108>
  58:	e1a001a9 	lsr	r0, r9, #3
  5c:	e1a00580 	lsl	r0, r0, #11
  60:	e1a0112a 	lsr	r1, sl, #2
  64:	e0800281 	add	r0, r0, r1, lsl #5
  68:	e5d61001 	ldrb	r1, [r6, #1]
  6c:	e5d62000 	ldrb	r2, [r6]
  70:	e08001ab 	add	r0, r0, fp, lsr #3
  74:	e1a0a800 	lsl	sl, r0, #16
  78:	e1a05805 	lsl	r5, r5, #16
  7c:	e1a08808 	lsl	r8, r8, #16
  80:	e0811402 	add	r1, r1, r2, lsl #8
  84:	e3c19801 	bic	r9, r1, #65536	; 0x10000
  88:	e1a08828 	lsr	r8, r8, #16
  8c:	e1a05825 	lsr	r5, r5, #16
  90:	e1a0a82a 	lsr	sl, sl, #16
  94:	e1a04006 	mov	r4, r6
  98:	ea000014 	b	f0 <_DrawText+0xf0>
  9c:	e59d103c 	ldr	r1, [sp, #60]	; 0x3c
  a0:	e1a0300d 	mov	r3, sp
  a4:	e28d2004 	add	r2, sp, #4
  a8:	e1a00009 	mov	r0, r9
  ac:	ebfffffe 	bl	0 <mr_getCharBitmap>
  b0:	e3500000 	cmp	r0, #0
  b4:	0a000008 	beq	dc <_DrawText+0xdc>
  b8:	e1a0300a 	mov	r3, sl
  bc:	e1a02008 	mov	r2, r8
  c0:	e1a01005 	mov	r1, r5
  c4:	e1a00009 	mov	r0, r9
  c8:	ebfffffe 	bl	0 <mr_platDrawCharReal>
  cc:	e59d0004 	ldr	r0, [sp, #4]
  d0:	e0850000 	add	r0, r5, r0
  d4:	e1a05800 	lsl	r5, r0, #16
  d8:	e1a05825 	lsr	r5, r5, #16
  dc:	e2844002 	add	r4, r4, #2
  e0:	e5d40001 	ldrb	r0, [r4, #1]
  e4:	e5d41000 	ldrb	r1, [r4]
  e8:	e0800401 	add	r0, r0, r1, lsl #8
  ec:	e3c09801 	bic	r9, r0, #65536	; 0x10000
  f0:	e3590000 	cmp	r9, #0
  f4:	1affffe8 	bne	9c <_DrawText+0x9c>
  f8:	e3570000 	cmp	r7, #0
  fc:	059d1008 	ldreq	r1, [sp, #8]
 100:	01a00006 	moveq	r0, r6
 104:	0bfffffe 	bleq	0 <_DrawText>
 108:	e3a00000 	mov	r0, #0
 10c:	e8bd8ffe 	pop	{r1, r2, r3, r4, r5, r6, r7, r8, r9, sl, fp, pc}
 110:	77617244 	.word	0x77617244
 114:	74786554 	.word	0x74786554
 118:	253d7820 	.word	0x253d7820
 11c:	74203a64 	.word	0x74203a64
 120:	69207478 	.word	0x69207478
 124:	696e2073 	.word	0x696e2073
 128:	0000216c 	.word	0x0000216c
 12c:	77617244 	.word	0x77617244
 130:	74786554 	.word	0x74786554
 134:	253d7820 	.word	0x253d7820
 138:	32633a64 	.word	0x32633a64
 13c:	72652075 	.word	0x72652075
 140:	00002172 	.word	0x00002172

Disassembly of section i.mr_wstrlen:

00000000 <mr_wstrlen>:
   0:	e1a01000 	mov	r1, r0
   4:	e3a00000 	mov	r0, #0
   8:	e5d12001 	ldrb	r2, [r1, #1]
   c:	e5d13000 	ldrb	r3, [r1]
  10:	e0922403 	adds	r2, r2, r3, lsl #8
  14:	12800002 	addne	r0, r0, #2
  18:	12811002 	addne	r1, r1, #2
  1c:	1afffff9 	bne	8 <mr_wstrlen+0x8>
  20:	e12fff1e 	bx	lr

Disassembly of section i._DrawTextEx:

00000000 <_DrawTextEx>:
   0:	e92d000f 	push	{r0, r1, r2, r3}
   4:	e92d4ff0 	push	{r4, r5, r6, r7, r8, r9, sl, fp, lr}
   8:	e3500000 	cmp	r0, #0
   c:	e1a0b002 	mov	fp, r2
  10:	e3a02000 	mov	r2, #0
  14:	e24dd01c 	sub	sp, sp, #28
  18:	e1a09001 	mov	r9, r1
  1c:	01a01009 	moveq	r1, r9
  20:	028f0c02 	addeq	r0, pc, #512	; 0x200
  24:	e58d2010 	str	r2, [sp, #16]
  28:	0a00000a 	beq	58 <_DrawTextEx+0x58>
  2c:	e59d2058 	ldr	r2, [sp, #88]	; 0x58
  30:	e3120001 	tst	r2, #1
  34:	11a08000 	movne	r8, r0
  38:	1a00000b 	bne	6c <_DrawTextEx+0x6c>
  3c:	e28d2014 	add	r2, sp, #20
  40:	e3a01000 	mov	r1, #0
  44:	ebfffffe 	bl	0 <c2u>
  48:	e1b08000 	movs	r8, r0
  4c:	1a000006 	bne	6c <_DrawTextEx+0x6c>
  50:	e1a01009 	mov	r1, r9
  54:	e28f0f7b 	add	r0, pc, #492	; 0x1ec
  58:	ebfffffe 	bl	0 <mr_printf>
  5c:	e3a00000 	mov	r0, #0
  60:	e28dd01c 	add	sp, sp, #28
  64:	e8bd0ff0 	pop	{r4, r5, r6, r7, r8, r9, sl, fp}
  68:	e49df014 	ldr	pc, [sp], #20
  6c:	e1a06809 	lsl	r6, r9, #16
  70:	e1a06826 	lsr	r6, r6, #16
  74:	e58d6018 	str	r6, [sp, #24]
  78:	e5dd0054 	ldrb	r0, [sp, #84]	; 0x54
  7c:	e5dd1055 	ldrb	r1, [sp, #85]	; 0x55
  80:	e1a0a80b 	lsl	sl, fp, #16
  84:	e1a001a0 	lsr	r0, r0, #3
  88:	e1a00580 	lsl	r0, r0, #11
  8c:	e1a01121 	lsr	r1, r1, #2
  90:	e0800281 	add	r0, r0, r1, lsl #5
  94:	e5dd1056 	ldrb	r1, [sp, #86]	; 0x56
  98:	e1a0a82a 	lsr	sl, sl, #16
  9c:	e1a04008 	mov	r4, r8
  a0:	e08001a1 	add	r0, r0, r1, lsr #3
  a4:	e3c03803 	bic	r3, r0, #196608	; 0x30000
  a8:	e58d3004 	str	r3, [sp, #4]
  ac:	e5d80001 	ldrb	r0, [r8, #1]
  b0:	e5d81000 	ldrb	r1, [r8]
  b4:	e3a07000 	mov	r7, #0
  b8:	e0800401 	add	r0, r0, r1, lsl #8
  bc:	e3c05801 	bic	r5, r0, #65536	; 0x10000
  c0:	e1dd05b2 	ldrh	r0, [sp, #82]	; 0x52
  c4:	e080b00b 	add	fp, r0, fp
  c8:	e1dd05b0 	ldrh	r0, [sp, #80]	; 0x50
  cc:	e0809009 	add	r9, r0, r9
  d0:	ea000033 	b	1a4 <_DrawTextEx+0x1a4>
  d4:	e355000a 	cmp	r5, #10
  d8:	1355000d 	cmpne	r5, #13
  dc:	e59d105c 	ldr	r1, [sp, #92]	; 0x5c
  e0:	03a00020 	moveq	r0, #32
  e4:	11a00005 	movne	r0, r5
  e8:	e28d3008 	add	r3, sp, #8
  ec:	e28d200c 	add	r2, sp, #12
  f0:	ebfffffe 	bl	0 <mr_getCharBitmap>
  f4:	e3500000 	cmp	r0, #0
  f8:	0a000024 	beq	190 <_DrawTextEx+0x190>
  fc:	e59d2058 	ldr	r2, [sp, #88]	; 0x58
 100:	e59d000c 	ldr	r0, [sp, #12]
 104:	e59d1008 	ldr	r1, [sp, #8]
 108:	e3120002 	tst	r2, #2
 10c:	0a000027 	beq	1b0 <_DrawTextEx+0x1b0>
 110:	e0860000 	add	r0, r6, r0
 114:	e1500009 	cmp	r0, r9
 118:	ca000001 	bgt	124 <_DrawTextEx+0x124>
 11c:	e355000a 	cmp	r5, #10
 120:	1a00000a 	bne	150 <_DrawTextEx+0x150>
 124:	e08a0007 	add	r0, sl, r7
 128:	e150000b 	cmp	r0, fp
 12c:	e2800002 	add	r0, r0, #2
 130:	e1a0a800 	lsl	sl, r0, #16
 134:	b0442008 	sublt	r2, r4, r8
 138:	e1a0a82a 	lsr	sl, sl, #16
 13c:	b58d2010 	strlt	r2, [sp, #16]
 140:	e59d6018 	ldr	r6, [sp, #24]
 144:	e15b000a 	cmp	fp, sl
 148:	e3a07000 	mov	r7, #0
 14c:	ba000020 	blt	1d4 <_DrawTextEx+0x1d4>
 150:	e1570001 	cmp	r7, r1
 154:	c1a01007 	movgt	r1, r7
 158:	e355000a 	cmp	r5, #10
 15c:	e1a07001 	mov	r7, r1
 160:	0a00000a 	beq	190 <_DrawTextEx+0x190>
 164:	e355000d 	cmp	r5, #13
 168:	0a000008 	beq	190 <_DrawTextEx+0x190>
 16c:	e59d3004 	ldr	r3, [sp, #4]
 170:	e1a0200a 	mov	r2, sl
 174:	e1a01006 	mov	r1, r6
 178:	e1a00005 	mov	r0, r5
 17c:	ebfffffe 	bl	0 <mr_platDrawCharReal>
 180:	e59d000c 	ldr	r0, [sp, #12]
 184:	e0860000 	add	r0, r6, r0
 188:	e1a06800 	lsl	r6, r0, #16
 18c:	e1a06826 	lsr	r6, r6, #16
 190:	e2844002 	add	r4, r4, #2
 194:	e5d40001 	ldrb	r0, [r4, #1]
 198:	e5d41000 	ldrb	r1, [r4]
 19c:	e0800401 	add	r0, r0, r1, lsl #8
 1a0:	e3c05801 	bic	r5, r0, #65536	; 0x10000
 1a4:	e3550000 	cmp	r5, #0
 1a8:	1affffc9 	bne	d4 <_DrawTextEx+0xd4>
 1ac:	ea00000a 	b	1dc <_DrawTextEx+0x1dc>
 1b0:	e1590006 	cmp	r9, r6
 1b4:	ba000006 	blt	1d4 <_DrawTextEx+0x1d4>
 1b8:	e355000a 	cmp	r5, #10
 1bc:	0a000012 	beq	20c <_DrawTextEx+0x20c>
 1c0:	e0860000 	add	r0, r6, r0
 1c4:	e1500009 	cmp	r0, r9
 1c8:	c0440008 	subgt	r0, r4, r8
 1cc:	c58d0010 	strgt	r0, [sp, #16]
 1d0:	eaffffe3 	b	164 <_DrawTextEx+0x164>
 1d4:	e3550000 	cmp	r5, #0
 1d8:	1a00000b 	bne	20c <_DrawTextEx+0x20c>
 1dc:	e59d2058 	ldr	r2, [sp, #88]	; 0x58
 1e0:	e3120002 	tst	r2, #2
 1e4:	0a000003 	beq	1f8 <_DrawTextEx+0x1f8>
 1e8:	e08a0007 	add	r0, sl, r7
 1ec:	e150000b 	cmp	r0, fp
 1f0:	aa000005 	bge	20c <_DrawTextEx+0x20c>
 1f4:	ea000001 	b	200 <_DrawTextEx+0x200>
 1f8:	e1590006 	cmp	r9, r6
 1fc:	ba000002 	blt	20c <_DrawTextEx+0x20c>
 200:	e1a00008 	mov	r0, r8
 204:	ebfffffe 	bl	0 <_DrawTextEx>
 208:	e58d0010 	str	r0, [sp, #16]
 20c:	e59d2058 	ldr	r2, [sp, #88]	; 0x58
 210:	e3120001 	tst	r2, #1
 214:	059d1014 	ldreq	r1, [sp, #20]
 218:	01a00008 	moveq	r0, r8
 21c:	0bfffffe 	bleq	0 <_DrawTextEx>
 220:	e59d0010 	ldr	r0, [sp, #16]
 224:	eaffff8d 	b	60 <_DrawTextEx+0x60>
 228:	77617244 	.word	0x77617244
 22c:	74786554 	.word	0x74786554
 230:	78207845 	.word	0x78207845
 234:	3a64253d 	.word	0x3a64253d
 238:	74787420 	.word	0x74787420
 23c:	20736920 	.word	0x20736920
 240:	216c696e 	.word	0x216c696e
 244:	00000000 	.word	0x00000000
 248:	77617244 	.word	0x77617244
 24c:	74786554 	.word	0x74786554
 250:	78207845 	.word	0x78207845
 254:	3a64253d 	.word	0x3a64253d
 258:	20753263 	.word	0x20753263
 25c:	21727265 	.word	0x21727265
 260:	00000000 	.word	0x00000000

Disassembly of section i._BitmapCheck:

00000000 <_BitmapCheck>:
   0:	e92d4fff 	push	{r0, r1, r2, r3, r4, r5, r6, r7, r8, r9, sl, fp, lr}
   4:	e59fe0e4 	ldr	lr, [pc, #228]	; f0 <_BitmapCheck+0xf0>
   8:	e28db034 	add	fp, sp, #52	; 0x34
   c:	e59e3048 	ldr	r3, [lr, #72]	; 0x48
  10:	e89b0881 	ldm	fp, {r0, r7, fp}
  14:	e0820000 	add	r0, r2, r0
  18:	e1500003 	cmp	r0, r3
  1c:	e59fe0cc 	ldr	lr, [pc, #204]	; f0 <_BitmapCheck+0xf0>
  20:	c1a00003 	movgt	r0, r3
  24:	e59d500c 	ldr	r5, [sp, #12]
  28:	e1a03800 	lsl	r3, r0, #16
  2c:	e59e9044 	ldr	r9, [lr, #68]	; 0x44
  30:	e0810005 	add	r0, r1, r5
  34:	e1500009 	cmp	r0, r9
  38:	c1a00009 	movgt	r0, r9
  3c:	e3520000 	cmp	r2, #0
  40:	a1a0c002 	movge	ip, r2
  44:	b3a0c000 	movlt	ip, #0
  48:	e3510000 	cmp	r1, #0
  4c:	e1a0a800 	lsl	sl, r0, #16
  50:	e1a0c80c 	lsl	ip, ip, #16
  54:	e1a0c82c 	lsr	ip, ip, #16
  58:	e1a0a84a 	asr	sl, sl, #16
  5c:	e3a00000 	mov	r0, #0
  60:	a1a06001 	movge	r6, r1
  64:	b3a06000 	movlt	r6, #0
  68:	e1a03843 	asr	r3, r3, #16
  6c:	ea00001b 	b	e0 <_BitmapCheck+0xe0>
  70:	e59fe078 	ldr	lr, [pc, #120]	; f0 <_BitmapCheck+0xf0>
  74:	e0040c99 	mul	r4, r9, ip
  78:	e59ee040 	ldr	lr, [lr, #64]	; 0x40
  7c:	e59d500c 	ldr	r5, [sp, #12]
  80:	e08ee084 	add	lr, lr, r4, lsl #1
  84:	e04c4002 	sub	r4, ip, r2
  88:	e0040495 	mul	r4, r5, r4
  8c:	e59d5000 	ldr	r5, [sp]
  90:	e08ee086 	add	lr, lr, r6, lsl #1
  94:	e0854084 	add	r4, r5, r4, lsl #1
  98:	e0465001 	sub	r5, r6, r1
  9c:	e0844085 	add	r4, r4, r5, lsl #1
  a0:	e1a05806 	lsl	r5, r6, #16
  a4:	e1a05825 	lsr	r5, r5, #16
  a8:	ea000008 	b	d0 <_BitmapCheck+0xd0>
  ac:	e1d480b0 	ldrh	r8, [r4]
  b0:	e2855001 	add	r5, r5, #1
  b4:	e3c55801 	bic	r5, r5, #65536	; 0x10000
  b8:	e1580007 	cmp	r8, r7
  bc:	11de80b0 	ldrhne	r8, [lr]
  c0:	e28ee002 	add	lr, lr, #2
  c4:	e2844002 	add	r4, r4, #2
  c8:	1158000b 	cmpne	r8, fp
  cc:	12800001 	addne	r0, r0, #1
  d0:	e155000a 	cmp	r5, sl
  d4:	bafffff4 	blt	ac <_BitmapCheck+0xac>
  d8:	e28cc001 	add	ip, ip, #1
  dc:	e3ccc801 	bic	ip, ip, #65536	; 0x10000
  e0:	e15c0003 	cmp	ip, r3
  e4:	baffffe1 	blt	70 <_BitmapCheck+0x70>
  e8:	e28dd010 	add	sp, sp, #16
  ec:	e8bd8ff0 	pop	{r4, r5, r6, r7, r8, r9, sl, fp, pc}
  f0:	00000000 	.word	0x00000000

Disassembly of section i.MRF_BmGetScr:

00000000 <MRF_BmGetScr>:
   0:	e92d41f0 	push	{r4, r5, r6, r7, r8, lr}
   4:	e1a07000 	mov	r7, r0
   8:	e3a02000 	mov	r2, #0
   c:	e3a01001 	mov	r1, #1
  10:	ebfffffe 	bl	0 <to_mr_tonumber>
  14:	e1a05800 	lsl	r5, r0, #16
  18:	e1a05825 	lsr	r5, r5, #16
  1c:	e355001e 	cmp	r5, #30
  20:	21a02005 	movcs	r2, r5
  24:	228f10dc 	addcs	r1, pc, #220	; 0xdc
  28:	2a000013 	bcs	7c <MRF_BmGetScr+0x7c>
  2c:	e59f00f0 	ldr	r0, [pc, #240]	; 124 <MRF_BmGetScr+0x124>
  30:	e0804205 	add	r4, r0, r5, lsl #4
  34:	e594000c 	ldr	r0, [r4, #12]
  38:	e3500000 	cmp	r0, #0
  3c:	0a000003 	beq	50 <MRF_BmGetScr+0x50>
  40:	e5941004 	ldr	r1, [r4, #4]
  44:	ebfffffe 	bl	0 <MRF_BmGetScr>
  48:	e3a00000 	mov	r0, #0
  4c:	e584000c 	str	r0, [r4, #12]
  50:	e59f60d0 	ldr	r6, [pc, #208]	; 128 <MRF_BmGetScr+0x128>
  54:	e5960044 	ldr	r0, [r6, #68]	; 0x44
  58:	e5961048 	ldr	r1, [r6, #72]	; 0x48
  5c:	e0000091 	mul	r0, r1, r0
  60:	e1a00080 	lsl	r0, r0, #1
  64:	ebfffffe 	bl	0 <MRF_BmGetScr>
  68:	e3500000 	cmp	r0, #0
  6c:	e584000c 	str	r0, [r4, #12]
  70:	1a000006 	bne	90 <MRF_BmGetScr+0x90>
  74:	e1a02005 	mov	r2, r5
  78:	e28f10ac 	add	r1, pc, #172	; 0xac
  7c:	e1a00007 	mov	r0, r7
  80:	ebfffffe 	bl	0 <mrp_pushfstring>
  84:	e1a00007 	mov	r0, r7
  88:	ebfffffe 	bl	0 <mrp_error>
  8c:	ea00001b 	b	100 <MRF_BmGetScr+0x100>
  90:	e5961044 	ldr	r1, [r6, #68]	; 0x44
  94:	e3a03000 	mov	r3, #0
  98:	e1c410b0 	strh	r1, [r4]
  9c:	e5962048 	ldr	r2, [r6, #72]	; 0x48
  a0:	e0010192 	mul	r1, r2, r1
  a4:	e1c420b2 	strh	r2, [r4, #2]
  a8:	e1a01081 	lsl	r1, r1, #1
  ac:	e1a02000 	mov	r2, r0
  b0:	e5841004 	str	r1, [r4, #4]
  b4:	ea00000d 	b	f0 <MRF_BmGetScr+0xf0>
  b8:	e59e0044 	ldr	r0, [lr, #68]	; 0x44
  bc:	e59e1040 	ldr	r1, [lr, #64]	; 0x40
  c0:	e0000093 	mul	r0, r3, r0
  c4:	e0810080 	add	r0, r1, r0, lsl #1
  c8:	e3a01000 	mov	r1, #0
  cc:	e59ec044 	ldr	ip, [lr, #68]	; 0x44
  d0:	e151000c 	cmp	r1, ip
  d4:	b0d0c0b2 	ldrhlt	ip, [r0], #2
  d8:	b2811001 	addlt	r1, r1, #1
  dc:	b3c11801 	biclt	r1, r1, #65536	; 0x10000
  e0:	b0c2c0b2 	strhlt	ip, [r2], #2
  e4:	bafffff8 	blt	cc <MRF_BmGetScr+0xcc>
  e8:	e2830001 	add	r0, r3, #1
  ec:	e3c03801 	bic	r3, r0, #65536	; 0x10000
  f0:	e5960048 	ldr	r0, [r6, #72]	; 0x48
  f4:	e1a0e006 	mov	lr, r6
  f8:	e1530000 	cmp	r3, r0
  fc:	baffffed 	blt	b8 <MRF_BmGetScr+0xb8>
 100:	e3a00000 	mov	r0, #0
 104:	e8bd81f0 	pop	{r4, r5, r6, r7, r8, pc}
 108:	65476d42 	.word	0x65476d42
 10c:	72635374 	.word	0x72635374
 110:	646e693a 	.word	0x646e693a
 114:	25207865 	.word	0x25207865
 118:	6e692064 	.word	0x6e692064
 11c:	696c6176 	.word	0x696c6176
 120:	00002164 	.word	0x00002164
 124:	000000d8 	.word	0x000000d8
 128:	00000000 	.word	0x00000000
 12c:	65476d42 	.word	0x65476d42
 130:	72635374 	.word	0x72635374
 134:	20642520 	.word	0x20642520
 138:	206f4e3a 	.word	0x206f4e3a
 13c:	6f6d656d 	.word	0x6f6d656d
 140:	00217972 	.word	0x00217972

Disassembly of section i._mr_EffSetCon:

00000000 <_mr_EffSetCon>:
   0:	e92d4ff0 	push	{r4, r5, r6, r7, r8, r9, sl, fp, lr}
   4:	e081c003 	add	ip, r1, r3
   8:	e59f30d4 	ldr	r3, [pc, #212]	; e4 <_mr_EffSetCon+0xe4>
   c:	e0802002 	add	r2, r0, r2
  10:	e593e048 	ldr	lr, [r3, #72]	; 0x48
  14:	e59f30c8 	ldr	r3, [pc, #200]	; e4 <_mr_EffSetCon+0xe4>
  18:	e15c000e 	cmp	ip, lr
  1c:	e5933044 	ldr	r3, [r3, #68]	; 0x44
  20:	c1a0c00e 	movgt	ip, lr
  24:	e1520003 	cmp	r2, r3
  28:	c1a02003 	movgt	r2, r3
  2c:	e3510000 	cmp	r1, #0
  30:	b3a01000 	movlt	r1, #0
  34:	e28db024 	add	fp, sp, #36	; 0x24
  38:	e3500000 	cmp	r0, #0
  3c:	b3a00000 	movlt	r0, #0
  40:	e1a03801 	lsl	r3, r1, #16
  44:	e89b0e00 	ldm	fp, {r9, sl, fp}
  48:	e1a03823 	lsr	r3, r3, #16
  4c:	e1a04000 	mov	r4, r0
  50:	e1a05002 	mov	r5, r2
  54:	e1a0800c 	mov	r8, ip
  58:	ea00001d 	b	d4 <_mr_EffSetCon+0xd4>
  5c:	e59f1080 	ldr	r1, [pc, #128]	; e4 <_mr_EffSetCon+0xe4>
  60:	e1a02804 	lsl	r2, r4, #16
  64:	e5910044 	ldr	r0, [r1, #68]	; 0x44
  68:	e5911040 	ldr	r1, [r1, #64]	; 0x40
  6c:	e0000093 	mul	r0, r3, r0
  70:	e1a02822 	lsr	r2, r2, #16
  74:	e0810080 	add	r0, r1, r0, lsl #1
  78:	e0800084 	add	r0, r0, r4, lsl #1
  7c:	e3a06e7e 	mov	r6, #2016	; 0x7e0
  80:	e3a07b3e 	mov	r7, #63488	; 0xf800
  84:	ea00000e 	b	c4 <_mr_EffSetCon+0xc4>
  88:	e1d010b0 	ldrh	r1, [r0]
  8c:	e201cb3e 	and	ip, r1, #63488	; 0xf800
  90:	e201ee7e 	and	lr, r1, #2016	; 0x7e0
  94:	e201101f 	and	r1, r1, #31
  98:	e00e0e9a 	mul	lr, sl, lr
  9c:	e00c0c99 	mul	ip, r9, ip
  a0:	e001019b 	mul	r1, fp, r1
  a4:	e006e42e 	and	lr, r6, lr, lsr #8
  a8:	e007c42c 	and	ip, r7, ip, lsr #8
  ac:	e18ec00c 	orr	ip, lr, ip
  b0:	e1a01981 	lsl	r1, r1, #19
  b4:	e18c1da1 	orr	r1, ip, r1, lsr #27
  b8:	e0c010b2 	strh	r1, [r0], #2
  bc:	e2821001 	add	r1, r2, #1
  c0:	e3c12801 	bic	r2, r1, #65536	; 0x10000
  c4:	e1520005 	cmp	r2, r5
  c8:	baffffee 	blt	88 <_mr_EffSetCon+0x88>
  cc:	e2830001 	add	r0, r3, #1
  d0:	e3c03801 	bic	r3, r0, #65536	; 0x10000
  d4:	e1530008 	cmp	r3, r8
  d8:	baffffdf 	blt	5c <_mr_EffSetCon+0x5c>
  dc:	e3a00000 	mov	r0, #0
  e0:	e8bd8ff0 	pop	{r4, r5, r6, r7, r8, r9, sl, fp, pc}
  e4:	00000000 	.word	0x00000000

Disassembly of section i.MRF_SpriteCheck:

00000000 <MRF_SpriteCheck>:
   0:	e92d43fe 	push	{r1, r2, r3, r4, r5, r6, r7, r8, r9, lr}
   4:	e1a08000 	mov	r8, r0
   8:	e3a02000 	mov	r2, #0
   c:	e3a01001 	mov	r1, #1
  10:	ebfffffe 	bl	0 <to_mr_tonumber>
  14:	e1a04800 	lsl	r4, r0, #16
  18:	e1a04824 	lsr	r4, r4, #16
  1c:	e1a00008 	mov	r0, r8
  20:	e3a02000 	mov	r2, #0
  24:	e3a01002 	mov	r1, #2
  28:	ebfffffe 	bl	0 <to_mr_tonumber>
  2c:	e1a05800 	lsl	r5, r0, #16
  30:	e1a05825 	lsr	r5, r5, #16
  34:	e1a00008 	mov	r0, r8
  38:	e3a02000 	mov	r2, #0
  3c:	e3a01003 	mov	r1, #3
  40:	ebfffffe 	bl	0 <to_mr_tonumber>
  44:	e1a06800 	lsl	r6, r0, #16
  48:	e1a06846 	asr	r6, r6, #16
  4c:	e1a00008 	mov	r0, r8
  50:	e3a02000 	mov	r2, #0
  54:	e3a01004 	mov	r1, #4
  58:	ebfffffe 	bl	0 <to_mr_tonumber>
  5c:	e1a07800 	lsl	r7, r0, #16
  60:	e1a07847 	asr	r7, r7, #16
  64:	e1a00008 	mov	r0, r8
  68:	e3a02000 	mov	r2, #0
  6c:	e3a01005 	mov	r1, #5
  70:	ebfffffe 	bl	0 <to_mr_tonumber>
  74:	e354000a 	cmp	r4, #10
  78:	21a02004 	movcs	r2, r4
  7c:	228f109c 	addcs	r1, pc, #156	; 0x9c
  80:	2a000006 	bcs	a0 <MRF_SpriteCheck+0xa0>
  84:	e59f10b4 	ldr	r1, [pc, #180]	; 140 <MRF_SpriteCheck+0x140>
  88:	e081e204 	add	lr, r1, r4, lsl #4
  8c:	e59ec00c 	ldr	ip, [lr, #12]
  90:	e35c0000 	cmp	ip, #0
  94:	1a000007 	bne	b8 <MRF_SpriteCheck+0xb8>
  98:	e1a02004 	mov	r2, r4
  9c:	e28f10a0 	add	r1, pc, #160	; 0xa0
  a0:	e1a00008 	mov	r0, r8
  a4:	ebfffffe 	bl	0 <mrp_pushfstring>
  a8:	e1a00008 	mov	r0, r8
  ac:	ebfffffe 	bl	0 <mrp_error>
  b0:	e3a00000 	mov	r0, #0
  b4:	e8bd83fe 	pop	{r1, r2, r3, r4, r5, r6, r7, r8, r9, pc}
  b8:	e20018ff 	and	r1, r0, #16711680	; 0xff0000
  bc:	e2002cff 	and	r2, r0, #65280	; 0xff00
  c0:	e1a019a1 	lsr	r1, r1, #19
  c4:	e1a01581 	lsl	r1, r1, #11
  c8:	e1a02522 	lsr	r2, r2, #10
  cc:	e0811282 	add	r1, r1, r2, lsl #5
  d0:	e20000ff 	and	r0, r0, #255	; 0xff
  d4:	e08101a0 	add	r0, r1, r0, lsr #3
  d8:	e3c03803 	bic	r3, r0, #196608	; 0x30000
  dc:	e59f0080 	ldr	r0, [pc, #128]	; 164 <MRF_SpriteCheck+0x164>
  e0:	e1dc20b0 	ldrh	r2, [ip]
  e4:	e0800084 	add	r0, r0, r4, lsl #1
  e8:	e1d000b0 	ldrh	r0, [r0]
  ec:	e88d000d 	stm	sp, {r0, r2, r3}
  f0:	e1de30b0 	ldrh	r3, [lr]
  f4:	e1a02007 	mov	r2, r7
  f8:	e0010395 	mul	r1, r5, r3
  fc:	e0000091 	mul	r0, r1, r0
 100:	e1a01006 	mov	r1, r6
 104:	e08c0080 	add	r0, ip, r0, lsl #1
 108:	ebfffffe 	bl	0 <MRF_SpriteCheck>
 10c:	e1a01000 	mov	r1, r0
 110:	e1a00008 	mov	r0, r8
 114:	ebfffffe 	bl	0 <to_mr_pushnumber>
 118:	e3a00001 	mov	r0, #1
 11c:	e8bd83fe 	pop	{r1, r2, r3, r4, r5, r6, r7, r8, r9, pc}
 120:	69727053 	.word	0x69727053
 124:	68436574 	.word	0x68436574
 128:	3a6b6365 	.word	0x3a6b6365
 12c:	65646e69 	.word	0x65646e69
 130:	64252078 	.word	0x64252078
 134:	766e6920 	.word	0x766e6920
 138:	64696c61 	.word	0x64696c61
 13c:	00000021 	.word	0x00000021
 140:	000000d8 	.word	0x000000d8
 144:	69727053 	.word	0x69727053
 148:	68436574 	.word	0x68436574
 14c:	3a6b6365 	.word	0x3a6b6365
 150:	69727053 	.word	0x69727053
 154:	25206574 	.word	0x25206574
 158:	73692064 	.word	0x73692064
 15c:	6c696e20 	.word	0x6c696e20
 160:	00000021 	.word	0x00000021
 164:	0000034c 	.word	0x0000034c

Disassembly of section i._mr_showErrorInfo:

00000000 <_mr_showErrorInfo>:
   0:	e92d40f0 	push	{r4, r5, r6, r7, lr}
   4:	e24dd024 	sub	sp, sp, #36	; 0x24
   8:	e1a06000 	mov	r6, r0
   c:	ebfffffe 	bl	0 <strlen>
  10:	e1a05000 	mov	r5, r0
  14:	e1a00006 	mov	r0, r6
  18:	ebfffffe 	bl	0 <mr_printf>
  1c:	e3a020ff 	mov	r2, #255	; 0xff
  20:	e3a030ff 	mov	r3, #255	; 0xff
  24:	e58d2000 	str	r2, [sp]
  28:	e59f70e0 	ldr	r7, [pc, #224]	; 110 <_mr_showErrorInfo+0x110>
  2c:	e98d000c 	stmib	sp, {r2, r3}
  30:	e5970048 	ldr	r0, [r7, #72]	; 0x48
  34:	e3550060 	cmp	r5, #96	; 0x60
  38:	e1a03800 	lsl	r3, r0, #16
  3c:	e5970044 	ldr	r0, [r7, #68]	; 0x44
  40:	e1a03843 	asr	r3, r3, #16
  44:	e1a02800 	lsl	r2, r0, #16
  48:	e1a02842 	asr	r2, r2, #16
  4c:	e3a00000 	mov	r0, #0
  50:	a3a05060 	movge	r5, #96	; 0x60
  54:	e3a01000 	mov	r1, #0
  58:	ebfffffe 	bl	0 <_mr_showErrorInfo>
  5c:	e3a04000 	mov	r4, #0
  60:	ea00001b 	b	d4 <_mr_showErrorInfo+0xd4>
  64:	e28d0014 	add	r0, sp, #20
  68:	e3a01000 	mov	r1, #0
  6c:	e3a02000 	mov	r2, #0
  70:	e8a00006 	stmia	r0!, {r1, r2}
  74:	e8800006 	stm	r0, {r1, r2}
  78:	e0452004 	sub	r2, r5, r4
  7c:	e352000c 	cmp	r2, #12
  80:	c3a0200c 	movgt	r2, #12
  84:	e0861004 	add	r1, r6, r4
  88:	e28d0014 	add	r0, sp, #20
  8c:	ebfffffe 	bl	0 <__aeabi_memcpy>
  90:	e3a0100c 	mov	r1, #12
  94:	e1a00004 	mov	r0, r4
  98:	ebfffffe 	bl	0 <__aeabi_idivmod>
  9c:	e3a01012 	mov	r1, #18
  a0:	e0000091 	mul	r0, r1, r0
  a4:	e3a01000 	mov	r1, #0
  a8:	e3a03001 	mov	r3, #1
  ac:	e3a02000 	mov	r2, #0
  b0:	e58d1000 	str	r1, [sp]
  b4:	e98d000e 	stmib	sp, {r1, r2, r3}
  b8:	e1a0c800 	lsl	ip, r0, #16
  bc:	e1a0c84c 	asr	ip, ip, #16
  c0:	e1a0200c 	mov	r2, ip
  c4:	e28d0014 	add	r0, sp, #20
  c8:	e3a03000 	mov	r3, #0
  cc:	ebfffffe 	bl	0 <_mr_showErrorInfo>
  d0:	e284400c 	add	r4, r4, #12
  d4:	e1540005 	cmp	r4, r5
  d8:	baffffe1 	blt	64 <_mr_showErrorInfo+0x64>
  dc:	e5970048 	ldr	r0, [r7, #72]	; 0x48
  e0:	e3a02000 	mov	r2, #0
  e4:	e1a03800 	lsl	r3, r0, #16
  e8:	e1a03823 	lsr	r3, r3, #16
  ec:	e58d3000 	str	r3, [sp]
  f0:	e5970044 	ldr	r0, [r7, #68]	; 0x44
  f4:	e3a01000 	mov	r1, #0
  f8:	e1a03800 	lsl	r3, r0, #16
  fc:	e5970040 	ldr	r0, [r7, #64]	; 0x40
 100:	e1a03823 	lsr	r3, r3, #16
 104:	ebfffffe 	bl	0 <mr_drawBitmap>
 108:	e28dd024 	add	sp, sp, #36	; 0x24
 10c:	e8bd80f0 	pop	{r4, r5, r6, r7, pc}
 110:	00000000 	.word	0x00000000

Disassembly of section i._mr_isMr:

00000000 <_mr_isMr>:
   0:	e92d40f0 	push	{r4, r5, r6, r7, lr}
   4:	e24dd054 	sub	sp, sp, #84	; 0x54
   8:	e1a05000 	mov	r5, r0
   c:	e28d0014 	add	r0, sp, #20
  10:	e3e06000 	mvn	r6, #0
  14:	ebfffffe 	bl	0 <mr_getUserInfo>
  18:	e3500000 	cmp	r0, #0
  1c:	1a00006a 	bne	1cc <_mr_isMr+0x1cc>
  20:	e5950010 	ldr	r0, [r5, #16]
  24:	e1a01c20 	lsr	r1, r0, #24
  28:	e20028ff 	and	r2, r0, #16711680	; 0xff0000
  2c:	e1811422 	orr	r1, r1, r2, lsr #8
  30:	e2002cff 	and	r2, r0, #65280	; 0xff00
  34:	e1811402 	orr	r1, r1, r2, lsl #8
  38:	e1810c00 	orr	r0, r1, r0, lsl #24
  3c:	e5951014 	ldr	r1, [r5, #20]
  40:	e1a02c21 	lsr	r2, r1, #24
  44:	e20138ff 	and	r3, r1, #16711680	; 0xff0000
  48:	e1822423 	orr	r2, r2, r3, lsr #8
  4c:	e2013cff 	and	r3, r1, #65280	; 0xff00
  50:	e1822403 	orr	r2, r2, r3, lsl #8
  54:	e1824c01 	orr	r4, r2, r1, lsl #24
  58:	e5dd1015 	ldrb	r1, [sp, #21]
  5c:	e5cd1004 	strb	r1, [sp, #4]
  60:	e5dd1016 	ldrb	r1, [sp, #22]
  64:	e5cd1005 	strb	r1, [sp, #5]
  68:	e5dd1017 	ldrb	r1, [sp, #23]
  6c:	e5cd1006 	strb	r1, [sp, #6]
  70:	e5dd1018 	ldrb	r1, [sp, #24]
  74:	e5cd1007 	strb	r1, [sp, #7]
  78:	e5dd1019 	ldrb	r1, [sp, #25]
  7c:	e5cd1008 	strb	r1, [sp, #8]
  80:	e5dd101b 	ldrb	r1, [sp, #27]
  84:	e5cd1009 	strb	r1, [sp, #9]
  88:	e5dd101c 	ldrb	r1, [sp, #28]
  8c:	e5cd100a 	strb	r1, [sp, #10]
  90:	e3a010ef 	mov	r1, #239	; 0xef
  94:	ebfffffe 	bl	0 <__aeabi_idivmod>
  98:	e5cd100b 	strb	r1, [sp, #11]
  9c:	e3a010ed 	mov	r1, #237	; 0xed
  a0:	e1a00004 	mov	r0, r4
  a4:	ebfffffe 	bl	0 <__aeabi_idivmod>
  a8:	e5cd100c 	strb	r1, [sp, #12]
  ac:	e5dd0034 	ldrb	r0, [sp, #52]	; 0x34
  b0:	e5cd000d 	strb	r0, [sp, #13]
  b4:	e5dd003c 	ldrb	r0, [sp, #60]	; 0x3c
  b8:	e5cd000e 	strb	r0, [sp, #14]
  bc:	e28d0034 	add	r0, sp, #52	; 0x34
  c0:	ebfffffe 	bl	0 <strlen>
  c4:	e5cd000f 	strb	r0, [sp, #15]
  c8:	e3a000d3 	mov	r0, #211	; 0xd3
  cc:	e5cd0010 	strb	r0, [sp, #16]
  d0:	e3a000ef 	mov	r0, #239	; 0xef
  d4:	e5cd0011 	strb	r0, [sp, #17]
  d8:	e59d0044 	ldr	r0, [sp, #68]	; 0x44
  dc:	e3a010fd 	mov	r1, #253	; 0xfd
  e0:	ebfffffe 	bl	0 <__aeabi_uidivmod>
  e4:	e5cd1012 	strb	r1, [sp, #18]
  e8:	e59d0044 	ldr	r0, [sp, #68]	; 0x44
  ec:	e3a010f1 	mov	r1, #241	; 0xf1
  f0:	ebfffffe 	bl	0 <__aeabi_uidivmod>
  f4:	e5cd1013 	strb	r1, [sp, #19]
  f8:	e5dd0014 	ldrb	r0, [sp, #20]
  fc:	e3a0100a 	mov	r1, #10
 100:	ebfffffe 	bl	0 <__aeabi_uidivmod>
 104:	e3a07015 	mov	r7, #21
 108:	e0000197 	mul	r0, r7, r1
 10c:	e5dd101a 	ldrb	r1, [sp, #26]
 110:	e0800001 	add	r0, r0, r1
 114:	e20040ff 	and	r4, r0, #255	; 0xff
 118:	e5dd001f 	ldrb	r0, [sp, #31]
 11c:	e5dd1020 	ldrb	r1, [sp, #32]
 120:	e0800001 	add	r0, r0, r1
 124:	e3a0100a 	mov	r1, #10
 128:	ebfffffe 	bl	0 <__aeabi_uidivmod>
 12c:	e0000197 	mul	r0, r7, r1
 130:	e5dd1022 	ldrb	r1, [sp, #34]	; 0x22
 134:	e28d3004 	add	r3, sp, #4
 138:	e0800001 	add	r0, r0, r1
 13c:	e200c0ff 	and	ip, r0, #255	; 0xff
 140:	e3a00000 	mov	r0, #0
 144:	e3500000 	cmp	r0, #0
 148:	05dd1004 	ldrbeq	r1, [sp, #4]
 14c:	00211004 	eoreq	r1, r1, r4
 150:	05cd1004 	strbeq	r1, [sp, #4]
 154:	0a000005 	beq	170 <_mr_isMr+0x170>
 158:	e0832000 	add	r2, r3, r0
 15c:	e5522001 	ldrb	r2, [r2, #-1]
 160:	e7d31000 	ldrb	r1, [r3, r0]
 164:	e1510002 	cmp	r1, r2
 168:	10211002 	eorne	r1, r1, r2
 16c:	17c31000 	strbne	r1, [r3, r0]
 170:	e2800001 	add	r0, r0, #1
 174:	e3500010 	cmp	r0, #16
 178:	bafffff1 	blt	144 <_mr_isMr+0x144>
 17c:	e3a0000f 	mov	r0, #15
 180:	e350000f 	cmp	r0, #15
 184:	05dd1013 	ldrbeq	r1, [sp, #19]
 188:	0021100c 	eoreq	r1, r1, ip
 18c:	05cd1013 	strbeq	r1, [sp, #19]
 190:	0a000005 	beq	1ac <_mr_isMr+0x1ac>
 194:	e0832000 	add	r2, r3, r0
 198:	e5d22001 	ldrb	r2, [r2, #1]
 19c:	e7d31000 	ldrb	r1, [r3, r0]
 1a0:	e1510002 	cmp	r1, r2
 1a4:	10211002 	eorne	r1, r1, r2
 1a8:	17c31000 	strbne	r1, [r3, r0]
 1ac:	e2500001 	subs	r0, r0, #1
 1b0:	5afffff2 	bpl	180 <_mr_isMr+0x180>
 1b4:	e3a02010 	mov	r2, #16
 1b8:	e1a01005 	mov	r1, r5
 1bc:	e28d0004 	add	r0, sp, #4
 1c0:	ebfffffe 	bl	0 <memcmp>
 1c4:	e3500000 	cmp	r0, #0
 1c8:	03a06000 	moveq	r6, #0
 1cc:	e1a00006 	mov	r0, r6
 1d0:	e28dd054 	add	sp, sp, #84	; 0x54
 1d4:	e8bd80f0 	pop	{r4, r5, r6, r7, pc}

Disassembly of section i._mr_readFile:

00000000 <_mr_readFile>:
   0:	e92d4ff7 	push	{r0, r1, r2, r4, r5, r6, r7, r8, r9, sl, fp, lr}
   4:	e59f039c 	ldr	r0, [pc, #924]	; 3a8 <_mr_readFile+0x3a8>
   8:	e24dd0a0 	sub	sp, sp, #160	; 0xa0
   c:	e5d06000 	ldrb	r6, [r0]
  10:	e1a0a002 	mov	sl, r2
  14:	e3a09000 	mov	r9, #0
  18:	e356002a 	cmp	r6, #42	; 0x2a
  1c:	13560024 	cmpne	r6, #36	; 0x24
  20:	e3a07000 	mov	r7, #0
  24:	e1a04001 	mov	r4, r1
  28:	1a000072 	bne	1f8 <_mr_readFile+0x1f8>
  2c:	e356002a 	cmp	r6, #42	; 0x2a
  30:	159f1374 	ldrne	r1, [pc, #884]	; 3ac <_mr_readFile+0x3ac>
  34:	05d00001 	ldrbeq	r0, [r0, #1]
  38:	15915018 	ldrne	r5, [r1, #24]
  3c:	059f136c 	ldreq	r1, [pc, #876]	; 3b0 <_mr_readFile+0x3b0>
  40:	00810100 	addeq	r0, r1, r0, lsl #2
  44:	05105104 	ldreq	r5, [r0, #-260]	; 0xfffffefc
  48:	e3550000 	cmp	r5, #0
  4c:	059f2360 	ldreq	r2, [pc, #864]	; 3b4 <_mr_readFile+0x3b4>
  50:	0a0001ca 	beq	780 <_mr_readFile+0x780>
  54:	e2851004 	add	r1, r5, #4
  58:	e3a02004 	mov	r2, #4
  5c:	e28d009c 	add	r0, sp, #156	; 0x9c
  60:	ebfffffe 	bl	0 <__aeabi_memcpy>
  64:	e3560024 	cmp	r6, #36	; 0x24
  68:	1a00000e 	bne	a8 <_mr_readFile+0xa8>
  6c:	e59f1338 	ldr	r1, [pc, #824]	; 3ac <_mr_readFile+0x3ac>
  70:	e5910054 	ldr	r0, [r1, #84]	; 0x54
  74:	e58d0014 	str	r0, [sp, #20]
  78:	e5910008 	ldr	r0, [r1, #8]
  7c:	e3100002 	tst	r0, #2
  80:	0a00000c 	beq	b8 <_mr_readFile+0xb8>
  84:	e2850034 	add	r0, r5, #52	; 0x34
  88:	ebfffffe 	bl	0 <_mr_readFile>
  8c:	e3500000 	cmp	r0, #0
  90:	0a000008 	beq	b8 <_mr_readFile+0xb8>
  94:	e28f1fc7 	add	r1, pc, #796	; 0x31c
  98:	e3a02003 	mov	r2, #3
  9c:	e59f0324 	ldr	r0, [pc, #804]	; 3c8 <_mr_readFile+0x3c8>
  a0:	ebfffffe 	bl	0 <mr_printf>
  a4:	ea0001bc 	b	79c <_mr_readFile+0x79c>
  a8:	e2851008 	add	r1, r5, #8
  ac:	e3a02004 	mov	r2, #4
  b0:	e28d0014 	add	r0, sp, #20
  b4:	ebfffffe 	bl	0 <__aeabi_memcpy>
  b8:	e59d009c 	ldr	r0, [sp, #156]	; 0x9c
  bc:	e2806008 	add	r6, r0, #8
  c0:	e59d9014 	ldr	r9, [sp, #20]
  c4:	e2860004 	add	r0, r6, #4
  c8:	e1500009 	cmp	r0, r9
  cc:	2a000004 	bcs	e4 <_mr_readFile+0xe4>
  d0:	e59d009c 	ldr	r0, [sp, #156]	; 0x9c
  d4:	e3500001 	cmp	r0, #1
  d8:	3a000001 	bcc	e4 <_mr_readFile+0xe4>
  dc:	e3700106 	cmn	r0, #-2147483647	; 0x80000001
  e0:	3a000001 	bcc	ec <_mr_readFile+0xec>
  e4:	e3a02ffb 	mov	r2, #1004	; 0x3ec
  e8:	ea0001a4 	b	780 <_mr_readFile+0x780>
  ec:	e0851006 	add	r1, r5, r6
  f0:	e3a02004 	mov	r2, #4
  f4:	e28d009c 	add	r0, sp, #156	; 0x9c
  f8:	ebfffffe 	bl	0 <__aeabi_memcpy>
  fc:	e2868004 	add	r8, r6, #4
 100:	e59d609c 	ldr	r6, [sp, #156]	; 0x9c
 104:	e0860008 	add	r0, r6, r8
 108:	e1500009 	cmp	r0, r9
 10c:	2a000003 	bcs	120 <_mr_readFile+0x120>
 110:	e3560001 	cmp	r6, #1
 114:	3a000001 	bcc	120 <_mr_readFile+0x120>
 118:	e3560080 	cmp	r6, #128	; 0x80
 11c:	3a000001 	bcc	128 <_mr_readFile+0x128>
 120:	e59f22a4 	ldr	r2, [pc, #676]	; 3cc <_mr_readFile+0x3cc>
 124:	ea000195 	b	780 <_mr_readFile+0x780>
 128:	e3a01080 	mov	r1, #128	; 0x80
 12c:	e28d0018 	add	r0, sp, #24
 130:	ebfffffe 	bl	0 <__aeabi_memclr4>
 134:	e0851008 	add	r1, r5, r8
 138:	e1a02006 	mov	r2, r6
 13c:	e28d0018 	add	r0, sp, #24
 140:	ebfffffe 	bl	0 <__aeabi_memcpy>
 144:	e59d009c 	ldr	r0, [sp, #156]	; 0x9c
 148:	e28d1018 	add	r1, sp, #24
 14c:	e0886000 	add	r6, r8, r0
 150:	e59d00a0 	ldr	r0, [sp, #160]	; 0xa0
 154:	ebfffffe 	bl	0 <strcmp>
 158:	e3500000 	cmp	r0, #0
 15c:	1a000011 	bne	1a8 <_mr_readFile+0x1a8>
 160:	e35a0001 	cmp	sl, #1
 164:	0a00013f 	beq	668 <_mr_readFile+0x668>
 168:	e0851006 	add	r1, r5, r6
 16c:	e3a02004 	mov	r2, #4
 170:	e28d009c 	add	r0, sp, #156	; 0x9c
 174:	ebfffffe 	bl	0 <__aeabi_memcpy>
 178:	e59d009c 	ldr	r0, [sp, #156]	; 0x9c
 17c:	e59d2014 	ldr	r2, [sp, #20]
 180:	e2866004 	add	r6, r6, #4
 184:	e0801006 	add	r1, r0, r6
 188:	e1510002 	cmp	r1, r2
 18c:	8a000003 	bhi	1a0 <_mr_readFile+0x1a0>
 190:	e3500001 	cmp	r0, #1
 194:	3a000001 	bcc	1a0 <_mr_readFile+0x1a0>
 198:	e3700106 	cmn	r0, #-2147483647	; 0x80000001
 19c:	3a00000a 	bcc	1cc <_mr_readFile+0x1cc>
 1a0:	e59f2228 	ldr	r2, [pc, #552]	; 3d0 <_mr_readFile+0x3d0>
 1a4:	ea000175 	b	780 <_mr_readFile+0x780>
 1a8:	e0851006 	add	r1, r5, r6
 1ac:	e3a02004 	mov	r2, #4
 1b0:	e28d009c 	add	r0, sp, #156	; 0x9c
 1b4:	ebfffffe 	bl	0 <__aeabi_memcpy>
 1b8:	e59d009c 	ldr	r0, [sp, #156]	; 0x9c
 1bc:	e3570000 	cmp	r7, #0
 1c0:	e0860000 	add	r0, r6, r0
 1c4:	e2806004 	add	r6, r0, #4
 1c8:	0affffbc 	beq	c0 <_mr_readFile+0xc0>
 1cc:	e59d009c 	ldr	r0, [sp, #156]	; 0x9c
 1d0:	e3500000 	cmp	r0, #0
 1d4:	d59f21f8 	ldrle	r2, [pc, #504]	; 3d4 <_mr_readFile+0x3d4>
 1d8:	e5840000 	str	r0, [r4]
 1dc:	da000167 	ble	780 <_mr_readFile+0x780>
 1e0:	e35a0002 	cmp	sl, #2
 1e4:	00850006 	addeq	r0, r5, r6
 1e8:	0a00011f 	beq	66c <_mr_readFile+0x66c>
 1ec:	e0856006 	add	r6, r5, r6
 1f0:	e3a09001 	mov	r9, #1
 1f4:	ea0000cb 	b	528 <_mr_readFile+0x528>
 1f8:	e59f01a8 	ldr	r0, [pc, #424]	; 3a8 <_mr_readFile+0x3a8>
 1fc:	e3a01001 	mov	r1, #1
 200:	ebfffffe 	bl	0 <mr_open>
 204:	e3500000 	cmp	r0, #0
 208:	059f21c8 	ldreq	r2, [pc, #456]	; 3d8 <_mr_readFile+0x3d8>
 20c:	e58d0098 	str	r0, [sp, #152]	; 0x98
 210:	0a00015a 	beq	780 <_mr_readFile+0x780>
 214:	e28d0008 	add	r0, sp, #8
 218:	e3a01000 	mov	r1, #0
 21c:	e3a02000 	mov	r2, #0
 220:	e8a00006 	stmia	r0!, {r1, r2}
 224:	e8800006 	stm	r0, {r1, r2}
 228:	e59d0098 	ldr	r0, [sp, #152]	; 0x98
 22c:	e3a02010 	mov	r2, #16
 230:	e28d1008 	add	r1, sp, #8
 234:	ebfffffe 	bl	0 <mr_read>
 238:	e3500010 	cmp	r0, #16
 23c:	059d0008 	ldreq	r0, [sp, #8]
 240:	059f1194 	ldreq	r1, [pc, #404]	; 3dc <_mr_readFile+0x3dc>
 244:	01500001 	cmpeq	r0, r1
 248:	0a000003 	beq	25c <_mr_readFile+0x25c>
 24c:	e59d0098 	ldr	r0, [sp, #152]	; 0x98
 250:	ebfffffe 	bl	0 <mr_close>
 254:	e59f2184 	ldr	r2, [pc, #388]	; 3e0 <_mr_readFile+0x3e0>
 258:	ea000148 	b	780 <_mr_readFile+0x780>
 25c:	e59d000c 	ldr	r0, [sp, #12]
 260:	e35000e8 	cmp	r0, #232	; 0xe8
 264:	9a0000cf 	bls	5a8 <_mr_readFile+0x5a8>
 268:	e59d1014 	ldr	r1, [sp, #20]
 26c:	e0400001 	sub	r0, r0, r1
 270:	e2808008 	add	r8, r0, #8
 274:	e1a00008 	mov	r0, r8
 278:	ebfffffe 	bl	0 <_mr_readFile>
 27c:	e59fb160 	ldr	fp, [pc, #352]	; 3e4 <_mr_readFile+0x3e4>
 280:	e1b06000 	movs	r6, r0
 284:	e3a05000 	mov	r5, #0
 288:	1a000002 	bne	298 <_mr_readFile+0x298>
 28c:	e59d0098 	ldr	r0, [sp, #152]	; 0x98
 290:	ebfffffe 	bl	0 <mr_close>
 294:	ea000017 	b	2f8 <_mr_readFile+0x2f8>
 298:	e59d0014 	ldr	r0, [sp, #20]
 29c:	e3a02001 	mov	r2, #1
 2a0:	e2401010 	sub	r1, r0, #16
 2a4:	e59d0098 	ldr	r0, [sp, #152]	; 0x98
 2a8:	ebfffffe 	bl	0 <mr_seek>
 2ac:	e3500000 	cmp	r0, #0
 2b0:	aa000005 	bge	2cc <_mr_readFile+0x2cc>
 2b4:	e59d0098 	ldr	r0, [sp, #152]	; 0x98
 2b8:	ebfffffe 	bl	0 <mr_close>
 2bc:	e1a01008 	mov	r1, r8
 2c0:	e1a00006 	mov	r0, r6
 2c4:	ebfffffe 	bl	0 <_mr_readFile>
 2c8:	ea0000be 	b	5c8 <_mr_readFile+0x5c8>
 2cc:	e59d0098 	ldr	r0, [sp, #152]	; 0x98
 2d0:	e1a02008 	mov	r2, r8
 2d4:	e1a01006 	mov	r1, r6
 2d8:	ebfffffe 	bl	0 <mr_read>
 2dc:	e1500008 	cmp	r0, r8
 2e0:	0a000006 	beq	300 <_mr_readFile+0x300>
 2e4:	e59d0098 	ldr	r0, [sp, #152]	; 0x98
 2e8:	ebfffffe 	bl	0 <mr_close>
 2ec:	e1a01008 	mov	r1, r8
 2f0:	e1a00006 	mov	r0, r6
 2f4:	ebfffffe 	bl	0 <_mr_readFile>
 2f8:	e1a0200b 	mov	r2, fp
 2fc:	ea00011f 	b	780 <_mr_readFile+0x780>
 300:	e0861005 	add	r1, r6, r5
 304:	e3a02004 	mov	r2, #4
 308:	e28d009c 	add	r0, sp, #156	; 0x9c
 30c:	ebfffffe 	bl	0 <__aeabi_memcpy>
 310:	e285b004 	add	fp, r5, #4
 314:	e59d509c 	ldr	r5, [sp, #156]	; 0x9c
 318:	e085000b 	add	r0, r5, fp
 31c:	e1500008 	cmp	r0, r8
 320:	8a000003 	bhi	334 <_mr_readFile+0x334>
 324:	e3550001 	cmp	r5, #1
 328:	3a000001 	bcc	334 <_mr_readFile+0x334>
 32c:	e3550080 	cmp	r5, #128	; 0x80
 330:	3a000006 	bcc	350 <_mr_readFile+0x350>
 334:	e59d0098 	ldr	r0, [sp, #152]	; 0x98
 338:	ebfffffe 	bl	0 <mr_close>
 33c:	e1a01008 	mov	r1, r8
 340:	e1a00006 	mov	r0, r6
 344:	ebfffffe 	bl	0 <_mr_readFile>
 348:	e59f2098 	ldr	r2, [pc, #152]	; 3e8 <_mr_readFile+0x3e8>
 34c:	ea00010b 	b	780 <_mr_readFile+0x780>
 350:	e3a01080 	mov	r1, #128	; 0x80
 354:	e28d0018 	add	r0, sp, #24
 358:	ebfffffe 	bl	0 <__aeabi_memclr4>
 35c:	e086100b 	add	r1, r6, fp
 360:	e1a02005 	mov	r2, r5
 364:	e28d0018 	add	r0, sp, #24
 368:	ebfffffe 	bl	0 <__aeabi_memcpy>
 36c:	e59d009c 	ldr	r0, [sp, #156]	; 0x9c
 370:	e28d1018 	add	r1, sp, #24
 374:	e08b5000 	add	r5, fp, r0
 378:	e59d00a0 	ldr	r0, [sp, #160]	; 0xa0
 37c:	ebfffffe 	bl	0 <strcmp>
 380:	e3500000 	cmp	r0, #0
 384:	1a00002e 	bne	444 <_mr_readFile+0x444>
 388:	e35a0001 	cmp	sl, #1
 38c:	1a000016 	bne	3ec <_mr_readFile+0x3ec>
 390:	e59d0098 	ldr	r0, [sp, #152]	; 0x98
 394:	ebfffffe 	bl	0 <mr_close>
 398:	e1a01008 	mov	r1, r8
 39c:	e1a00006 	mov	r0, r6
 3a0:	ebfffffe 	bl	0 <_mr_readFile>
 3a4:	ea0000af 	b	668 <_mr_readFile+0x668>
 3a8:	00000360 	.word	0x00000360
	...
 3b4:	000003e9 	.word	0x000003e9
 3b8:	75616e75 	.word	0x75616e75
 3bc:	726f6874 	.word	0x726f6874
 3c0:	64657a69 	.word	0x64657a69
 3c4:	00000000 	.word	0x00000000
 3c8:	00000068 	.word	0x00000068
 3cc:	000003ea 	.word	0x000003ea
 3d0:	000003eb 	.word	0x000003eb
 3d4:	000003ed 	.word	0x000003ed
 3d8:	000007d2 	.word	0x000007d2
 3dc:	4750524d 	.word	0x4750524d
 3e0:	00000bb9 	.word	0x00000bb9
 3e4:	00000bbb 	.word	0x00000bbb
 3e8:	00000bbc 	.word	0x00000bbc
 3ec:	e0861005 	add	r1, r6, r5
 3f0:	e3a02004 	mov	r2, #4
 3f4:	e28d0004 	add	r0, sp, #4
 3f8:	ebfffffe 	bl	0 <__aeabi_memcpy>
 3fc:	e2850004 	add	r0, r5, #4
 400:	e0861000 	add	r1, r6, r0
 404:	e1a0000d 	mov	r0, sp
 408:	e3a02004 	mov	r2, #4
 40c:	ebfffffe 	bl	0 <__aeabi_memcpy>
 410:	e59d0004 	ldr	r0, [sp, #4]
 414:	e59d1000 	ldr	r1, [sp]
 418:	e0800001 	add	r0, r0, r1
 41c:	e59d1010 	ldr	r1, [sp, #16]
 420:	e1500001 	cmp	r0, r1
 424:	9a000012 	bls	474 <_mr_readFile+0x474>
 428:	e59d0098 	ldr	r0, [sp, #152]	; 0x98
 42c:	ebfffffe 	bl	0 <mr_close>
 430:	e1a01008 	mov	r1, r8
 434:	e1a00006 	mov	r0, r6
 438:	ebfffffe 	bl	0 <_mr_readFile>
 43c:	e59f23b0 	ldr	r2, [pc, #944]	; 7f4 <_mr_readFile+0x7f4>
 440:	ea0000ce 	b	780 <_mr_readFile+0x780>
 444:	e285500c 	add	r5, r5, #12
 448:	e1550008 	cmp	r5, r8
 44c:	3a000006 	bcc	46c <_mr_readFile+0x46c>
 450:	e59d0098 	ldr	r0, [sp, #152]	; 0x98
 454:	ebfffffe 	bl	0 <mr_close>
 458:	e1a01008 	mov	r1, r8
 45c:	e1a00006 	mov	r0, r6
 460:	ebfffffe 	bl	0 <_mr_readFile>
 464:	e59f238c 	ldr	r2, [pc, #908]	; 7f8 <_mr_readFile+0x7f8>
 468:	ea0000c4 	b	780 <_mr_readFile+0x780>
 46c:	e3570000 	cmp	r7, #0
 470:	0affffa2 	beq	300 <_mr_readFile+0x300>
 474:	e1a01008 	mov	r1, r8
 478:	e1a00006 	mov	r0, r6
 47c:	ebfffffe 	bl	0 <_mr_readFile>
 480:	e59d0000 	ldr	r0, [sp]
 484:	e5840000 	str	r0, [r4]
 488:	ebfffffe 	bl	0 <_mr_readFile>
 48c:	e1b06000 	movs	r6, r0
 490:	1a000003 	bne	4a4 <_mr_readFile+0x4a4>
 494:	e59d0098 	ldr	r0, [sp, #152]	; 0x98
 498:	ebfffffe 	bl	0 <mr_close>
 49c:	e59f2358 	ldr	r2, [pc, #856]	; 7fc <_mr_readFile+0x7fc>
 4a0:	ea0000b6 	b	780 <_mr_readFile+0x780>
 4a4:	e59d0098 	ldr	r0, [sp, #152]	; 0x98
 4a8:	e59d1004 	ldr	r1, [sp, #4]
 4ac:	e3a02000 	mov	r2, #0
 4b0:	ebfffffe 	bl	0 <mr_seek>
 4b4:	e3500000 	cmp	r0, #0
 4b8:	a3a05000 	movge	r5, #0
 4bc:	aa000014 	bge	514 <_mr_readFile+0x514>
 4c0:	e5941000 	ldr	r1, [r4]
 4c4:	e1a00006 	mov	r0, r6
 4c8:	ebfffffe 	bl	0 <_mr_readFile>
 4cc:	e59d0098 	ldr	r0, [sp, #152]	; 0x98
 4d0:	ebfffffe 	bl	0 <mr_close>
 4d4:	e3a02d2f 	mov	r2, #3008	; 0xbc0
 4d8:	ea0000a8 	b	780 <_mr_readFile+0x780>
 4dc:	e0402005 	sub	r2, r0, r5
 4e0:	e59d0098 	ldr	r0, [sp, #152]	; 0x98
 4e4:	e0861005 	add	r1, r6, r5
 4e8:	ebfffffe 	bl	0 <mr_read>
 4ec:	e3500000 	cmp	r0, #0
 4f0:	ca000006 	bgt	510 <_mr_readFile+0x510>
 4f4:	e5941000 	ldr	r1, [r4]
 4f8:	e1a00006 	mov	r0, r6
 4fc:	ebfffffe 	bl	0 <_mr_readFile>
 500:	e59d0098 	ldr	r0, [sp, #152]	; 0x98
 504:	ebfffffe 	bl	0 <mr_close>
 508:	e59f22f0 	ldr	r2, [pc, #752]	; 800 <_mr_readFile+0x800>
 50c:	ea00009b 	b	780 <_mr_readFile+0x780>
 510:	e0855000 	add	r5, r5, r0
 514:	e5940000 	ldr	r0, [r4]
 518:	e1500005 	cmp	r0, r5
 51c:	caffffee 	bgt	4dc <_mr_readFile+0x4dc>
 520:	e59d0098 	ldr	r0, [sp, #152]	; 0x98
 524:	ebfffffe 	bl	0 <mr_close>
 528:	e51f5184 	ldr	r5, [pc, #-388]	; 3ac <_mr_readFile+0x3ac>
 52c:	e3a00000 	mov	r0, #0
 530:	e5850064 	str	r0, [r5, #100]	; 0x64
 534:	e5856058 	str	r6, [r5, #88]	; 0x58
 538:	e5850060 	str	r0, [r5, #96]	; 0x60
 53c:	e5940000 	ldr	r0, [r4]
 540:	ebfffffe 	bl	0 <mr_get_method>
 544:	e3500000 	cmp	r0, #0
 548:	b1a00006 	movlt	r0, r6
 54c:	ba000046 	blt	66c <_mr_readFile+0x66c>
 550:	e5940000 	ldr	r0, [r4]
 554:	e0800006 	add	r0, r0, r6
 558:	e5501004 	ldrb	r1, [r0, #-4]
 55c:	e5502003 	ldrb	r2, [r0, #-3]
 560:	e1811402 	orr	r1, r1, r2, lsl #8
 564:	e5502002 	ldrb	r2, [r0, #-2]
 568:	e5500001 	ldrb	r0, [r0, #-1]
 56c:	e1811802 	orr	r1, r1, r2, lsl #16
 570:	e1817c00 	orr	r7, r1, r0, lsl #24
 574:	e1a00007 	mov	r0, r7
 578:	ebfffffe 	bl	0 <_mr_readFile>
 57c:	e585005c 	str	r0, [r5, #92]	; 0x5c
 580:	e5946000 	ldr	r6, [r4]
 584:	e5847000 	str	r7, [r4]
 588:	e595005c 	ldr	r0, [r5, #92]	; 0x5c
 58c:	e3500000 	cmp	r0, #0
 590:	1a000083 	bne	7a4 <_mr_readFile+0x7a4>
 594:	e3590000 	cmp	r9, #0
 598:	05950058 	ldreq	r0, [r5, #88]	; 0x58
 59c:	01a01006 	moveq	r1, r6
 5a0:	0bfffffe 	bleq	0 <_mr_readFile>
 5a4:	ea00007c 	b	79c <_mr_readFile+0x79c>
 5a8:	e2401008 	sub	r1, r0, #8
 5ac:	e59d0098 	ldr	r0, [sp, #152]	; 0x98
 5b0:	e3a02001 	mov	r2, #1
 5b4:	ebfffffe 	bl	0 <mr_seek>
 5b8:	e3500000 	cmp	r0, #0
 5bc:	aa000003 	bge	5d0 <_mr_readFile+0x5d0>
 5c0:	e59d0098 	ldr	r0, [sp, #152]	; 0x98
 5c4:	ebfffffe 	bl	0 <mr_close>
 5c8:	e59f2234 	ldr	r2, [pc, #564]	; 804 <_mr_readFile+0x804>
 5cc:	ea00006b 	b	780 <_mr_readFile+0x780>
 5d0:	e59d0098 	ldr	r0, [sp, #152]	; 0x98
 5d4:	e3a02004 	mov	r2, #4
 5d8:	e28d109c 	add	r1, sp, #156	; 0x9c
 5dc:	ebfffffe 	bl	0 <mr_read>
 5e0:	e3500004 	cmp	r0, #4
 5e4:	1a000004 	bne	5fc <_mr_readFile+0x5fc>
 5e8:	e59d509c 	ldr	r5, [sp, #156]	; 0x9c
 5ec:	e3550001 	cmp	r5, #1
 5f0:	3a000001 	bcc	5fc <_mr_readFile+0x5fc>
 5f4:	e3550080 	cmp	r5, #128	; 0x80
 5f8:	3a000003 	bcc	60c <_mr_readFile+0x60c>
 5fc:	e59d0098 	ldr	r0, [sp, #152]	; 0x98
 600:	ebfffffe 	bl	0 <mr_close>
 604:	e59f21fc 	ldr	r2, [pc, #508]	; 808 <_mr_readFile+0x808>
 608:	ea00005c 	b	780 <_mr_readFile+0x780>
 60c:	e3a01080 	mov	r1, #128	; 0x80
 610:	e28d0018 	add	r0, sp, #24
 614:	ebfffffe 	bl	0 <__aeabi_memclr4>
 618:	e59d0098 	ldr	r0, [sp, #152]	; 0x98
 61c:	e1a02005 	mov	r2, r5
 620:	e28d1018 	add	r1, sp, #24
 624:	ebfffffe 	bl	0 <mr_read>
 628:	e59d109c 	ldr	r1, [sp, #156]	; 0x9c
 62c:	e1500001 	cmp	r0, r1
 630:	0a000003 	beq	644 <_mr_readFile+0x644>
 634:	e59d0098 	ldr	r0, [sp, #152]	; 0x98
 638:	ebfffffe 	bl	0 <mr_close>
 63c:	e59f21c8 	ldr	r2, [pc, #456]	; 80c <_mr_readFile+0x80c>
 640:	ea00004e 	b	780 <_mr_readFile+0x780>
 644:	e59d00a0 	ldr	r0, [sp, #160]	; 0xa0
 648:	e28d1018 	add	r1, sp, #24
 64c:	ebfffffe 	bl	0 <strcmp>
 650:	e3500000 	cmp	r0, #0
 654:	1a000013 	bne	6a8 <_mr_readFile+0x6a8>
 658:	e35a0001 	cmp	sl, #1
 65c:	1a000004 	bne	674 <_mr_readFile+0x674>
 660:	e59d0098 	ldr	r0, [sp, #152]	; 0x98
 664:	ebfffffe 	bl	0 <mr_close>
 668:	e3a00001 	mov	r0, #1
 66c:	e28dd0ac 	add	sp, sp, #172	; 0xac
 670:	e8bd8ff0 	pop	{r4, r5, r6, r7, r8, r9, sl, fp, pc}
 674:	e59d0098 	ldr	r0, [sp, #152]	; 0x98
 678:	e3a02004 	mov	r2, #4
 67c:	e28d109c 	add	r1, sp, #156	; 0x9c
 680:	ebfffffe 	bl	0 <mr_read>
 684:	e3500004 	cmp	r0, #4
 688:	1a000004 	bne	6a0 <_mr_readFile+0x6a0>
 68c:	e59d009c 	ldr	r0, [sp, #156]	; 0x9c
 690:	e3500001 	cmp	r0, #1
 694:	3a000001 	bcc	6a0 <_mr_readFile+0x6a0>
 698:	e3700106 	cmn	r0, #-2147483647	; 0x80000001
 69c:	9a00001b 	bls	710 <_mr_readFile+0x710>
 6a0:	e59f2168 	ldr	r2, [pc, #360]	; 810 <_mr_readFile+0x810>
 6a4:	ea00000b 	b	6d8 <_mr_readFile+0x6d8>
 6a8:	e59d0098 	ldr	r0, [sp, #152]	; 0x98
 6ac:	e3a02004 	mov	r2, #4
 6b0:	e28d109c 	add	r1, sp, #156	; 0x9c
 6b4:	ebfffffe 	bl	0 <mr_read>
 6b8:	e3500004 	cmp	r0, #4
 6bc:	1a000004 	bne	6d4 <_mr_readFile+0x6d4>
 6c0:	e59d109c 	ldr	r1, [sp, #156]	; 0x9c
 6c4:	e3510001 	cmp	r1, #1
 6c8:	3a000001 	bcc	6d4 <_mr_readFile+0x6d4>
 6cc:	e3710106 	cmn	r1, #-2147483647	; 0x80000001
 6d0:	9a000006 	bls	6f0 <_mr_readFile+0x6f0>
 6d4:	e59f2138 	ldr	r2, [pc, #312]	; 814 <_mr_readFile+0x814>
 6d8:	e51f0318 	ldr	r0, [pc, #-792]	; 3c8 <_mr_readFile+0x3c8>
 6dc:	e59d10a0 	ldr	r1, [sp, #160]	; 0xa0
 6e0:	ebfffffe 	bl	0 <mr_printf>
 6e4:	e59d0098 	ldr	r0, [sp, #152]	; 0x98
 6e8:	ebfffffe 	bl	0 <mr_close>
 6ec:	ea00002a 	b	79c <_mr_readFile+0x79c>
 6f0:	e59d0098 	ldr	r0, [sp, #152]	; 0x98
 6f4:	e3a02001 	mov	r2, #1
 6f8:	ebfffffe 	bl	0 <mr_seek>
 6fc:	e3500000 	cmp	r0, #0
 700:	b59f2110 	ldrlt	r2, [pc, #272]	; 818 <_mr_readFile+0x818>
 704:	bafffff3 	blt	6d8 <_mr_readFile+0x6d8>
 708:	e3570000 	cmp	r7, #0
 70c:	0affffaf 	beq	5d0 <_mr_readFile+0x5d0>
 710:	e59d009c 	ldr	r0, [sp, #156]	; 0x9c
 714:	e3500000 	cmp	r0, #0
 718:	e5840000 	str	r0, [r4]
 71c:	ca000003 	bgt	730 <_mr_readFile+0x730>
 720:	e59d0098 	ldr	r0, [sp, #152]	; 0x98
 724:	ebfffffe 	bl	0 <mr_close>
 728:	e59f20ec 	ldr	r2, [pc, #236]	; 81c <_mr_readFile+0x81c>
 72c:	ea000013 	b	780 <_mr_readFile+0x780>
 730:	ebfffffe 	bl	0 <_mr_readFile>
 734:	e1b06000 	movs	r6, r0
 738:	13a05000 	movne	r5, #0
 73c:	1a000012 	bne	78c <_mr_readFile+0x78c>
 740:	e59d0098 	ldr	r0, [sp, #152]	; 0x98
 744:	ebfffffe 	bl	0 <mr_close>
 748:	e59f20d0 	ldr	r2, [pc, #208]	; 820 <_mr_readFile+0x820>
 74c:	ea00000b 	b	780 <_mr_readFile+0x780>
 750:	e0402005 	sub	r2, r0, r5
 754:	e59d0098 	ldr	r0, [sp, #152]	; 0x98
 758:	e0861005 	add	r1, r6, r5
 75c:	ebfffffe 	bl	0 <mr_read>
 760:	e3500000 	cmp	r0, #0
 764:	ca000007 	bgt	788 <_mr_readFile+0x788>
 768:	e5941000 	ldr	r1, [r4]
 76c:	e1a00006 	mov	r0, r6
 770:	ebfffffe 	bl	0 <_mr_readFile>
 774:	e59d0098 	ldr	r0, [sp, #152]	; 0x98
 778:	ebfffffe 	bl	0 <mr_close>
 77c:	e59f20a0 	ldr	r2, [pc, #160]	; 824 <_mr_readFile+0x824>
 780:	e59d10a0 	ldr	r1, [sp, #160]	; 0xa0
 784:	eafffe44 	b	9c <_mr_readFile+0x9c>
 788:	e0855000 	add	r5, r5, r0
 78c:	e5940000 	ldr	r0, [r4]
 790:	e1500005 	cmp	r0, r5
 794:	caffffed 	bgt	750 <_mr_readFile+0x750>
 798:	eaffff60 	b	520 <_mr_readFile+0x520>
 79c:	e3a00000 	mov	r0, #0
 7a0:	eaffffb1 	b	66c <_mr_readFile+0x66c>
 7a4:	ebfffffe 	bl	0 <mr_unzip>
 7a8:	e3500000 	cmp	r0, #0
 7ac:	0a00000a 	beq	7dc <_mr_readFile+0x7dc>
 7b0:	e3590000 	cmp	r9, #0
 7b4:	05950058 	ldreq	r0, [r5, #88]	; 0x58
 7b8:	01a01006 	moveq	r1, r6
 7bc:	0bfffffe 	bleq	0 <_mr_readFile>
 7c0:	e595005c 	ldr	r0, [r5, #92]	; 0x5c
 7c4:	e1a01007 	mov	r1, r7
 7c8:	ebfffffe 	bl	0 <_mr_readFile>
 7cc:	e59d10a0 	ldr	r1, [sp, #160]	; 0xa0
 7d0:	e28f0050 	add	r0, pc, #80	; 0x50
 7d4:	ebfffffe 	bl	0 <mr_printf>
 7d8:	eaffffef 	b	79c <_mr_readFile+0x79c>
 7dc:	e3590000 	cmp	r9, #0
 7e0:	05950058 	ldreq	r0, [r5, #88]	; 0x58
 7e4:	01a01006 	moveq	r1, r6
 7e8:	0bfffffe 	bleq	0 <_mr_readFile>
 7ec:	e595005c 	ldr	r0, [r5, #92]	; 0x5c
 7f0:	eaffff9d 	b	66c <_mr_readFile+0x66c>
 7f4:	00000bbd 	.word	0x00000bbd
 7f8:	00000bbe 	.word	0x00000bbe
 7fc:	00000bbf 	.word	0x00000bbf
 800:	00000bc1 	.word	0x00000bc1
 804:	00000bba 	.word	0x00000bba
 808:	000007d7 	.word	0x000007d7
 80c:	000007d8 	.word	0x000007d8
 810:	000007d9 	.word	0x000007d9
 814:	000007da 	.word	0x000007da
 818:	000007db 	.word	0x000007db
 81c:	000007dc 	.word	0x000007dc
 820:	000007dd 	.word	0x000007dd
 824:	000007de 	.word	0x000007de
 828:	5f726d5f 	.word	0x5f726d5f
 82c:	64616572 	.word	0x64616572
 830:	656c6946 	.word	0x656c6946
 834:	2522203a 	.word	0x2522203a
 838:	55202273 	.word	0x55202273
 83c:	70697a6e 	.word	0x70697a6e
 840:	72726520 	.word	0x72726520
 844:	00000021 	.word	0x00000021

Disassembly of section i.mr_checkMrp:

00000000 <mr_checkMrp>:
   0:	e92d4070 	push	{r4, r5, r6, lr}
   4:	e1a05000 	mov	r5, r0
   8:	e3a00b0a 	mov	r0, #10240	; 0x2800
   c:	e24dd018 	sub	sp, sp, #24
  10:	ebfffffe 	bl	0 <mr_checkMrp>
  14:	e1b04000 	movs	r4, r0
  18:	1a000005 	bne	34 <mr_checkMrp+0x34>
  1c:	e3a01000 	mov	r1, #0
  20:	e28f0e1d 	add	r0, pc, #464	; 0x1d0
  24:	ebfffffe 	bl	0 <mr_printf>
  28:	e3e00001 	mvn	r0, #1
  2c:	e28dd018 	add	sp, sp, #24
  30:	e8bd8070 	pop	{r4, r5, r6, pc}
  34:	e3a01001 	mov	r1, #1
  38:	e1a00005 	mov	r0, r5
  3c:	ebfffffe 	bl	0 <mr_open>
  40:	e1b06000 	movs	r6, r0
  44:	1a000007 	bne	68 <mr_checkMrp+0x68>
  48:	e3a01b0a 	mov	r1, #10240	; 0x2800
  4c:	e1a00004 	mov	r0, r4
  50:	ebfffffe 	bl	0 <mr_checkMrp>
  54:	e3a01001 	mov	r1, #1
  58:	e28f0f66 	add	r0, pc, #408	; 0x198
  5c:	ebfffffe 	bl	0 <mr_printf>
  60:	e3e00002 	mvn	r0, #2
  64:	eafffff0 	b	2c <mr_checkMrp+0x2c>
  68:	e28d0008 	add	r0, sp, #8
  6c:	e3a01000 	mov	r1, #0
  70:	e3a02000 	mov	r2, #0
  74:	e8a00006 	stmia	r0!, {r1, r2}
  78:	e8800006 	stm	r0, {r1, r2}
  7c:	e3a02010 	mov	r2, #16
  80:	e28d1008 	add	r1, sp, #8
  84:	e1a00006 	mov	r0, r6
  88:	ebfffffe 	bl	0 <mr_read>
  8c:	e1a05000 	mov	r5, r0
  90:	e3a00000 	mov	r0, #0
  94:	e3a01000 	mov	r1, #0
  98:	ebfffffe 	bl	0 <mr_updcrc>
  9c:	e3a01010 	mov	r1, #16
  a0:	e28d0008 	add	r0, sp, #8
  a4:	ebfffffe 	bl	0 <mr_updcrc>
  a8:	e3550010 	cmp	r5, #16
  ac:	059d0008 	ldreq	r0, [sp, #8]
  b0:	059f1154 	ldreq	r1, [pc, #340]	; 20c <mr_checkMrp+0x20c>
  b4:	01500001 	cmpeq	r0, r1
  b8:	1a000002 	bne	c8 <mr_checkMrp+0xc8>
  bc:	e59d000c 	ldr	r0, [sp, #12]
  c0:	e35000e8 	cmp	r0, #232	; 0xe8
  c4:	8a000009 	bhi	f0 <mr_checkMrp+0xf0>
  c8:	e1a00006 	mov	r0, r6
  cc:	ebfffffe 	bl	0 <mr_close>
  d0:	e3a01b0a 	mov	r1, #10240	; 0x2800
  d4:	e1a00004 	mov	r0, r4
  d8:	ebfffffe 	bl	0 <mr_checkMrp>
  dc:	e3a01002 	mov	r1, #2
  e0:	e28f0e11 	add	r0, pc, #272	; 0x110
  e4:	ebfffffe 	bl	0 <mr_printf>
  e8:	e3e00003 	mvn	r0, #3
  ec:	eaffffce 	b	2c <mr_checkMrp+0x2c>
  f0:	e3a020e0 	mov	r2, #224	; 0xe0
  f4:	e1a01004 	mov	r1, r4
  f8:	e1a00006 	mov	r0, r6
  fc:	ebfffffe 	bl	0 <mr_read>
 100:	e35000e0 	cmp	r0, #224	; 0xe0
 104:	0a000009 	beq	130 <mr_checkMrp+0x130>
 108:	e1a00006 	mov	r0, r6
 10c:	ebfffffe 	bl	0 <mr_close>
 110:	e3a01b0a 	mov	r1, #10240	; 0x2800
 114:	e1a00004 	mov	r0, r4
 118:	ebfffffe 	bl	0 <mr_checkMrp>
 11c:	e3a01003 	mov	r1, #3
 120:	e28f00d0 	add	r0, pc, #208	; 0xd0
 124:	ebfffffe 	bl	0 <mr_printf>
 128:	e3e00004 	mvn	r0, #4
 12c:	eaffffbe 	b	2c <mr_checkMrp+0x2c>
 130:	e5d400c0 	ldrb	r0, [r4, #192]	; 0xc0
 134:	e3500001 	cmp	r0, #1
 138:	0a000009 	beq	164 <mr_checkMrp+0x164>
 13c:	e1a00006 	mov	r0, r6
 140:	ebfffffe 	bl	0 <mr_close>
 144:	e3a01b0a 	mov	r1, #10240	; 0x2800
 148:	e1a00004 	mov	r0, r4
 14c:	ebfffffe 	bl	0 <mr_checkMrp>
 150:	e3a0101f 	mov	r1, #31
 154:	e28f009c 	add	r0, pc, #156	; 0x9c
 158:	ebfffffe 	bl	0 <mr_printf>
 15c:	e3e00005 	mvn	r0, #5
 160:	eaffffb1 	b	2c <mr_checkMrp+0x2c>
 164:	e3a02004 	mov	r2, #4
 168:	e2841044 	add	r1, r4, #68	; 0x44
 16c:	e28d0004 	add	r0, sp, #4
 170:	ebfffffe 	bl	0 <__aeabi_memcpy>
 174:	e3a01004 	mov	r1, #4
 178:	e2840044 	add	r0, r4, #68	; 0x44
 17c:	ebfffffe 	bl	0 <__aeabi_memclr>
 180:	e3a010e0 	mov	r1, #224	; 0xe0
 184:	ea000006 	b	1a4 <mr_checkMrp+0x1a4>
 188:	e3a02b0a 	mov	r2, #10240	; 0x2800
 18c:	e1a01004 	mov	r1, r4
 190:	e1a00006 	mov	r0, r6
 194:	ebfffffe 	bl	0 <mr_read>
 198:	e3500000 	cmp	r0, #0
 19c:	da000003 	ble	1b0 <mr_checkMrp+0x1b0>
 1a0:	e1a01000 	mov	r1, r0
 1a4:	e1a00004 	mov	r0, r4
 1a8:	ebfffffe 	bl	0 <mr_updcrc>
 1ac:	eafffff5 	b	188 <mr_checkMrp+0x188>
 1b0:	e3a01000 	mov	r1, #0
 1b4:	e1a00004 	mov	r0, r4
 1b8:	ebfffffe 	bl	0 <mr_updcrc>
 1bc:	e59d1004 	ldr	r1, [sp, #4]
 1c0:	e1500001 	cmp	r0, r1
 1c4:	03a05000 	moveq	r5, #0
 1c8:	0a000003 	beq	1dc <mr_checkMrp+0x1dc>
 1cc:	e3a01004 	mov	r1, #4
 1d0:	e28f0020 	add	r0, pc, #32
 1d4:	ebfffffe 	bl	0 <mr_printf>
 1d8:	e3e05006 	mvn	r5, #6
 1dc:	e1a00006 	mov	r0, r6
 1e0:	ebfffffe 	bl	0 <mr_close>
 1e4:	e3a01b0a 	mov	r1, #10240	; 0x2800
 1e8:	e1a00004 	mov	r0, r4
 1ec:	ebfffffe 	bl	0 <mr_checkMrp>
 1f0:	e1a00005 	mov	r0, r5
 1f4:	eaffff8c 	b	2c <mr_checkMrp+0x2c>
 1f8:	5f63726d 	.word	0x5f63726d
 1fc:	63656863 	.word	0x63656863
 200:	70724d6b 	.word	0x70724d6b
 204:	72726520 	.word	0x72726520
 208:	00642520 	.word	0x00642520
 20c:	4750524d 	.word	0x4750524d

Disassembly of section i._DispUpEx:

00000000 <_DispUpEx>:
   0:	e59fc028 	ldr	ip, [pc, #40]	; 30 <_DispUpEx+0x30>
   4:	e92d4008 	push	{r3, lr}
   8:	e59ce004 	ldr	lr, [ip, #4]
   c:	e35e0001 	cmp	lr, #1
  10:	058d3000 	streq	r3, [sp]
  14:	01a03002 	moveq	r3, r2
  18:	01a02001 	moveq	r2, r1
  1c:	01a01000 	moveq	r1, r0
  20:	059c0040 	ldreq	r0, [ip, #64]	; 0x40
  24:	0bfffffe 	bleq	0 <mr_drawBitmap>
  28:	e3a00000 	mov	r0, #0
  2c:	e8bd9000 	pop	{ip, pc}
  30:	00000000 	.word	0x00000000

Disassembly of section i.MRF_DispUpEx:

00000000 <MRF_DispUpEx>:
   0:	e92d41f0 	push	{r4, r5, r6, r7, r8, lr}
   4:	e1a07000 	mov	r7, r0
   8:	e3a01001 	mov	r1, #1
   c:	ebfffffe 	bl	0 <mrp_tonumber>
  10:	e1a04800 	lsl	r4, r0, #16
  14:	e1a04844 	asr	r4, r4, #16
  18:	e1a00007 	mov	r0, r7
  1c:	e3a01002 	mov	r1, #2
  20:	ebfffffe 	bl	0 <mrp_tonumber>
  24:	e1a05800 	lsl	r5, r0, #16
  28:	e1a05845 	asr	r5, r5, #16
  2c:	e1a00007 	mov	r0, r7
  30:	e3a01003 	mov	r1, #3
  34:	ebfffffe 	bl	0 <mrp_tonumber>
  38:	e1a06800 	lsl	r6, r0, #16
  3c:	e1a06826 	lsr	r6, r6, #16
  40:	e1a00007 	mov	r0, r7
  44:	e3a01004 	mov	r1, #4
  48:	ebfffffe 	bl	0 <mrp_tonumber>
  4c:	e1a03800 	lsl	r3, r0, #16
  50:	e1a00004 	mov	r0, r4
  54:	e1a02006 	mov	r2, r6
  58:	e1a01005 	mov	r1, r5
  5c:	e8bd41f0 	pop	{r4, r5, r6, r7, r8, lr}
  60:	e1a03823 	lsr	r3, r3, #16
  64:	eafffffe 	b	0 <MRF_DispUpEx>

Disassembly of section i.MRF_DispUp:

00000000 <MRF_DispUp>:
   0:	e92d43f8 	push	{r3, r4, r5, r6, r7, r8, r9, lr}
   4:	e1a08000 	mov	r8, r0
   8:	e3a01001 	mov	r1, #1
   c:	ebfffffe 	bl	0 <mrp_tonumber>
  10:	e1a04800 	lsl	r4, r0, #16
  14:	e1a04844 	asr	r4, r4, #16
  18:	e1a00008 	mov	r0, r8
  1c:	e3a01002 	mov	r1, #2
  20:	ebfffffe 	bl	0 <mrp_tonumber>
  24:	e1a05800 	lsl	r5, r0, #16
  28:	e1a05845 	asr	r5, r5, #16
  2c:	e1a00008 	mov	r0, r8
  30:	e3a01003 	mov	r1, #3
  34:	ebfffffe 	bl	0 <mrp_tonumber>
  38:	e1a06800 	lsl	r6, r0, #16
  3c:	e1a06826 	lsr	r6, r6, #16
  40:	e1a00008 	mov	r0, r8
  44:	e3a01004 	mov	r1, #4
  48:	ebfffffe 	bl	0 <mrp_tonumber>
  4c:	e1a07800 	lsl	r7, r0, #16
  50:	e1a07827 	lsr	r7, r7, #16
  54:	e1a00008 	mov	r0, r8
  58:	e3a0201e 	mov	r2, #30
  5c:	e3a01005 	mov	r1, #5
  60:	ebfffffe 	bl	0 <mr_L_optnumber>
  64:	e59f1038 	ldr	r1, [pc, #56]	; a4 <MRF_DispUp+0xa4>
  68:	e1a00800 	lsl	r0, r0, #16
  6c:	e1a00820 	lsr	r0, r0, #16
  70:	e0810200 	add	r0, r1, r0, lsl #4
  74:	e58d7000 	str	r7, [sp]
  78:	e590100c 	ldr	r1, [r0, #12]
  7c:	e1d000b2 	ldrh	r0, [r0, #2]
  80:	e1a03006 	mov	r3, r6
  84:	e1a02005 	mov	r2, r5
  88:	e0000095 	mul	r0, r5, r0
  8c:	e0810080 	add	r0, r1, r0, lsl #1
  90:	e0800084 	add	r0, r0, r4, lsl #1
  94:	e1a01004 	mov	r1, r4
  98:	ebfffffe 	bl	0 <mr_drawBitmap>
  9c:	e3a00000 	mov	r0, #0
  a0:	e8bd83f8 	pop	{r3, r4, r5, r6, r7, r8, r9, pc}
  a4:	000000d8 	.word	0x000000d8

Disassembly of section i.MRF_TimerStart:

00000000 <MRF_TimerStart>:
   0:	e92d4070 	push	{r4, r5, r6, lr}
   4:	e1a04000 	mov	r4, r0
   8:	e3a02000 	mov	r2, #0
   c:	e3a01001 	mov	r1, #1
  10:	ebfffffe 	bl	0 <to_mr_tonumber>
  14:	e3a02000 	mov	r2, #0
  18:	e3a01002 	mov	r1, #2
  1c:	e1a00004 	mov	r0, r4
  20:	ebfffffe 	bl	0 <to_mr_tonumber>
  24:	e1a05800 	lsl	r5, r0, #16
  28:	e1a05825 	lsr	r5, r5, #16
  2c:	e1a00004 	mov	r0, r4
  30:	e3a02000 	mov	r2, #0
  34:	e3a01003 	mov	r1, #3
  38:	ebfffffe 	bl	0 <to_mr_tostring>
  3c:	e59f4038 	ldr	r4, [pc, #56]	; 7c <MRF_TimerStart+0x7c>
  40:	e5941004 	ldr	r1, [r4, #4]
  44:	e3510001 	cmp	r1, #1
  48:	0a000004 	beq	60 <MRF_TimerStart+0x60>
  4c:	e5942010 	ldr	r2, [r4, #16]
  50:	e3520000 	cmp	r2, #0
  54:	0a000006 	beq	74 <MRF_TimerStart+0x74>
  58:	e3510002 	cmp	r1, #2
  5c:	1a000004 	bne	74 <MRF_TimerStart+0x74>
  60:	e5840050 	str	r0, [r4, #80]	; 0x50
  64:	e1a00005 	mov	r0, r5
  68:	ebfffffe 	bl	0 <mr_timerStart>
  6c:	e3a00001 	mov	r0, #1
  70:	e584000c 	str	r0, [r4, #12]
  74:	e3a00000 	mov	r0, #0
  78:	e8bd8070 	pop	{r4, r5, r6, pc}
  7c:	00000000 	.word	0x00000000

Disassembly of section i.MRF_TimerStop:

00000000 <MRF_TimerStop>:
   0:	e92d4010 	push	{r4, lr}
   4:	e3a02000 	mov	r2, #0
   8:	e3a01001 	mov	r1, #1
   c:	ebfffffe 	bl	0 <to_mr_tonumber>
  10:	ebfffffe 	bl	0 <mr_timerStop>
  14:	e59f1008 	ldr	r1, [pc, #8]	; 24 <MRF_TimerStop+0x24>
  18:	e3a00000 	mov	r0, #0
  1c:	e581000c 	str	r0, [r1, #12]
  20:	e8bd8010 	pop	{r4, pc}
  24:	00000000 	.word	0x00000000

Disassembly of section i.MRF_DrawText:

00000000 <MRF_DrawText>:
   0:	e92d4ff0 	push	{r4, r5, r6, r7, r8, r9, sl, fp, lr}
   4:	e24dd014 	sub	sp, sp, #20
   8:	e1a0b000 	mov	fp, r0
   c:	e3a02000 	mov	r2, #0
  10:	e3a01001 	mov	r1, #1
  14:	ebfffffe 	bl	0 <to_mr_tostring>
  18:	e1a09000 	mov	r9, r0
  1c:	e1a0000b 	mov	r0, fp
  20:	e3a02000 	mov	r2, #0
  24:	e3a01002 	mov	r1, #2
  28:	ebfffffe 	bl	0 <to_mr_tonumber>
  2c:	e1a04800 	lsl	r4, r0, #16
  30:	e1a04844 	asr	r4, r4, #16
  34:	e1a0000b 	mov	r0, fp
  38:	e3a02000 	mov	r2, #0
  3c:	e3a01003 	mov	r1, #3
  40:	ebfffffe 	bl	0 <to_mr_tonumber>
  44:	e1a05800 	lsl	r5, r0, #16
  48:	e1a05845 	asr	r5, r5, #16
  4c:	e1a0000b 	mov	r0, fp
  50:	e3a02000 	mov	r2, #0
  54:	e3a01004 	mov	r1, #4
  58:	ebfffffe 	bl	0 <to_mr_tonumber>
  5c:	e20060ff 	and	r6, r0, #255	; 0xff
  60:	e1a0000b 	mov	r0, fp
  64:	e3a02000 	mov	r2, #0
  68:	e3a01005 	mov	r1, #5
  6c:	ebfffffe 	bl	0 <to_mr_tonumber>
  70:	e20070ff 	and	r7, r0, #255	; 0xff
  74:	e1a0000b 	mov	r0, fp
  78:	e3a02000 	mov	r2, #0
  7c:	e3a01006 	mov	r1, #6
  80:	ebfffffe 	bl	0 <to_mr_tonumber>
  84:	e20080ff 	and	r8, r0, #255	; 0xff
  88:	e1a0000b 	mov	r0, fp
  8c:	e3a02000 	mov	r2, #0
  90:	e3a01007 	mov	r1, #7
  94:	ebfffffe 	bl	0 <to_mr_toboolean>
  98:	e1a0a000 	mov	sl, r0
  9c:	e1a0000b 	mov	r0, fp
  a0:	e3a02001 	mov	r2, #1
  a4:	e3a01008 	mov	r1, #8
  a8:	ebfffffe 	bl	0 <mr_L_optnumber>
  ac:	e1a03800 	lsl	r3, r0, #16
  b0:	e1a03823 	lsr	r3, r3, #16
  b4:	e58d300c 	str	r3, [sp, #12]
  b8:	e1a03006 	mov	r3, r6
  bc:	e1a00009 	mov	r0, r9
  c0:	e1a02005 	mov	r2, r5
  c4:	e1a01004 	mov	r1, r4
  c8:	e88d0580 	stm	sp, {r7, r8, sl}
  cc:	ebfffffe 	bl	0 <MRF_DrawText>
  d0:	e28dd014 	add	sp, sp, #20
  d4:	e8bd8ff0 	pop	{r4, r5, r6, r7, r8, r9, sl, fp, pc}

Disassembly of section i.MRF_DrawTextEx:

00000000 <MRF_DrawTextEx>:
   0:	e92d43f0 	push	{r4, r5, r6, r7, r8, r9, lr}
   4:	e24dd01c 	sub	sp, sp, #28
   8:	e1a09000 	mov	r9, r0
   c:	e3a02000 	mov	r2, #0
  10:	e3a01001 	mov	r1, #1
  14:	ebfffffe 	bl	0 <to_mr_tostring>
  18:	e1a07000 	mov	r7, r0
  1c:	e1a00009 	mov	r0, r9
  20:	e3a02003 	mov	r2, #3
  24:	e3a0100b 	mov	r1, #11
  28:	ebfffffe 	bl	0 <mr_L_optnumber>
  2c:	e1a08000 	mov	r8, r0
  30:	e1a00009 	mov	r0, r9
  34:	e3a02001 	mov	r2, #1
  38:	e3a0100c 	mov	r1, #12
  3c:	ebfffffe 	bl	0 <mr_L_optnumber>
  40:	e1a06800 	lsl	r6, r0, #16
  44:	e1a06826 	lsr	r6, r6, #16
  48:	e1a00009 	mov	r0, r9
  4c:	e3a02000 	mov	r2, #0
  50:	e3a01002 	mov	r1, #2
  54:	ebfffffe 	bl	0 <to_mr_tonumber>
  58:	e1a04800 	lsl	r4, r0, #16
  5c:	e1a04844 	asr	r4, r4, #16
  60:	e1a00009 	mov	r0, r9
  64:	e3a02000 	mov	r2, #0
  68:	e3a01003 	mov	r1, #3
  6c:	ebfffffe 	bl	0 <to_mr_tonumber>
  70:	e1a05800 	lsl	r5, r0, #16
  74:	e1a05845 	asr	r5, r5, #16
  78:	e1a00009 	mov	r0, r9
  7c:	e3a02000 	mov	r2, #0
  80:	e3a01004 	mov	r1, #4
  84:	ebfffffe 	bl	0 <to_mr_tonumber>
  88:	e1a00800 	lsl	r0, r0, #16
  8c:	e1a00820 	lsr	r0, r0, #16
  90:	e1cd01b4 	strh	r0, [sp, #20]
  94:	e1a00009 	mov	r0, r9
  98:	e3a02000 	mov	r2, #0
  9c:	e3a01005 	mov	r1, #5
  a0:	ebfffffe 	bl	0 <to_mr_tonumber>
  a4:	e1a00800 	lsl	r0, r0, #16
  a8:	e1a00820 	lsr	r0, r0, #16
  ac:	e1cd01b6 	strh	r0, [sp, #22]
  b0:	e1a00009 	mov	r0, r9
  b4:	e3a02000 	mov	r2, #0
  b8:	e3a01006 	mov	r1, #6
  bc:	ebfffffe 	bl	0 <to_mr_tonumber>
  c0:	e1a00800 	lsl	r0, r0, #16
  c4:	e1a00820 	lsr	r0, r0, #16
  c8:	e1cd01b8 	strh	r0, [sp, #24]
  cc:	e1a00009 	mov	r0, r9
  d0:	e3a02000 	mov	r2, #0
  d4:	e3a01007 	mov	r1, #7
  d8:	ebfffffe 	bl	0 <to_mr_tonumber>
  dc:	e1a00800 	lsl	r0, r0, #16
  e0:	e1a00820 	lsr	r0, r0, #16
  e4:	e1cd01ba 	strh	r0, [sp, #26]
  e8:	e1a00009 	mov	r0, r9
  ec:	e3a02000 	mov	r2, #0
  f0:	e3a01008 	mov	r1, #8
  f4:	ebfffffe 	bl	0 <to_mr_tonumber>
  f8:	e5cd0010 	strb	r0, [sp, #16]
  fc:	e1a00009 	mov	r0, r9
 100:	e3a02000 	mov	r2, #0
 104:	e3a01009 	mov	r1, #9
 108:	ebfffffe 	bl	0 <to_mr_tonumber>
 10c:	e5cd0011 	strb	r0, [sp, #17]
 110:	e1a00009 	mov	r0, r9
 114:	e3a02000 	mov	r2, #0
 118:	e3a0100a 	mov	r1, #10
 11c:	ebfffffe 	bl	0 <to_mr_tonumber>
 120:	e5cd0012 	strb	r0, [sp, #18]
 124:	e59d0010 	ldr	r0, [sp, #16]
 128:	e1a02005 	mov	r2, r5
 12c:	e58d0004 	str	r0, [sp, #4]
 130:	e59d0018 	ldr	r0, [sp, #24]
 134:	e1a01004 	mov	r1, r4
 138:	e58d0000 	str	r0, [sp]
 13c:	e59d3014 	ldr	r3, [sp, #20]
 140:	e1a00007 	mov	r0, r7
 144:	e58d600c 	str	r6, [sp, #12]
 148:	e58d8008 	str	r8, [sp, #8]
 14c:	ebfffffe 	bl	0 <MRF_DrawTextEx>
 150:	e1a01000 	mov	r1, r0
 154:	e1a00009 	mov	r0, r9
 158:	ebfffffe 	bl	0 <mrp_pushnumber>
 15c:	e3a00001 	mov	r0, #1
 160:	e28dd01c 	add	sp, sp, #28
 164:	e8bd83f0 	pop	{r4, r5, r6, r7, r8, r9, pc}

Disassembly of section i.MRF_TextWidth:

00000000 <MRF_TextWidth>:
   0:	e92d47ff 	push	{r0, r1, r2, r3, r4, r5, r6, r7, r8, r9, sl, lr}
   4:	e1a0a000 	mov	sl, r0
   8:	e3a06000 	mov	r6, #0
   c:	e3a05000 	mov	r5, #0
  10:	e3a01001 	mov	r1, #1
  14:	ebfffffe 	bl	0 <mrp_type>
  18:	e59f41ec 	ldr	r4, [pc, #492]	; 20c <MRF_TextWidth+0x20c>
  1c:	e3500004 	cmp	r0, #4
  20:	1a000038 	bne	108 <MRF_TextWidth+0x108>
  24:	e3a02000 	mov	r2, #0
  28:	e3a01001 	mov	r1, #1
  2c:	e1a0000a 	mov	r0, sl
  30:	ebfffffe 	bl	0 <to_mr_tostring>
  34:	e1a07000 	mov	r7, r0
  38:	e1a0000a 	mov	r0, sl
  3c:	e3a02000 	mov	r2, #0
  40:	e3a01002 	mov	r1, #2
  44:	ebfffffe 	bl	0 <to_mr_toboolean>
  48:	e1a08000 	mov	r8, r0
  4c:	e1a0000a 	mov	r0, sl
  50:	e3a02001 	mov	r2, #1
  54:	e3a01003 	mov	r1, #3
  58:	ebfffffe 	bl	0 <mr_L_optnumber>
  5c:	e3570000 	cmp	r7, #0
  60:	e1a09800 	lsl	r9, r0, #16
  64:	e1a09829 	lsr	r9, r9, #16
  68:	028f1e1a 	addeq	r1, pc, #416	; 0x1a0
  6c:	0a00004b 	beq	1a0 <MRF_TextWidth+0x1a0>
  70:	e3580000 	cmp	r8, #0
  74:	1a000005 	bne	90 <MRF_TextWidth+0x90>
  78:	e28d200c 	add	r2, sp, #12
  7c:	e3a01000 	mov	r1, #0
  80:	e1a00007 	mov	r0, r7
  84:	ebfffffe 	bl	0 <c2u>
  88:	e1b07000 	movs	r7, r0
  8c:	0a000042 	beq	19c <MRF_TextWidth+0x19c>
  90:	e1a04007 	mov	r4, r7
  94:	ea00000d 	b	d0 <MRF_TextWidth+0xd0>
  98:	e28d3004 	add	r3, sp, #4
  9c:	e28d2008 	add	r2, sp, #8
  a0:	e1a01009 	mov	r1, r9
  a4:	ebfffffe 	bl	0 <mr_getCharBitmap>
  a8:	e59d0008 	ldr	r0, [sp, #8]
  ac:	e2844002 	add	r4, r4, #2
  b0:	e0860000 	add	r0, r6, r0
  b4:	e1a06800 	lsl	r6, r0, #16
  b8:	e59d0004 	ldr	r0, [sp, #4]
  bc:	e1a06826 	lsr	r6, r6, #16
  c0:	e1500005 	cmp	r0, r5
  c4:	d1a00005 	movle	r0, r5
  c8:	e1a05800 	lsl	r5, r0, #16
  cc:	e1a05825 	lsr	r5, r5, #16
  d0:	e5d40001 	ldrb	r0, [r4, #1]
  d4:	e5d41000 	ldrb	r1, [r4]
  d8:	e0800401 	add	r0, r0, r1, lsl #8
  dc:	e3d00801 	bics	r0, r0, #65536	; 0x10000
  e0:	1affffec 	bne	98 <MRF_TextWidth+0x98>
  e4:	e3580000 	cmp	r8, #0
  e8:	059d100c 	ldreq	r1, [sp, #12]
  ec:	01a00007 	moveq	r0, r7
  f0:	0bfffffe 	bleq	0 <MRF_TextWidth>
  f4:	e1a01006 	mov	r1, r6
  f8:	e1a0000a 	mov	r0, sl
  fc:	ebfffffe 	bl	0 <mrp_pushnumber>
 100:	e1a01005 	mov	r1, r5
 104:	ea00003c 	b	1fc <MRF_TextWidth+0x1fc>
 108:	e3a01001 	mov	r1, #1
 10c:	e1a0000a 	mov	r0, sl
 110:	ebfffffe 	bl	0 <mrp_tonumber>
 114:	e1a05800 	lsl	r5, r0, #16
 118:	e1a05825 	lsr	r5, r5, #16
 11c:	e1a0000a 	mov	r0, sl
 120:	e3a02000 	mov	r2, #0
 124:	e3a01002 	mov	r1, #2
 128:	ebfffffe 	bl	0 <to_mr_toboolean>
 12c:	e1a07000 	mov	r7, r0
 130:	e1a0000a 	mov	r0, sl
 134:	e3a02001 	mov	r2, #1
 138:	e3a01003 	mov	r1, #3
 13c:	ebfffffe 	bl	0 <mr_L_optnumber>
 140:	e1a06800 	lsl	r6, r0, #16
 144:	e3570000 	cmp	r7, #0
 148:	e1a06826 	lsr	r6, r6, #16
 14c:	1a000001 	bne	158 <MRF_TextWidth+0x158>
 150:	e3550080 	cmp	r5, #128	; 0x80
 154:	2a000005 	bcs	170 <MRF_TextWidth+0x170>
 158:	e1a0300d 	mov	r3, sp
 15c:	e28d2004 	add	r2, sp, #4
 160:	e1a01006 	mov	r1, r6
 164:	e1a00005 	mov	r0, r5
 168:	ebfffffe 	bl	0 <mr_getCharBitmap>
 16c:	ea00001e 	b	1ec <MRF_TextWidth+0x1ec>
 170:	e1a00425 	lsr	r0, r5, #8
 174:	e5cd0008 	strb	r0, [sp, #8]
 178:	e3a00000 	mov	r0, #0
 17c:	e5cd5009 	strb	r5, [sp, #9]
 180:	e5cd000b 	strb	r0, [sp, #11]
 184:	e28d0008 	add	r0, sp, #8
 188:	e28d200c 	add	r2, sp, #12
 18c:	e3a01000 	mov	r1, #0
 190:	ebfffffe 	bl	0 <c2u>
 194:	e1b05000 	movs	r5, r0
 198:	1a000007 	bne	1bc <MRF_TextWidth+0x1bc>
 19c:	e28f1084 	add	r1, pc, #132	; 0x84
 1a0:	e594003c 	ldr	r0, [r4, #60]	; 0x3c
 1a4:	ebfffffe 	bl	0 <mrp_pushfstring>
 1a8:	e594003c 	ldr	r0, [r4, #60]	; 0x3c
 1ac:	ebfffffe 	bl	0 <mrp_error>
 1b0:	e3a00000 	mov	r0, #0
 1b4:	e28dd010 	add	sp, sp, #16
 1b8:	e8bd87f0 	pop	{r4, r5, r6, r7, r8, r9, sl, pc}
 1bc:	e1d500b2 	ldrh	r0, [r5, #2]
 1c0:	e1d510b0 	ldrh	r1, [r5]
 1c4:	e1a0300d 	mov	r3, sp
 1c8:	e28d2004 	add	r2, sp, #4
 1cc:	e0800401 	add	r0, r0, r1, lsl #8
 1d0:	e1a00800 	lsl	r0, r0, #16
 1d4:	e1a00820 	lsr	r0, r0, #16
 1d8:	e1a01006 	mov	r1, r6
 1dc:	ebfffffe 	bl	0 <mr_getCharBitmap>
 1e0:	e59d100c 	ldr	r1, [sp, #12]
 1e4:	e1a00005 	mov	r0, r5
 1e8:	ebfffffe 	bl	0 <MRF_TextWidth>
 1ec:	e59d1004 	ldr	r1, [sp, #4]
 1f0:	e1a0000a 	mov	r0, sl
 1f4:	ebfffffe 	bl	0 <mrp_pushnumber>
 1f8:	e59d1000 	ldr	r1, [sp]
 1fc:	e1a0000a 	mov	r0, sl
 200:	ebfffffe 	bl	0 <mrp_pushnumber>
 204:	e3a00002 	mov	r0, #2
 208:	eaffffe9 	b	1b4 <MRF_TextWidth+0x1b4>
 20c:	00000000 	.word	0x00000000
 210:	74786554 	.word	0x74786554
 214:	74646957 	.word	0x74646957
 218:	74203a68 	.word	0x74203a68
 21c:	69207478 	.word	0x69207478
 220:	696e2073 	.word	0x696e2073
 224:	0000216c 	.word	0x0000216c
 228:	74786554 	.word	0x74786554
 22c:	74646957 	.word	0x74646957
 230:	32633a68 	.word	0x32633a68
 234:	72652075 	.word	0x72652075
 238:	00002172 	.word	0x00002172

Disassembly of section i.MRF_DrawRect:

00000000 <MRF_DrawRect>:
   0:	e92d4ffe 	push	{r1, r2, r3, r4, r5, r6, r7, r8, r9, sl, fp, lr}
   4:	e1a0a000 	mov	sl, r0
   8:	e3a02000 	mov	r2, #0
   c:	e3a01001 	mov	r1, #1
  10:	ebfffffe 	bl	0 <to_mr_tonumber>
  14:	e1a04800 	lsl	r4, r0, #16
  18:	e1a04844 	asr	r4, r4, #16
  1c:	e1a0000a 	mov	r0, sl
  20:	e3a02000 	mov	r2, #0
  24:	e3a01002 	mov	r1, #2
  28:	ebfffffe 	bl	0 <to_mr_tonumber>
  2c:	e1a05800 	lsl	r5, r0, #16
  30:	e1a05845 	asr	r5, r5, #16
  34:	e1a0000a 	mov	r0, sl
  38:	e3a02000 	mov	r2, #0
  3c:	e3a01003 	mov	r1, #3
  40:	ebfffffe 	bl	0 <to_mr_tonumber>
  44:	e1a06800 	lsl	r6, r0, #16
  48:	e1a06846 	asr	r6, r6, #16
  4c:	e1a0000a 	mov	r0, sl
  50:	e3a02000 	mov	r2, #0
  54:	e3a01004 	mov	r1, #4
  58:	ebfffffe 	bl	0 <to_mr_tonumber>
  5c:	e1a07800 	lsl	r7, r0, #16
  60:	e1a07847 	asr	r7, r7, #16
  64:	e1a0000a 	mov	r0, sl
  68:	e3a02000 	mov	r2, #0
  6c:	e3a01005 	mov	r1, #5
  70:	ebfffffe 	bl	0 <to_mr_tonumber>
  74:	e20080ff 	and	r8, r0, #255	; 0xff
  78:	e1a0000a 	mov	r0, sl
  7c:	e3a02000 	mov	r2, #0
  80:	e3a01006 	mov	r1, #6
  84:	ebfffffe 	bl	0 <to_mr_tonumber>
  88:	e20090ff 	and	r9, r0, #255	; 0xff
  8c:	e1a0000a 	mov	r0, sl
  90:	e3a02000 	mov	r2, #0
  94:	e3a01007 	mov	r1, #7
  98:	ebfffffe 	bl	0 <to_mr_tonumber>
  9c:	e20030ff 	and	r3, r0, #255	; 0xff
  a0:	e58d3008 	str	r3, [sp, #8]
  a4:	e1a03007 	mov	r3, r7
  a8:	e1a00004 	mov	r0, r4
  ac:	e1a02006 	mov	r2, r6
  b0:	e1a01005 	mov	r1, r5
  b4:	e1cd80f0 	strd	r8, [sp]
  b8:	ebfffffe 	bl	0 <MRF_DrawRect>
  bc:	e3a00000 	mov	r0, #0
  c0:	e8bd8ffe 	pop	{r1, r2, r3, r4, r5, r6, r7, r8, r9, sl, fp, pc}

Disassembly of section i.MRF_DrawPoint:

00000000 <MRF_DrawPoint>:
   0:	e92d41f0 	push	{r4, r5, r6, r7, r8, lr}
   4:	e1a08000 	mov	r8, r0
   8:	e3a02000 	mov	r2, #0
   c:	e3a01001 	mov	r1, #1
  10:	ebfffffe 	bl	0 <to_mr_tonumber>
  14:	e1a04800 	lsl	r4, r0, #16
  18:	e1a04844 	asr	r4, r4, #16
  1c:	e1a00008 	mov	r0, r8
  20:	e3a02000 	mov	r2, #0
  24:	e3a01002 	mov	r1, #2
  28:	ebfffffe 	bl	0 <to_mr_tonumber>
  2c:	e1a05800 	lsl	r5, r0, #16
  30:	e1a05845 	asr	r5, r5, #16
  34:	e1a00008 	mov	r0, r8
  38:	e3a02000 	mov	r2, #0
  3c:	e3a01003 	mov	r1, #3
  40:	ebfffffe 	bl	0 <to_mr_tonumber>
  44:	e20060ff 	and	r6, r0, #255	; 0xff
  48:	e1a00008 	mov	r0, r8
  4c:	e3a02000 	mov	r2, #0
  50:	e3a01004 	mov	r1, #4
  54:	ebfffffe 	bl	0 <to_mr_tonumber>
  58:	e20070ff 	and	r7, r0, #255	; 0xff
  5c:	e1a00008 	mov	r0, r8
  60:	e3a02000 	mov	r2, #0
  64:	e3a01005 	mov	r1, #5
  68:	ebfffffe 	bl	0 <to_mr_tonumber>
  6c:	e1a011a6 	lsr	r1, r6, #3
  70:	e1a01581 	lsl	r1, r1, #11
  74:	e1a02127 	lsr	r2, r7, #2
  78:	e0811282 	add	r1, r1, r2, lsl #5
  7c:	e20000ff 	and	r0, r0, #255	; 0xff
  80:	e08101a0 	add	r0, r1, r0, lsr #3
  84:	e3c02803 	bic	r2, r0, #196608	; 0x30000
  88:	e1a00004 	mov	r0, r4
  8c:	e1a01005 	mov	r1, r5
  90:	ebfffffe 	bl	0 <MRF_DrawPoint>
  94:	e3a00000 	mov	r0, #0
  98:	e8bd81f0 	pop	{r4, r5, r6, r7, r8, pc}

Disassembly of section i.MRF_DrawLine:

00000000 <MRF_DrawLine>:
   0:	e92d4ff8 	push	{r3, r4, r5, r6, r7, r8, r9, sl, fp, lr}
   4:	e1a09000 	mov	r9, r0
   8:	e3a02000 	mov	r2, #0
   c:	e3a01001 	mov	r1, #1
  10:	ebfffffe 	bl	0 <to_mr_tonumber>
  14:	e1a05800 	lsl	r5, r0, #16
  18:	e1a05845 	asr	r5, r5, #16
  1c:	e1a00009 	mov	r0, r9
  20:	e3a02000 	mov	r2, #0
  24:	e3a01002 	mov	r1, #2
  28:	ebfffffe 	bl	0 <to_mr_tonumber>
  2c:	e1a07800 	lsl	r7, r0, #16
  30:	e1a07847 	asr	r7, r7, #16
  34:	e1a00009 	mov	r0, r9
  38:	e3a02000 	mov	r2, #0
  3c:	e3a01003 	mov	r1, #3
  40:	ebfffffe 	bl	0 <to_mr_tonumber>
  44:	e1a06800 	lsl	r6, r0, #16
  48:	e1a06846 	asr	r6, r6, #16
  4c:	e1a00009 	mov	r0, r9
  50:	e3a02000 	mov	r2, #0
  54:	e3a01004 	mov	r1, #4
  58:	ebfffffe 	bl	0 <to_mr_tonumber>
  5c:	e1a04800 	lsl	r4, r0, #16
  60:	e1a04844 	asr	r4, r4, #16
  64:	e1a00009 	mov	r0, r9
  68:	e3a02000 	mov	r2, #0
  6c:	e3a01005 	mov	r1, #5
  70:	ebfffffe 	bl	0 <to_mr_tonumber>
  74:	e20080ff 	and	r8, r0, #255	; 0xff
  78:	e1a00009 	mov	r0, r9
  7c:	e3a02000 	mov	r2, #0
  80:	e3a01006 	mov	r1, #6
  84:	ebfffffe 	bl	0 <to_mr_tonumber>
  88:	e200a0ff 	and	sl, r0, #255	; 0xff
  8c:	e1a00009 	mov	r0, r9
  90:	e3a02000 	mov	r2, #0
  94:	e3a01007 	mov	r1, #7
  98:	ebfffffe 	bl	0 <to_mr_tonumber>
  9c:	e1a011a8 	lsr	r1, r8, #3
  a0:	e1a01581 	lsl	r1, r1, #11
  a4:	e1a0212a 	lsr	r2, sl, #2
  a8:	e0811282 	add	r1, r1, r2, lsl #5
  ac:	e20000ff 	and	r0, r0, #255	; 0xff
  b0:	e08101a0 	add	r0, r1, r0, lsr #3
  b4:	e3c00803 	bic	r0, r0, #196608	; 0x30000
  b8:	e58d0000 	str	r0, [sp]
  bc:	e0560005 	subs	r0, r6, r5
  c0:	42600000 	rsbmi	r0, r0, #0
  c4:	e0441007 	sub	r1, r4, r7
  c8:	e3510000 	cmp	r1, #0
  cc:	b2611000 	rsblt	r1, r1, #0
  d0:	e1500001 	cmp	r0, r1
  d4:	e3a09000 	mov	r9, #0
  d8:	aa000006 	bge	f8 <MRF_DrawLine+0xf8>
  dc:	e1a00005 	mov	r0, r5
  e0:	e1a05007 	mov	r5, r7
  e4:	e1a07000 	mov	r7, r0
  e8:	e1a00006 	mov	r0, r6
  ec:	e1a06004 	mov	r6, r4
  f0:	e1a04000 	mov	r4, r0
  f4:	e3a09001 	mov	r9, #1
  f8:	e1550006 	cmp	r5, r6
  fc:	c1a00005 	movgt	r0, r5
 100:	c1a05006 	movgt	r5, r6
 104:	c1a06000 	movgt	r6, r0
 108:	c1a00007 	movgt	r0, r7
 10c:	c1a07004 	movgt	r7, r4
 110:	c1a04000 	movgt	r4, r0
 114:	e0441007 	sub	r1, r4, r7
 118:	e1b08081 	lsls	r8, r1, #1
 11c:	42688000 	rsbmi	r8, r8, #0
 120:	e0460005 	sub	r0, r6, r5
 124:	e0484000 	sub	r4, r8, r0
 128:	e3a0a001 	mov	sl, #1
 12c:	43e0a000 	mvnmi	sl, #0
 130:	e044b000 	sub	fp, r4, r0
 134:	ea00000f 	b	178 <MRF_DrawLine+0x178>
 138:	e3590000 	cmp	r9, #0
 13c:	01a00007 	moveq	r0, r7
 140:	11a00005 	movne	r0, r5
 144:	e1a01800 	lsl	r1, r0, #16
 148:	11a00007 	movne	r0, r7
 14c:	01a00005 	moveq	r0, r5
 150:	e1a00800 	lsl	r0, r0, #16
 154:	e59d2000 	ldr	r2, [sp]
 158:	e1a00840 	asr	r0, r0, #16
 15c:	e1a01841 	asr	r1, r1, #16
 160:	ebfffffe 	bl	0 <MRF_DrawLine>
 164:	e3540000 	cmp	r4, #0
 168:	a084400b 	addge	r4, r4, fp
 16c:	b0844008 	addlt	r4, r4, r8
 170:	a087700a 	addge	r7, r7, sl
 174:	e2855001 	add	r5, r5, #1
 178:	e1550006 	cmp	r5, r6
 17c:	daffffed 	ble	138 <MRF_DrawLine+0x138>
 180:	e3a00000 	mov	r0, #0
 184:	e8bd8ff8 	pop	{r3, r4, r5, r6, r7, r8, r9, sl, fp, pc}

Disassembly of section i.MRF_BitmapLoad:

00000000 <MRF_BitmapLoad>:
   0:	e92d4ff1 	push	{r0, r4, r5, r6, r7, r8, r9, sl, fp, lr}
   4:	e24dd010 	sub	sp, sp, #16
   8:	e59d0010 	ldr	r0, [sp, #16]
   c:	e3a02000 	mov	r2, #0
  10:	e3a01001 	mov	r1, #1
  14:	ebfffffe 	bl	0 <to_mr_tonumber>
  18:	e1a01800 	lsl	r1, r0, #16
  1c:	e1a01821 	lsr	r1, r1, #16
  20:	e58d100c 	str	r1, [sp, #12]
  24:	e59d0010 	ldr	r0, [sp, #16]
  28:	e3a01002 	mov	r1, #2
  2c:	e3a02000 	mov	r2, #0
  30:	ebfffffe 	bl	0 <to_mr_tostring>
  34:	e58d0008 	str	r0, [sp, #8]
  38:	e59d0010 	ldr	r0, [sp, #16]
  3c:	e3a02000 	mov	r2, #0
  40:	e3a01003 	mov	r1, #3
  44:	ebfffffe 	bl	0 <to_mr_tonumber>
  48:	e1a09800 	lsl	r9, r0, #16
  4c:	e59d0010 	ldr	r0, [sp, #16]
  50:	e1a09849 	asr	r9, r9, #16
  54:	e3a02000 	mov	r2, #0
  58:	e3a01004 	mov	r1, #4
  5c:	ebfffffe 	bl	0 <to_mr_tonumber>
  60:	e1a07800 	lsl	r7, r0, #16
  64:	e59d0010 	ldr	r0, [sp, #16]
  68:	e1a07847 	asr	r7, r7, #16
  6c:	e3a02000 	mov	r2, #0
  70:	e3a01005 	mov	r1, #5
  74:	ebfffffe 	bl	0 <to_mr_tonumber>
  78:	e1a05800 	lsl	r5, r0, #16
  7c:	e59d0010 	ldr	r0, [sp, #16]
  80:	e1a05825 	lsr	r5, r5, #16
  84:	e3a02000 	mov	r2, #0
  88:	e3a01006 	mov	r1, #6
  8c:	ebfffffe 	bl	0 <to_mr_tonumber>
  90:	e1a08800 	lsl	r8, r0, #16
  94:	e59d0010 	ldr	r0, [sp, #16]
  98:	e1a08828 	lsr	r8, r8, #16
  9c:	e3a02000 	mov	r2, #0
  a0:	e3a01007 	mov	r1, #7
  a4:	ebfffffe 	bl	0 <to_mr_tonumber>
  a8:	e1a0a800 	lsl	sl, r0, #16
  ac:	e0870008 	add	r0, r7, r8
  b0:	e1a0b800 	lsl	fp, r0, #16
  b4:	e59f017c 	ldr	r0, [pc, #380]	; 238 <MRF_BitmapLoad+0x238>
  b8:	e1a0b82b 	lsr	fp, fp, #16
  bc:	e5900008 	ldr	r0, [r0, #8]
  c0:	e1a0a82a 	lsr	sl, sl, #16
  c4:	e3100001 	tst	r0, #1
  c8:	059d2008 	ldreq	r2, [sp, #8]
  cc:	028f1f5a 	addeq	r1, pc, #360	; 0x168
  d0:	0a000004 	beq	e8 <MRF_BitmapLoad+0xe8>
  d4:	e59d100c 	ldr	r1, [sp, #12]
  d8:	e351001e 	cmp	r1, #30
  dc:	9a000006 	bls	fc <MRF_BitmapLoad+0xfc>
  e0:	e59d200c 	ldr	r2, [sp, #12]
  e4:	e28f1f5d 	add	r1, pc, #372	; 0x174
  e8:	e59d0010 	ldr	r0, [sp, #16]
  ec:	ebfffffe 	bl	0 <mrp_pushfstring>
  f0:	e59d0010 	ldr	r0, [sp, #16]
  f4:	ebfffffe 	bl	0 <mrp_error>
  f8:	ea000045 	b	214 <MRF_BitmapLoad+0x214>
  fc:	e59f017c 	ldr	r0, [pc, #380]	; 280 <MRF_BitmapLoad+0x280>
 100:	e59d100c 	ldr	r1, [sp, #12]
 104:	e0804201 	add	r4, r0, r1, lsl #4
 108:	e594000c 	ldr	r0, [r4, #12]
 10c:	e3500000 	cmp	r0, #0
 110:	0a000003 	beq	124 <MRF_BitmapLoad+0x124>
 114:	e5941004 	ldr	r1, [r4, #4]
 118:	ebfffffe 	bl	0 <MRF_BitmapLoad>
 11c:	e3a00000 	mov	r0, #0
 120:	e584000c 	str	r0, [r4, #12]
 124:	e59d0008 	ldr	r0, [sp, #8]
 128:	e5d00000 	ldrb	r0, [r0]
 12c:	e350002a 	cmp	r0, #42	; 0x2a
 130:	0a000037 	beq	214 <MRF_BitmapLoad+0x214>
 134:	e59d0008 	ldr	r0, [sp, #8]
 138:	e3a02000 	mov	r2, #0
 13c:	e28d1004 	add	r1, sp, #4
 140:	ebfffffe 	bl	0 <MRF_BitmapLoad>
 144:	e1b06000 	movs	r6, r0
 148:	059d200c 	ldreq	r2, [sp, #12]
 14c:	059d3008 	ldreq	r3, [sp, #8]
 150:	028f1f4b 	addeq	r1, pc, #300	; 0x12c
 154:	0a00001a 	beq	1c4 <MRF_BitmapLoad+0x1c4>
 158:	e1990007 	orrs	r0, r9, r7
 15c:	e1c450b0 	strh	r5, [r4]
 160:	0155000a 	cmpeq	r5, sl
 164:	e1c480b2 	strh	r8, [r4, #2]
 168:	0584600c 	streq	r6, [r4, #12]
 16c:	059d0004 	ldreq	r0, [sp, #4]
 170:	05840004 	streq	r0, [r4, #4]
 174:	0a000026 	beq	214 <MRF_BitmapLoad+0x214>
 178:	e59d1004 	ldr	r1, [sp, #4]
 17c:	e0000598 	mul	r0, r8, r5
 180:	e1510080 	cmp	r1, r0, lsl #1
 184:	da000025 	ble	220 <MRF_BitmapLoad+0x220>
 188:	e1a08080 	lsl	r8, r0, #1
 18c:	e1a00008 	mov	r0, r8
 190:	ebfffffe 	bl	0 <MRF_BitmapLoad>
 194:	e3500000 	cmp	r0, #0
 198:	11a03807 	lslne	r3, r7, #16
 19c:	e584000c 	str	r0, [r4, #12]
 1a0:	11a03823 	lsrne	r3, r3, #16
 1a4:	15848004 	strne	r8, [r4, #4]
 1a8:	1a000014 	bne	200 <MRF_BitmapLoad+0x200>
 1ac:	e59d1004 	ldr	r1, [sp, #4]
 1b0:	e1a00006 	mov	r0, r6
 1b4:	ebfffffe 	bl	0 <MRF_BitmapLoad>
 1b8:	e59d200c 	ldr	r2, [sp, #12]
 1bc:	e59d3008 	ldr	r3, [sp, #8]
 1c0:	e28f10dc 	add	r1, pc, #220	; 0xdc
 1c4:	e59d0010 	ldr	r0, [sp, #16]
 1c8:	ebfffffe 	bl	0 <mrp_pushfstring>
 1cc:	eaffffc7 	b	f0 <MRF_BitmapLoad+0xf0>
 1d0:	e001039a 	mul	r1, sl, r3
 1d4:	e3a02000 	mov	r2, #0
 1d8:	e0861081 	add	r1, r6, r1, lsl #1
 1dc:	e0811089 	add	r1, r1, r9, lsl #1
 1e0:	e1520005 	cmp	r2, r5
 1e4:	30d1c0b2 	ldrhcc	ip, [r1], #2
 1e8:	32822001 	addcc	r2, r2, #1
 1ec:	33c22801 	biccc	r2, r2, #65536	; 0x10000
 1f0:	30c0c0b2 	strhcc	ip, [r0], #2
 1f4:	3afffff9 	bcc	1e0 <MRF_BitmapLoad+0x1e0>
 1f8:	e2831001 	add	r1, r3, #1
 1fc:	e3c13801 	bic	r3, r1, #65536	; 0x10000
 200:	e153000b 	cmp	r3, fp
 204:	3afffff1 	bcc	1d0 <MRF_BitmapLoad+0x1d0>
 208:	e59d1004 	ldr	r1, [sp, #4]
 20c:	e1a00006 	mov	r0, r6
 210:	ebfffffe 	bl	0 <MRF_BitmapLoad>
 214:	e3a00000 	mov	r0, #0
 218:	e28dd014 	add	sp, sp, #20
 21c:	e8bd8ff0 	pop	{r4, r5, r6, r7, r8, r9, sl, fp, pc}
 220:	e1a00006 	mov	r0, r6
 224:	ebfffffe 	bl	0 <MRF_BitmapLoad>
 228:	e59d200c 	ldr	r2, [sp, #12]
 22c:	e59d3008 	ldr	r3, [sp, #8]
 230:	e28f108c 	add	r1, pc, #140	; 0x8c
 234:	eaffffe2 	b	1c4 <MRF_BitmapLoad+0x1c4>
 238:	00000000 	.word	0x00000000
 23c:	6d746942 	.word	0x6d746942
 240:	6f4c7061 	.word	0x6f4c7061
 244:	633a6461 	.word	0x633a6461
 248:	6f6e6e61 	.word	0x6f6e6e61
 24c:	65722074 	.word	0x65722074
 250:	46206461 	.word	0x46206461
 254:	20656c69 	.word	0x20656c69
 258:	22732522 	.word	0x22732522
 25c:	00000021 	.word	0x00000021
 260:	6d746942 	.word	0x6d746942
 264:	6f4c7061 	.word	0x6f4c7061
 268:	693a6461 	.word	0x693a6461
 26c:	7865646e 	.word	0x7865646e
 270:	20642520 	.word	0x20642520
 274:	61766e69 	.word	0x61766e69
 278:	2164696c 	.word	0x2164696c
 27c:	00000000 	.word	0x00000000
 280:	000000d8 	.word	0x000000d8
 284:	6d746942 	.word	0x6d746942
 288:	6f4c7061 	.word	0x6f4c7061
 28c:	25206461 	.word	0x25206461
 290:	61633a64 	.word	0x61633a64
 294:	746f6e6e 	.word	0x746f6e6e
 298:	61657220 	.word	0x61657220
 29c:	25222064 	.word	0x25222064
 2a0:	00212273 	.word	0x00212273
 2a4:	6d746942 	.word	0x6d746942
 2a8:	6f4c7061 	.word	0x6f4c7061
 2ac:	25206461 	.word	0x25206461
 2b0:	25222064 	.word	0x25222064
 2b4:	4e3a2273 	.word	0x4e3a2273
 2b8:	656d206f 	.word	0x656d206f
 2bc:	79726f6d 	.word	0x79726f6d
 2c0:	00000021 	.word	0x00000021
 2c4:	6d746942 	.word	0x6d746942
 2c8:	6f4c7061 	.word	0x6f4c7061
 2cc:	25206461 	.word	0x25206461
 2d0:	25222064 	.word	0x25222064
 2d4:	6c3a2273 	.word	0x6c3a2273
 2d8:	65206e65 	.word	0x65206e65
 2dc:	00217272 	.word	0x00217272

Disassembly of section i.MRF_BitmapShow:

00000000 <MRF_BitmapShow>:
   0:	e92d4ff0 	push	{r4, r5, r6, r7, r8, r9, sl, fp, lr}
   4:	e24dd01c 	sub	sp, sp, #28
   8:	e1a0b000 	mov	fp, r0
   c:	e3a02000 	mov	r2, #0
  10:	e3a01001 	mov	r1, #1
  14:	ebfffffe 	bl	0 <to_mr_tonumber>
  18:	e1a04800 	lsl	r4, r0, #16
  1c:	e1a04824 	lsr	r4, r4, #16
  20:	e1a0000b 	mov	r0, fp
  24:	e3a02000 	mov	r2, #0
  28:	e3a01002 	mov	r1, #2
  2c:	ebfffffe 	bl	0 <to_mr_tonumber>
  30:	e1a06800 	lsl	r6, r0, #16
  34:	e1a06846 	asr	r6, r6, #16
  38:	e1a0000b 	mov	r0, fp
  3c:	e3a02000 	mov	r2, #0
  40:	e3a01003 	mov	r1, #3
  44:	ebfffffe 	bl	0 <to_mr_tonumber>
  48:	e1a07800 	lsl	r7, r0, #16
  4c:	e1a07847 	asr	r7, r7, #16
  50:	e1a0000b 	mov	r0, fp
  54:	e3a02002 	mov	r2, #2
  58:	e3a01004 	mov	r1, #4
  5c:	ebfffffe 	bl	0 <mr_L_optnumber>
  60:	e1a08800 	lsl	r8, r0, #16
  64:	e1a08828 	lsr	r8, r8, #16
  68:	e1a0000b 	mov	r0, fp
  6c:	e3a02000 	mov	r2, #0
  70:	e3a01005 	mov	r1, #5
  74:	ebfffffe 	bl	0 <mr_L_optnumber>
  78:	e1a09800 	lsl	r9, r0, #16
  7c:	e1a09849 	asr	r9, r9, #16
  80:	e1a0000b 	mov	r0, fp
  84:	e3a02000 	mov	r2, #0
  88:	e3a01006 	mov	r1, #6
  8c:	ebfffffe 	bl	0 <mr_L_optnumber>
  90:	e1a0a800 	lsl	sl, r0, #16
  94:	e1a0a84a 	asr	sl, sl, #16
  98:	e1a0000b 	mov	r0, fp
  9c:	e3e02000 	mvn	r2, #0
  a0:	e3a01007 	mov	r1, #7
  a4:	ebfffffe 	bl	0 <mr_L_optnumber>
  a8:	e1a05800 	lsl	r5, r0, #16
  ac:	e1a05845 	asr	r5, r5, #16
  b0:	e1a0000b 	mov	r0, fp
  b4:	e3e02000 	mvn	r2, #0
  b8:	e3a01008 	mov	r1, #8
  bc:	ebfffffe 	bl	0 <mr_L_optnumber>
  c0:	e354001e 	cmp	r4, #30
  c4:	e1a0e800 	lsl	lr, r0, #16
  c8:	e1a0e84e 	asr	lr, lr, #16
  cc:	81a02004 	movhi	r2, r4
  d0:	828f108c 	addhi	r1, pc, #140	; 0x8c
  d4:	8a000006 	bhi	f4 <MRF_BitmapShow+0xf4>
  d8:	e59f00a4 	ldr	r0, [pc, #164]	; 184 <MRF_BitmapShow+0x184>
  dc:	e0800204 	add	r0, r0, r4, lsl #4
  e0:	e590c00c 	ldr	ip, [r0, #12]
  e4:	e35c0000 	cmp	ip, #0
  e8:	1a000006 	bne	108 <MRF_BitmapShow+0x108>
  ec:	e1a02004 	mov	r2, r4
  f0:	e28f1090 	add	r1, pc, #144	; 0x90
  f4:	e1a0000b 	mov	r0, fp
  f8:	ebfffffe 	bl	0 <mrp_pushfstring>
  fc:	e1a0000b 	mov	r0, fp
 100:	ebfffffe 	bl	0 <mrp_error>
 104:	ea000013 	b	158 <MRF_BitmapShow+0x158>
 108:	e3750001 	cmn	r5, #1
 10c:	01d050b0 	ldrheq	r5, [r0]
 110:	e37e0001 	cmn	lr, #1
 114:	01d0e0b2 	ldrheq	lr, [r0, #2]
 118:	e1d030f0 	ldrsh	r3, [r0]
 11c:	e1dc00b0 	ldrh	r0, [ip]
 120:	e1a04805 	lsl	r4, r5, #16
 124:	e58d3014 	str	r3, [sp, #20]
 128:	e1a0280e 	lsl	r2, lr, #16
 12c:	e1a02822 	lsr	r2, r2, #16
 130:	e1a04844 	asr	r4, r4, #16
 134:	e1a03804 	lsl	r3, r4, #16
 138:	e88d0104 	stm	sp, {r2, r8}
 13c:	e28d4008 	add	r4, sp, #8
 140:	e8840601 	stm	r4, {r0, r9, sl}
 144:	e1a0000c 	mov	r0, ip
 148:	e1a02007 	mov	r2, r7
 14c:	e1a03823 	lsr	r3, r3, #16
 150:	e1a01006 	mov	r1, r6
 154:	ebfffffe 	bl	0 <MRF_BitmapShow>
 158:	e3a00000 	mov	r0, #0
 15c:	e28dd01c 	add	sp, sp, #28
 160:	e8bd8ff0 	pop	{r4, r5, r6, r7, r8, r9, sl, fp, pc}
 164:	6d746942 	.word	0x6d746942
 168:	68537061 	.word	0x68537061
 16c:	693a776f 	.word	0x693a776f
 170:	7865646e 	.word	0x7865646e
 174:	20642520 	.word	0x20642520
 178:	61766e69 	.word	0x61766e69
 17c:	2164696c 	.word	0x2164696c
 180:	00000000 	.word	0x00000000
 184:	000000d8 	.word	0x000000d8
 188:	6d746942 	.word	0x6d746942
 18c:	68537061 	.word	0x68537061
 190:	2520776f 	.word	0x2520776f
 194:	69623a64 	.word	0x69623a64
 198:	70616d74 	.word	0x70616d74
 19c:	20736920 	.word	0x20736920
 1a0:	216c696e 	.word	0x216c696e
 1a4:	00000000 	.word	0x00000000

Disassembly of section i.MRF_BitmapShowEx:

00000000 <MRF_BitmapShowEx>:
   0:	e92d4ff1 	push	{r0, r4, r5, r6, r7, r8, r9, sl, fp, lr}
   4:	e24dd018 	sub	sp, sp, #24
   8:	e59d0018 	ldr	r0, [sp, #24]
   c:	e3a01001 	mov	r1, #1
  10:	ebfffffe 	bl	0 <mrp_tonumber>
  14:	e1a04000 	mov	r4, r0
  18:	e59d0018 	ldr	r0, [sp, #24]
  1c:	e3a01002 	mov	r1, #2
  20:	ebfffffe 	bl	0 <mrp_tonumber>
  24:	e1a05800 	lsl	r5, r0, #16
  28:	e59d0018 	ldr	r0, [sp, #24]
  2c:	e1a05845 	asr	r5, r5, #16
  30:	e3a01003 	mov	r1, #3
  34:	ebfffffe 	bl	0 <mrp_tonumber>
  38:	e1a06800 	lsl	r6, r0, #16
  3c:	e59d0018 	ldr	r0, [sp, #24]
  40:	e1a06846 	asr	r6, r6, #16
  44:	e3a01004 	mov	r1, #4
  48:	ebfffffe 	bl	0 <mrp_tonumber>
  4c:	e1a07800 	lsl	r7, r0, #16
  50:	e59d0018 	ldr	r0, [sp, #24]
  54:	e1a07847 	asr	r7, r7, #16
  58:	e3a01005 	mov	r1, #5
  5c:	ebfffffe 	bl	0 <mrp_tonumber>
  60:	e1a0a000 	mov	sl, r0
  64:	e59d0018 	ldr	r0, [sp, #24]
  68:	e3a01006 	mov	r1, #6
  6c:	ebfffffe 	bl	0 <mrp_tonumber>
  70:	e1a0b000 	mov	fp, r0
  74:	e59d0018 	ldr	r0, [sp, #24]
  78:	e3a02002 	mov	r2, #2
  7c:	e3a01007 	mov	r1, #7
  80:	ebfffffe 	bl	0 <mr_L_optnumber>
  84:	e1a08800 	lsl	r8, r0, #16
  88:	e59d0018 	ldr	r0, [sp, #24]
  8c:	e1a08828 	lsr	r8, r8, #16
  90:	e3a02000 	mov	r2, #0
  94:	e3a01008 	mov	r1, #8
  98:	ebfffffe 	bl	0 <mr_L_optnumber>
  9c:	e1a09800 	lsl	r9, r0, #16
  a0:	e59d0018 	ldr	r0, [sp, #24]
  a4:	e1a09849 	asr	r9, r9, #16
  a8:	e3a02000 	mov	r2, #0
  ac:	e3a01009 	mov	r1, #9
  b0:	ebfffffe 	bl	0 <mr_L_optnumber>
  b4:	e1a02800 	lsl	r2, r0, #16
  b8:	e1d400b0 	ldrh	r0, [r4]
  bc:	e1a02842 	asr	r2, r2, #16
  c0:	e58d2010 	str	r2, [sp, #16]
  c4:	e1a0280b 	lsl	r2, fp, #16
  c8:	e1a02822 	lsr	r2, r2, #16
  cc:	e58d7014 	str	r7, [sp, #20]
  d0:	e88d0104 	stm	sp, {r2, r8}
  d4:	e1a0380a 	lsl	r3, sl, #16
  d8:	e58d0008 	str	r0, [sp, #8]
  dc:	e1a00004 	mov	r0, r4
  e0:	e1a03823 	lsr	r3, r3, #16
  e4:	e1a02006 	mov	r2, r6
  e8:	e1a01005 	mov	r1, r5
  ec:	e58d900c 	str	r9, [sp, #12]
  f0:	ebfffffe 	bl	0 <MRF_BitmapShowEx>
  f4:	e3a00000 	mov	r0, #0
  f8:	e28dd01c 	add	sp, sp, #28
  fc:	e8bd8ff0 	pop	{r4, r5, r6, r7, r8, r9, sl, fp, pc}

Disassembly of section i.MRF_BitmapNew:

00000000 <MRF_BitmapNew>:
   0:	e92d47f0 	push	{r4, r5, r6, r7, r8, r9, sl, lr}
   4:	e1a0a000 	mov	sl, r0
   8:	e3a02000 	mov	r2, #0
   c:	e3a01001 	mov	r1, #1
  10:	ebfffffe 	bl	0 <to_mr_tonumber>
  14:	e1a05800 	lsl	r5, r0, #16
  18:	e1a05825 	lsr	r5, r5, #16
  1c:	e1a0000a 	mov	r0, sl
  20:	e3a02000 	mov	r2, #0
  24:	e3a01002 	mov	r1, #2
  28:	ebfffffe 	bl	0 <to_mr_tonumber>
  2c:	e1a06800 	lsl	r6, r0, #16
  30:	e1a06826 	lsr	r6, r6, #16
  34:	e1a0000a 	mov	r0, sl
  38:	e3a02000 	mov	r2, #0
  3c:	e3a01003 	mov	r1, #3
  40:	ebfffffe 	bl	0 <to_mr_tonumber>
  44:	e355001e 	cmp	r5, #30
  48:	e1a07800 	lsl	r7, r0, #16
  4c:	e1a07827 	lsr	r7, r7, #16
  50:	81a02005 	movhi	r2, r5
  54:	828f1084 	addhi	r1, pc, #132	; 0x84
  58:	8a000013 	bhi	ac <MRF_BitmapNew+0xac>
  5c:	e59f0098 	ldr	r0, [pc, #152]	; fc <MRF_BitmapNew+0xfc>
  60:	e0080697 	mul	r8, r7, r6
  64:	e0804205 	add	r4, r0, r5, lsl #4
  68:	e5941004 	ldr	r1, [r4, #4]
  6c:	e1510088 	cmp	r1, r8, lsl #1
  70:	0a000015 	beq	cc <MRF_BitmapNew+0xcc>
  74:	e594000c 	ldr	r0, [r4, #12]
  78:	e3500000 	cmp	r0, #0
  7c:	0a000002 	beq	8c <MRF_BitmapNew+0x8c>
  80:	ebfffffe 	bl	0 <MRF_BitmapNew>
  84:	e3a00000 	mov	r0, #0
  88:	e584000c 	str	r0, [r4, #12]
  8c:	e1a09088 	lsl	r9, r8, #1
  90:	e1a00009 	mov	r0, r9
  94:	ebfffffe 	bl	0 <MRF_BitmapNew>
  98:	e3500000 	cmp	r0, #0
  9c:	e584000c 	str	r0, [r4, #12]
  a0:	1a000007 	bne	c4 <MRF_BitmapNew+0xc4>
  a4:	e1a02005 	mov	r2, r5
  a8:	e28f1050 	add	r1, pc, #80	; 0x50
  ac:	e1a0000a 	mov	r0, sl
  b0:	ebfffffe 	bl	0 <mrp_pushfstring>
  b4:	e1a0000a 	mov	r0, sl
  b8:	ebfffffe 	bl	0 <mrp_error>
  bc:	e3a00000 	mov	r0, #0
  c0:	e8bd87f0 	pop	{r4, r5, r6, r7, r8, r9, sl, pc}
  c4:	e1a01009 	mov	r1, r9
  c8:	ebfffffe 	bl	0 <__aeabi_memclr>
  cc:	e1a00088 	lsl	r0, r8, #1
  d0:	e5840004 	str	r0, [r4, #4]
  d4:	e1c460b0 	strh	r6, [r4]
  d8:	e1c470b2 	strh	r7, [r4, #2]
  dc:	eafffff6 	b	bc <MRF_BitmapNew+0xbc>
  e0:	6d746942 	.word	0x6d746942
  e4:	654e7061 	.word	0x654e7061
  e8:	6e693a77 	.word	0x6e693a77
  ec:	20786564 	.word	0x20786564
  f0:	69206425 	.word	0x69206425
  f4:	6c61766e 	.word	0x6c61766e
  f8:	00216469 	.word	0x00216469
  fc:	000000d8 	.word	0x000000d8
 100:	6d746942 	.word	0x6d746942
 104:	654e7061 	.word	0x654e7061
 108:	64252077 	.word	0x64252077
 10c:	6f4e3a20 	.word	0x6f4e3a20
 110:	6d656d20 	.word	0x6d656d20
 114:	2179726f 	.word	0x2179726f
 118:	00000000 	.word	0x00000000

Disassembly of section i.MRF_BitmapDraw:

00000000 <MRF_BitmapDraw>:
   0:	e92d4ff1 	push	{r0, r4, r5, r6, r7, r8, r9, sl, fp, lr}
   4:	e24dd040 	sub	sp, sp, #64	; 0x40
   8:	e59d0040 	ldr	r0, [sp, #64]	; 0x40
   c:	e3a02000 	mov	r2, #0
  10:	e3a01001 	mov	r1, #1
  14:	ebfffffe 	bl	0 <to_mr_tonumber>
  18:	e1a04800 	lsl	r4, r0, #16
  1c:	e59d0040 	ldr	r0, [sp, #64]	; 0x40
  20:	e1a04824 	lsr	r4, r4, #16
  24:	e3a02000 	mov	r2, #0
  28:	e3a01002 	mov	r1, #2
  2c:	ebfffffe 	bl	0 <to_mr_tonumber>
  30:	e1a02800 	lsl	r2, r0, #16
  34:	e1a02842 	asr	r2, r2, #16
  38:	e58d203c 	str	r2, [sp, #60]	; 0x3c
  3c:	e59d0040 	ldr	r0, [sp, #64]	; 0x40
  40:	e3a02000 	mov	r2, #0
  44:	e3a01003 	mov	r1, #3
  48:	ebfffffe 	bl	0 <to_mr_tonumber>
  4c:	e1a02800 	lsl	r2, r0, #16
  50:	e1a02842 	asr	r2, r2, #16
  54:	e58d2038 	str	r2, [sp, #56]	; 0x38
  58:	e59d0040 	ldr	r0, [sp, #64]	; 0x40
  5c:	e3a02000 	mov	r2, #0
  60:	e3a01004 	mov	r1, #4
  64:	ebfffffe 	bl	0 <to_mr_tonumber>
  68:	e1a05800 	lsl	r5, r0, #16
  6c:	e59d0040 	ldr	r0, [sp, #64]	; 0x40
  70:	e1a05825 	lsr	r5, r5, #16
  74:	e3a02000 	mov	r2, #0
  78:	e3a01005 	mov	r1, #5
  7c:	ebfffffe 	bl	0 <to_mr_tonumber>
  80:	e1a06800 	lsl	r6, r0, #16
  84:	e59d0040 	ldr	r0, [sp, #64]	; 0x40
  88:	e1a06846 	asr	r6, r6, #16
  8c:	e3a02000 	mov	r2, #0
  90:	e3a01006 	mov	r1, #6
  94:	ebfffffe 	bl	0 <to_mr_tonumber>
  98:	e1a07800 	lsl	r7, r0, #16
  9c:	e59d0040 	ldr	r0, [sp, #64]	; 0x40
  a0:	e1a07847 	asr	r7, r7, #16
  a4:	e3a02000 	mov	r2, #0
  a8:	e3a01007 	mov	r1, #7
  ac:	ebfffffe 	bl	0 <to_mr_tonumber>
  b0:	e1a00800 	lsl	r0, r0, #16
  b4:	e1a00820 	lsr	r0, r0, #16
  b8:	e58d0034 	str	r0, [sp, #52]	; 0x34
  bc:	e59d0040 	ldr	r0, [sp, #64]	; 0x40
  c0:	e3a02000 	mov	r2, #0
  c4:	e3a01008 	mov	r1, #8
  c8:	ebfffffe 	bl	0 <to_mr_tonumber>
  cc:	e1a00800 	lsl	r0, r0, #16
  d0:	e1a00820 	lsr	r0, r0, #16
  d4:	e58d0030 	str	r0, [sp, #48]	; 0x30
  d8:	e59d0040 	ldr	r0, [sp, #64]	; 0x40
  dc:	e3a02000 	mov	r2, #0
  e0:	e3a01009 	mov	r1, #9
  e4:	ebfffffe 	bl	0 <to_mr_tonumber>
  e8:	e1a08800 	lsl	r8, r0, #16
  ec:	e59d0040 	ldr	r0, [sp, #64]	; 0x40
  f0:	e1a08848 	asr	r8, r8, #16
  f4:	e3a02000 	mov	r2, #0
  f8:	e3a0100a 	mov	r1, #10
  fc:	ebfffffe 	bl	0 <to_mr_tonumber>
 100:	e1a09800 	lsl	r9, r0, #16
 104:	e59d0040 	ldr	r0, [sp, #64]	; 0x40
 108:	e1a09849 	asr	r9, r9, #16
 10c:	e3a02000 	mov	r2, #0
 110:	e3a0100b 	mov	r1, #11
 114:	ebfffffe 	bl	0 <to_mr_tonumber>
 118:	e1a0a800 	lsl	sl, r0, #16
 11c:	e59d0040 	ldr	r0, [sp, #64]	; 0x40
 120:	e1a0a84a 	asr	sl, sl, #16
 124:	e3a02000 	mov	r2, #0
 128:	e3a0100c 	mov	r1, #12
 12c:	ebfffffe 	bl	0 <to_mr_tonumber>
 130:	e1a0b800 	lsl	fp, r0, #16
 134:	e59d0040 	ldr	r0, [sp, #64]	; 0x40
 138:	e1a0b84b 	asr	fp, fp, #16
 13c:	e3a02002 	mov	r2, #2
 140:	e3a0100d 	mov	r1, #13
 144:	ebfffffe 	bl	0 <to_mr_tonumber>
 148:	e355001e 	cmp	r5, #30
 14c:	e1a0c800 	lsl	ip, r0, #16
 150:	9354001e 	cmpls	r4, #30
 154:	e1a0c82c 	lsr	ip, ip, #16
 158:	9a000007 	bls	17c <MRF_BitmapDraw+0x17c>
 15c:	e59d0040 	ldr	r0, [sp, #64]	; 0x40
 160:	e1a03005 	mov	r3, r5
 164:	e1a02004 	mov	r2, r4
 168:	e28f10ac 	add	r1, pc, #172	; 0xac
 16c:	ebfffffe 	bl	0 <mrp_pushfstring>
 170:	e59d0040 	ldr	r0, [sp, #64]	; 0x40
 174:	ebfffffe 	bl	0 <mrp_error>
 178:	ea000024 	b	210 <MRF_BitmapDraw+0x210>
 17c:	e59f20bc 	ldr	r2, [pc, #188]	; 240 <MRF_BitmapDraw+0x240>
 180:	e0820205 	add	r0, r2, r5, lsl #4
 184:	e590100c 	ldr	r1, [r0, #12]
 188:	e3510000 	cmp	r1, #0
 18c:	10822204 	addne	r2, r2, r4, lsl #4
 190:	1592300c 	ldrne	r3, [r2, #12]
 194:	13530000 	cmpne	r3, #0
 198:	0affffef 	beq	15c <MRF_BitmapDraw+0x15c>
 19c:	e1cd82b4 	strh	r8, [sp, #36]	; 0x24
 1a0:	e1cda2b8 	strh	sl, [sp, #40]	; 0x28
 1a4:	e1cdb2ba 	strh	fp, [sp, #42]	; 0x2a
 1a8:	e1cd92b6 	strh	r9, [sp, #38]	; 0x26
 1ac:	e1cdc2bc 	strh	ip, [sp, #44]	; 0x2c
 1b0:	e1d2c0b0 	ldrh	ip, [r2]
 1b4:	e1cdc1b0 	strh	ip, [sp, #16]
 1b8:	e1d220b2 	ldrh	r2, [r2, #2]
 1bc:	e58d300c 	str	r3, [sp, #12]
 1c0:	e1cd21b2 	strh	r2, [sp, #18]
 1c4:	e59d203c 	ldr	r2, [sp, #60]	; 0x3c
 1c8:	e1cd21b4 	strh	r2, [sp, #20]
 1cc:	e59d2038 	ldr	r2, [sp, #56]	; 0x38
 1d0:	e1cd21b6 	strh	r2, [sp, #22]
 1d4:	e1d020b0 	ldrh	r2, [r0]
 1d8:	e1cd21bc 	strh	r2, [sp, #28]
 1dc:	e1d000b2 	ldrh	r0, [r0, #2]
 1e0:	e1cd62b0 	strh	r6, [sp, #32]
 1e4:	e1cd72b2 	strh	r7, [sp, #34]	; 0x22
 1e8:	e1cd01be 	strh	r0, [sp, #30]
 1ec:	e58d1018 	str	r1, [sp, #24]
 1f0:	e1d130b0 	ldrh	r3, [r1]
 1f4:	e28d2024 	add	r2, sp, #36	; 0x24
 1f8:	e1cd20f0 	strd	r2, [sp]
 1fc:	e59d3030 	ldr	r3, [sp, #48]	; 0x30
 200:	e59d2034 	ldr	r2, [sp, #52]	; 0x34
 204:	e28d100c 	add	r1, sp, #12
 208:	e28d0018 	add	r0, sp, #24
 20c:	ebfffffe 	bl	0 <MRF_BitmapDraw>
 210:	e3a00000 	mov	r0, #0
 214:	e28dd044 	add	sp, sp, #68	; 0x44
 218:	e8bd8ff0 	pop	{r4, r5, r6, r7, r8, r9, sl, fp, pc}
 21c:	6d746942 	.word	0x6d746942
 220:	72447061 	.word	0x72447061
 224:	693a7761 	.word	0x693a7761
 228:	7865646e 	.word	0x7865646e
 22c:	20642520 	.word	0x20642520
 230:	2520726f 	.word	0x2520726f
 234:	6e692064 	.word	0x6e692064
 238:	696c6176 	.word	0x696c6176
 23c:	00002164 	.word	0x00002164
 240:	000000d8 	.word	0x000000d8

Disassembly of section i.MRF_BitmapInfo:

00000000 <MRF_BitmapInfo>:
   0:	e92d4070 	push	{r4, r5, r6, lr}
   4:	e1a05000 	mov	r5, r0
   8:	e3a02000 	mov	r2, #0
   c:	e3a01001 	mov	r1, #1
  10:	ebfffffe 	bl	0 <to_mr_tonumber>
  14:	e1a02800 	lsl	r2, r0, #16
  18:	e1a02822 	lsr	r2, r2, #16
  1c:	e352001e 	cmp	r2, #30
  20:	9a000006 	bls	40 <MRF_BitmapInfo+0x40>
  24:	e28f1060 	add	r1, pc, #96	; 0x60
  28:	e1a00005 	mov	r0, r5
  2c:	ebfffffe 	bl	0 <mrp_pushfstring>
  30:	e1a00005 	mov	r0, r5
  34:	ebfffffe 	bl	0 <mrp_error>
  38:	e3a00000 	mov	r0, #0
  3c:	e8bd8070 	pop	{r4, r5, r6, pc}
  40:	e59f0068 	ldr	r0, [pc, #104]	; b0 <MRF_BitmapInfo+0xb0>
  44:	e0804202 	add	r4, r0, r2, lsl #4
  48:	e594100c 	ldr	r1, [r4, #12]
  4c:	e1a00005 	mov	r0, r5
  50:	ebfffffe 	bl	0 <mrp_pushnumber>
  54:	e5941004 	ldr	r1, [r4, #4]
  58:	e1a00005 	mov	r0, r5
  5c:	ebfffffe 	bl	0 <mrp_pushnumber>
  60:	e1d410b0 	ldrh	r1, [r4]
  64:	e1a00005 	mov	r0, r5
  68:	ebfffffe 	bl	0 <mrp_pushnumber>
  6c:	e1d410b2 	ldrh	r1, [r4, #2]
  70:	e1a00005 	mov	r0, r5
  74:	ebfffffe 	bl	0 <mrp_pushnumber>
  78:	e5941008 	ldr	r1, [r4, #8]
  7c:	e1a00005 	mov	r0, r5
  80:	ebfffffe 	bl	0 <mrp_pushnumber>
  84:	e3a00005 	mov	r0, #5
  88:	e8bd8070 	pop	{r4, r5, r6, pc}
  8c:	5f46524d 	.word	0x5f46524d
  90:	6d746942 	.word	0x6d746942
  94:	6e497061 	.word	0x6e497061
  98:	693a6f66 	.word	0x693a6f66
  9c:	7865646e 	.word	0x7865646e
  a0:	20642520 	.word	0x20642520
  a4:	61766e69 	.word	0x61766e69
  a8:	2164696c 	.word	0x2164696c
  ac:	00000000 	.word	0x00000000
  b0:	000000d8 	.word	0x000000d8

Disassembly of section i.MRF_SpriteSet:

00000000 <MRF_SpriteSet>:
   0:	e92d4070 	push	{r4, r5, r6, lr}
   4:	e1a05000 	mov	r5, r0
   8:	e3a02000 	mov	r2, #0
   c:	e3a01001 	mov	r1, #1
  10:	ebfffffe 	bl	0 <to_mr_tonumber>
  14:	e1a04800 	lsl	r4, r0, #16
  18:	e1a04824 	lsr	r4, r4, #16
  1c:	e1a00005 	mov	r0, r5
  20:	e3a02000 	mov	r2, #0
  24:	e3a01002 	mov	r1, #2
  28:	ebfffffe 	bl	0 <to_mr_tonumber>
  2c:	e354000a 	cmp	r4, #10
  30:	359f1030 	ldrcc	r1, [pc, #48]	; 68 <MRF_SpriteSet+0x68>
  34:	e1a00800 	lsl	r0, r0, #16
  38:	e1a00820 	lsr	r0, r0, #16
  3c:	30811084 	addcc	r1, r1, r4, lsl #1
  40:	31c100b0 	strhcc	r0, [r1]
  44:	3a000005 	bcc	60 <MRF_SpriteSet+0x60>
  48:	e1a02004 	mov	r2, r4
  4c:	e28f1018 	add	r1, pc, #24
  50:	e1a00005 	mov	r0, r5
  54:	ebfffffe 	bl	0 <mrp_pushfstring>
  58:	e1a00005 	mov	r0, r5
  5c:	ebfffffe 	bl	0 <mrp_error>
  60:	e3a00000 	mov	r0, #0
  64:	e8bd8070 	pop	{r4, r5, r6, pc}
  68:	0000034c 	.word	0x0000034c
  6c:	69727053 	.word	0x69727053
  70:	65536574 	.word	0x65536574
  74:	6e693a74 	.word	0x6e693a74
  78:	20786564 	.word	0x20786564
  7c:	69206425 	.word	0x69206425
  80:	6c61766e 	.word	0x6c61766e
  84:	00216469 	.word	0x00216469

Disassembly of section i.MRF_SpriteDraw:

00000000 <MRF_SpriteDraw>:
   0:	e92d43f0 	push	{r4, r5, r6, r7, r8, r9, lr}
   4:	e24dd01c 	sub	sp, sp, #28
   8:	e1a08000 	mov	r8, r0
   c:	e3a02000 	mov	r2, #0
  10:	e3a01001 	mov	r1, #1
  14:	ebfffffe 	bl	0 <to_mr_tonumber>
  18:	e1a04800 	lsl	r4, r0, #16
  1c:	e1a04824 	lsr	r4, r4, #16
  20:	e1a00008 	mov	r0, r8
  24:	e3a02000 	mov	r2, #0
  28:	e3a01002 	mov	r1, #2
  2c:	ebfffffe 	bl	0 <to_mr_tonumber>
  30:	e1a05800 	lsl	r5, r0, #16
  34:	e1a05825 	lsr	r5, r5, #16
  38:	e1a00008 	mov	r0, r8
  3c:	e3a02000 	mov	r2, #0
  40:	e3a01003 	mov	r1, #3
  44:	ebfffffe 	bl	0 <to_mr_tonumber>
  48:	e1a06800 	lsl	r6, r0, #16
  4c:	e1a06846 	asr	r6, r6, #16
  50:	e1a00008 	mov	r0, r8
  54:	e3a02000 	mov	r2, #0
  58:	e3a01004 	mov	r1, #4
  5c:	ebfffffe 	bl	0 <to_mr_tonumber>
  60:	e1a07800 	lsl	r7, r0, #16
  64:	e1a07847 	asr	r7, r7, #16
  68:	e1a00008 	mov	r0, r8
  6c:	e3a02006 	mov	r2, #6
  70:	e3a01005 	mov	r1, #5
  74:	ebfffffe 	bl	0 <to_mr_tonumber>
  78:	e354000a 	cmp	r4, #10
  7c:	e1a09800 	lsl	r9, r0, #16
  80:	e1a09829 	lsr	r9, r9, #16
  84:	21a02004 	movcs	r2, r4
  88:	228f1080 	addcs	r1, pc, #128	; 0x80
  8c:	2a000006 	bcs	ac <MRF_SpriteDraw+0xac>
  90:	e59f0098 	ldr	r0, [pc, #152]	; 130 <MRF_SpriteDraw+0x130>
  94:	e080c204 	add	ip, r0, r4, lsl #4
  98:	e59ce00c 	ldr	lr, [ip, #12]
  9c:	e35e0000 	cmp	lr, #0
  a0:	1a000006 	bne	c0 <MRF_SpriteDraw+0xc0>
  a4:	e1a02004 	mov	r2, r4
  a8:	e28f1084 	add	r1, pc, #132	; 0x84
  ac:	e1a00008 	mov	r0, r8
  b0:	ebfffffe 	bl	0 <mrp_pushfstring>
  b4:	e1a00008 	mov	r0, r8
  b8:	ebfffffe 	bl	0 <mrp_error>
  bc:	ea000010 	b	104 <MRF_SpriteDraw+0x104>
  c0:	e1de00b0 	ldrh	r0, [lr]
  c4:	e1dc30f0 	ldrsh	r3, [ip]
  c8:	e3a02000 	mov	r2, #0
  cc:	e3a01000 	mov	r1, #0
  d0:	e28d8008 	add	r8, sp, #8
  d4:	e888000f 	stm	r8, {r0, r1, r2, r3}
  d8:	e59f0074 	ldr	r0, [pc, #116]	; 154 <MRF_SpriteDraw+0x154>
  dc:	e1a02007 	mov	r2, r7
  e0:	e0800084 	add	r0, r0, r4, lsl #1
  e4:	e1d000b0 	ldrh	r0, [r0]
  e8:	e88d0201 	stm	sp, {r0, r9}
  ec:	e1dc30b0 	ldrh	r3, [ip]
  f0:	e0010395 	mul	r1, r5, r3
  f4:	e0000091 	mul	r0, r1, r0
  f8:	e1a01006 	mov	r1, r6
  fc:	e08e0080 	add	r0, lr, r0, lsl #1
 100:	ebfffffe 	bl	0 <MRF_SpriteDraw>
 104:	e3a00000 	mov	r0, #0
 108:	e28dd01c 	add	sp, sp, #28
 10c:	e8bd83f0 	pop	{r4, r5, r6, r7, r8, r9, pc}
 110:	69727053 	.word	0x69727053
 114:	72446574 	.word	0x72446574
 118:	693a7761 	.word	0x693a7761
 11c:	7865646e 	.word	0x7865646e
 120:	20642520 	.word	0x20642520
 124:	61766e69 	.word	0x61766e69
 128:	2164696c 	.word	0x2164696c
 12c:	00000000 	.word	0x00000000
 130:	000000d8 	.word	0x000000d8
 134:	69727053 	.word	0x69727053
 138:	72446574 	.word	0x72446574
 13c:	533a7761 	.word	0x533a7761
 140:	74697270 	.word	0x74697270
 144:	64252065 	.word	0x64252065
 148:	20736920 	.word	0x20736920
 14c:	216c696e 	.word	0x216c696e
 150:	00000000 	.word	0x00000000
 154:	0000034c 	.word	0x0000034c

Disassembly of section i.MRF_SpriteDrawEx:

00000000 <MRF_SpriteDrawEx>:
   0:	e92d4ff0 	push	{r4, r5, r6, r7, r8, r9, sl, fp, lr}
   4:	e24dd02c 	sub	sp, sp, #44	; 0x2c
   8:	e1a0b000 	mov	fp, r0
   c:	e3a02000 	mov	r2, #0
  10:	e3a01001 	mov	r1, #1
  14:	ebfffffe 	bl	0 <to_mr_tonumber>
  18:	e1a04800 	lsl	r4, r0, #16
  1c:	e1a04824 	lsr	r4, r4, #16
  20:	e1a0000b 	mov	r0, fp
  24:	e3a02000 	mov	r2, #0
  28:	e3a01002 	mov	r1, #2
  2c:	ebfffffe 	bl	0 <to_mr_tonumber>
  30:	e1a07800 	lsl	r7, r0, #16
  34:	e1a07827 	lsr	r7, r7, #16
  38:	e1a0000b 	mov	r0, fp
  3c:	e3a02000 	mov	r2, #0
  40:	e3a01003 	mov	r1, #3
  44:	ebfffffe 	bl	0 <to_mr_tonumber>
  48:	e1a05800 	lsl	r5, r0, #16
  4c:	e1a05845 	asr	r5, r5, #16
  50:	e1a0000b 	mov	r0, fp
  54:	e3a02000 	mov	r2, #0
  58:	e3a01004 	mov	r1, #4
  5c:	ebfffffe 	bl	0 <to_mr_tonumber>
  60:	e1a06800 	lsl	r6, r0, #16
  64:	e1a06846 	asr	r6, r6, #16
  68:	e1a0000b 	mov	r0, fp
  6c:	e3a02000 	mov	r2, #0
  70:	e3a01005 	mov	r1, #5
  74:	ebfffffe 	bl	0 <to_mr_tonumber>
  78:	e1a08800 	lsl	r8, r0, #16
  7c:	e1a08848 	asr	r8, r8, #16
  80:	e1a0000b 	mov	r0, fp
  84:	e3a02000 	mov	r2, #0
  88:	e3a01006 	mov	r1, #6
  8c:	ebfffffe 	bl	0 <to_mr_tonumber>
  90:	e1a09800 	lsl	r9, r0, #16
  94:	e1a09849 	asr	r9, r9, #16
  98:	e1a0000b 	mov	r0, fp
  9c:	e3a02000 	mov	r2, #0
  a0:	e3a01007 	mov	r1, #7
  a4:	ebfffffe 	bl	0 <to_mr_tonumber>
  a8:	e1a0a800 	lsl	sl, r0, #16
  ac:	e1a0a84a 	asr	sl, sl, #16
  b0:	e1a0000b 	mov	r0, fp
  b4:	e3a02000 	mov	r2, #0
  b8:	e3a01008 	mov	r1, #8
  bc:	ebfffffe 	bl	0 <to_mr_tonumber>
  c0:	e1a00800 	lsl	r0, r0, #16
  c4:	e354000a 	cmp	r4, #10
  c8:	e1a00840 	asr	r0, r0, #16
  cc:	3a000006 	bcc	ec <MRF_SpriteDrawEx+0xec>
  d0:	e1a02004 	mov	r2, r4
  d4:	e28f10bc 	add	r1, pc, #188	; 0xbc
  d8:	e1a0000b 	mov	r0, fp
  dc:	ebfffffe 	bl	0 <mrp_pushfstring>
  e0:	e1a0000b 	mov	r0, fp
  e4:	ebfffffe 	bl	0 <mrp_error>
  e8:	ea000027 	b	18c <MRF_SpriteDrawEx+0x18c>
  ec:	e1cda2b4 	strh	sl, [sp, #36]	; 0x24
  f0:	e1cd02b6 	strh	r0, [sp, #38]	; 0x26
  f4:	e3a00006 	mov	r0, #6
  f8:	e1cd02b8 	strh	r0, [sp, #40]	; 0x28
  fc:	e59f00b4 	ldr	r0, [pc, #180]	; 1b8 <MRF_SpriteDrawEx+0x1b8>
 100:	e1cd82b0 	strh	r8, [sp, #32]
 104:	e1cd92b2 	strh	r9, [sp, #34]	; 0x22
 108:	e5901044 	ldr	r1, [r0, #68]	; 0x44
 10c:	e3a03000 	mov	r3, #0
 110:	e1cd10bc 	strh	r1, [sp, #12]
 114:	e5901048 	ldr	r1, [r0, #72]	; 0x48
 118:	e1cd51b0 	strh	r5, [sp, #16]
 11c:	e1cd61b2 	strh	r6, [sp, #18]
 120:	e1cd10be 	strh	r1, [sp, #14]
 124:	e5900040 	ldr	r0, [r0, #64]	; 0x40
 128:	e59f1090 	ldr	r1, [pc, #144]	; 1c0 <MRF_SpriteDrawEx+0x1c0>
 12c:	e58d0008 	str	r0, [sp, #8]
 130:	e59f0084 	ldr	r0, [pc, #132]	; 1bc <MRF_SpriteDrawEx+0x1bc>
 134:	e0811084 	add	r1, r1, r4, lsl #1
 138:	e0802204 	add	r2, r0, r4, lsl #4
 13c:	e1d200b0 	ldrh	r0, [r2]
 140:	e1cd01b8 	strh	r0, [sp, #24]
 144:	e1d110b0 	ldrh	r1, [r1]
 148:	e1cd31bc 	strh	r3, [sp, #28]
 14c:	e1cd31be 	strh	r3, [sp, #30]
 150:	e3c73b3f 	bic	r3, r7, #64512	; 0xfc00
 154:	e0030390 	mul	r3, r0, r3
 158:	e1cd11ba 	strh	r1, [sp, #26]
 15c:	e592200c 	ldr	r2, [r2, #12]
 160:	e0030391 	mul	r3, r1, r3
 164:	e0823083 	add	r3, r2, r3, lsl #1
 168:	e58d3014 	str	r3, [sp, #20]
 16c:	e1d230b0 	ldrh	r3, [r2]
 170:	e28d2020 	add	r2, sp, #32
 174:	e1cd20f0 	strd	r2, [sp]
 178:	e1a03001 	mov	r3, r1
 17c:	e1a02000 	mov	r2, r0
 180:	e28d0014 	add	r0, sp, #20
 184:	e28d1008 	add	r1, sp, #8
 188:	ebfffffe 	bl	0 <MRF_SpriteDrawEx>
 18c:	e3a00000 	mov	r0, #0
 190:	e28dd02c 	add	sp, sp, #44	; 0x2c
 194:	e8bd8ff0 	pop	{r4, r5, r6, r7, r8, r9, sl, fp, pc}
 198:	69727053 	.word	0x69727053
 19c:	72446574 	.word	0x72446574
 1a0:	78457761 	.word	0x78457761
 1a4:	646e693a 	.word	0x646e693a
 1a8:	25207865 	.word	0x25207865
 1ac:	6e692064 	.word	0x6e692064
 1b0:	696c6176 	.word	0x696c6176
 1b4:	00002164 	.word	0x00002164
 1b8:	00000000 	.word	0x00000000
 1bc:	000000d8 	.word	0x000000d8
 1c0:	0000034c 	.word	0x0000034c

Disassembly of section i.MRF_TileSet:

00000000 <MRF_TileSet>:
   0:	e92d4ff8 	push	{r3, r4, r5, r6, r7, r8, r9, sl, fp, lr}
   4:	e1a05000 	mov	r5, r0
   8:	e3a02000 	mov	r2, #0
   c:	e3a01001 	mov	r1, #1
  10:	ebfffffe 	bl	0 <to_mr_tonumber>
  14:	e1a04800 	lsl	r4, r0, #16
  18:	e1a04824 	lsr	r4, r4, #16
  1c:	e1a00005 	mov	r0, r5
  20:	e3a02000 	mov	r2, #0
  24:	e3a01002 	mov	r1, #2
  28:	ebfffffe 	bl	0 <to_mr_tonumber>
  2c:	e1a08800 	lsl	r8, r0, #16
  30:	e1a08848 	asr	r8, r8, #16
  34:	e1a00005 	mov	r0, r5
  38:	e3a02000 	mov	r2, #0
  3c:	e3a01003 	mov	r1, #3
  40:	ebfffffe 	bl	0 <to_mr_tonumber>
  44:	e1a09800 	lsl	r9, r0, #16
  48:	e1a09849 	asr	r9, r9, #16
  4c:	e1a00005 	mov	r0, r5
  50:	e3a02000 	mov	r2, #0
  54:	e3a01004 	mov	r1, #4
  58:	ebfffffe 	bl	0 <to_mr_tonumber>
  5c:	e1a06800 	lsl	r6, r0, #16
  60:	e1a06826 	lsr	r6, r6, #16
  64:	e1a00005 	mov	r0, r5
  68:	e3a02000 	mov	r2, #0
  6c:	e3a01005 	mov	r1, #5
  70:	ebfffffe 	bl	0 <to_mr_tonumber>
  74:	e1a07800 	lsl	r7, r0, #16
  78:	e1a07827 	lsr	r7, r7, #16
  7c:	e1a00005 	mov	r0, r5
  80:	e3a02000 	mov	r2, #0
  84:	e3a01006 	mov	r1, #6
  88:	ebfffffe 	bl	0 <to_mr_tonumber>
  8c:	e1a0a800 	lsl	sl, r0, #16
  90:	e3540003 	cmp	r4, #3
  94:	e1a0a82a 	lsr	sl, sl, #16
  98:	3a000005 	bcc	b4 <MRF_TileSet+0xb4>
  9c:	e28f10a0 	add	r1, pc, #160	; 0xa0
  a0:	e1a00005 	mov	r0, r5
  a4:	ebfffffe 	bl	0 <mrp_pushstring>
  a8:	e1a00005 	mov	r0, r5
  ac:	ebfffffe 	bl	0 <mrp_error>
  b0:	ea000021 	b	13c <MRF_TileSet+0x13c>
  b4:	e59f00a8 	ldr	r0, [pc, #168]	; 164 <MRF_TileSet+0x164>
  b8:	e0841104 	add	r1, r4, r4, lsl #2
  bc:	e0805101 	add	r5, r0, r1, lsl #2
  c0:	e1d500b4 	ldrh	r0, [r5, #4]
  c4:	e1d510b6 	ldrh	r1, [r5, #6]
  c8:	e00b0697 	mul	fp, r7, r6
  cc:	e0010190 	mul	r1, r0, r1
  d0:	e3e00001 	mvn	r0, #1
  d4:	e0000091 	mul	r0, r1, r0
  d8:	e090008b 	adds	r0, r0, fp, lsl #1
  dc:	0a00000a 	beq	10c <MRF_TileSet+0x10c>
  e0:	e59f2080 	ldr	r2, [pc, #128]	; 168 <MRF_TileSet+0x168>
  e4:	e7920104 	ldr	r0, [r2, r4, lsl #2]
  e8:	e3500000 	cmp	r0, #0
  ec:	0a000004 	beq	104 <MRF_TileSet+0x104>
  f0:	e1a01081 	lsl	r1, r1, #1
  f4:	ebfffffe 	bl	0 <MRF_TileSet>
  f8:	e59f2068 	ldr	r2, [pc, #104]	; 168 <MRF_TileSet+0x168>
  fc:	e3a00000 	mov	r0, #0
 100:	e7820104 	str	r0, [r2, r4, lsl #2]
 104:	e3560000 	cmp	r6, #0
 108:	0a00000b 	beq	13c <MRF_TileSet+0x13c>
 10c:	e1c580b0 	strh	r8, [r5]
 110:	e1c590b2 	strh	r9, [r5, #2]
 114:	e1c560b4 	strh	r6, [r5, #4]
 118:	e1c570b6 	strh	r7, [r5, #6]
 11c:	e1c5a1b2 	strh	sl, [r5, #18]
 120:	e59f5040 	ldr	r5, [pc, #64]	; 168 <MRF_TileSet+0x168>
 124:	e7950104 	ldr	r0, [r5, r4, lsl #2]
 128:	e3500000 	cmp	r0, #0
 12c:	1a000002 	bne	13c <MRF_TileSet+0x13c>
 130:	e1a0008b 	lsl	r0, fp, #1
 134:	ebfffffe 	bl	0 <MRF_TileSet>
 138:	e7850104 	str	r0, [r5, r4, lsl #2]
 13c:	e3a00000 	mov	r0, #0
 140:	e8bd8ff8 	pop	{r3, r4, r5, r6, r7, r8, r9, sl, fp, pc}
 144:	656c6954 	.word	0x656c6954
 148:	3a746553 	.word	0x3a746553
 14c:	656c6974 	.word	0x656c6974
 150:	646e6920 	.word	0x646e6920
 154:	6f207865 	.word	0x6f207865
 158:	6f207475 	.word	0x6f207475
 15c:	61722066 	.word	0x61722066
 160:	0021676e 	.word	0x0021676e
 164:	000002c8 	.word	0x000002c8
 168:	00000304 	.word	0x00000304

Disassembly of section i.MRF_TileSetRect:

00000000 <MRF_TileSetRect>:
   0:	e92d41f0 	push	{r4, r5, r6, r7, r8, lr}
   4:	e1a08000 	mov	r8, r0
   8:	e3a02000 	mov	r2, #0
   c:	e3a01001 	mov	r1, #1
  10:	ebfffffe 	bl	0 <to_mr_tonumber>
  14:	e1a04800 	lsl	r4, r0, #16
  18:	e1a04824 	lsr	r4, r4, #16
  1c:	e1a00008 	mov	r0, r8
  20:	e3a02000 	mov	r2, #0
  24:	e3a01002 	mov	r1, #2
  28:	ebfffffe 	bl	0 <to_mr_tonumber>
  2c:	e1a05800 	lsl	r5, r0, #16
  30:	e1a05845 	asr	r5, r5, #16
  34:	e1a00008 	mov	r0, r8
  38:	e3a02000 	mov	r2, #0
  3c:	e3a01003 	mov	r1, #3
  40:	ebfffffe 	bl	0 <to_mr_tonumber>
  44:	e1a06800 	lsl	r6, r0, #16
  48:	e1a06846 	asr	r6, r6, #16
  4c:	e1a00008 	mov	r0, r8
  50:	e3a02000 	mov	r2, #0
  54:	e3a01004 	mov	r1, #4
  58:	ebfffffe 	bl	0 <to_mr_tonumber>
  5c:	e1a07800 	lsl	r7, r0, #16
  60:	e1a07847 	asr	r7, r7, #16
  64:	e1a00008 	mov	r0, r8
  68:	e3a02000 	mov	r2, #0
  6c:	e3a01005 	mov	r1, #5
  70:	ebfffffe 	bl	0 <to_mr_tonumber>
  74:	e1a00800 	lsl	r0, r0, #16
  78:	e3540003 	cmp	r4, #3
  7c:	e1a00840 	asr	r0, r0, #16
  80:	3a000005 	bcc	9c <MRF_TileSetRect+0x9c>
  84:	e28f1034 	add	r1, pc, #52	; 0x34
  88:	e1a00008 	mov	r0, r8
  8c:	ebfffffe 	bl	0 <mrp_pushstring>
  90:	e1a00008 	mov	r0, r8
  94:	ebfffffe 	bl	0 <mrp_error>
  98:	ea000006 	b	b8 <MRF_TileSetRect+0xb8>
  9c:	e59f103c 	ldr	r1, [pc, #60]	; e0 <MRF_TileSetRect+0xe0>
  a0:	e0842104 	add	r2, r4, r4, lsl #2
  a4:	e0811102 	add	r1, r1, r2, lsl #2
  a8:	e1c150b8 	strh	r5, [r1, #8]
  ac:	e1c160ba 	strh	r6, [r1, #10]
  b0:	e1c170bc 	strh	r7, [r1, #12]
  b4:	e1c100be 	strh	r0, [r1, #14]
  b8:	e3a00000 	mov	r0, #0
  bc:	e8bd81f0 	pop	{r4, r5, r6, r7, r8, pc}
  c0:	656c6954 	.word	0x656c6954
  c4:	3a746553 	.word	0x3a746553
  c8:	656c6974 	.word	0x656c6974
  cc:	646e6920 	.word	0x646e6920
  d0:	6f207865 	.word	0x6f207865
  d4:	6f207475 	.word	0x6f207475
  d8:	61722066 	.word	0x61722066
  dc:	0021676e 	.word	0x0021676e
  e0:	000002c8 	.word	0x000002c8

Disassembly of section i.MRF_TileDraw:

00000000 <MRF_TileDraw>:
   0:	e92d4ff1 	push	{r0, r4, r5, r6, r7, r8, r9, sl, fp, lr}
   4:	e24dd038 	sub	sp, sp, #56	; 0x38
   8:	e59d0038 	ldr	r0, [sp, #56]	; 0x38
   c:	e3a02000 	mov	r2, #0
  10:	e3a01001 	mov	r1, #1
  14:	ebfffffe 	bl	0 <to_mr_tonumber>
  18:	e1a01800 	lsl	r1, r0, #16
  1c:	e1a01821 	lsr	r1, r1, #16
  20:	e59f0234 	ldr	r0, [pc, #564]	; 25c <MRF_TileDraw+0x25c>
  24:	e58d102c 	str	r1, [sp, #44]	; 0x2c
  28:	e0811101 	add	r1, r1, r1, lsl #2
  2c:	e0805101 	add	r5, r0, r1, lsl #2
  30:	e59d102c 	ldr	r1, [sp, #44]	; 0x2c
  34:	e1d590f0 	ldrsh	r9, [r5]
  38:	e2400e1f 	sub	r0, r0, #496	; 0x1f0
  3c:	e1d5a0f2 	ldrsh	sl, [r5, #2]
  40:	e0800201 	add	r0, r0, r1, lsl #4
  44:	e58d0034 	str	r0, [sp, #52]	; 0x34
  48:	e1d510b4 	ldrh	r1, [r5, #4]
  4c:	e1d060b0 	ldrh	r6, [r0]
  50:	e1d581b2 	ldrh	r8, [r5, #18]
  54:	e3590000 	cmp	r9, #0
  58:	e58d1028 	str	r1, [sp, #40]	; 0x28
  5c:	e1d570b6 	ldrh	r7, [r5, #6]
  60:	c3a00000 	movgt	r0, #0
  64:	ca000002 	bgt	74 <MRF_TileDraw+0x74>
  68:	e1a01006 	mov	r1, r6
  6c:	e2690000 	rsb	r0, r9, #0
  70:	ebfffffe 	bl	0 <__aeabi_idivmod>
  74:	e59fb1e4 	ldr	fp, [pc, #484]	; 260 <MRF_TileDraw+0x260>
  78:	e58d0024 	str	r0, [sp, #36]	; 0x24
  7c:	e59b0044 	ldr	r0, [fp, #68]	; 0x44
  80:	e1a01006 	mov	r1, r6
  84:	e0400009 	sub	r0, r0, r9
  88:	e0800006 	add	r0, r0, r6
  8c:	e2400001 	sub	r0, r0, #1
  90:	ebfffffe 	bl	0 <__aeabi_uidivmod>
  94:	e59d1028 	ldr	r1, [sp, #40]	; 0x28
  98:	e1500001 	cmp	r0, r1
  9c:	859d0028 	ldrhi	r0, [sp, #40]	; 0x28
  a0:	e35a0000 	cmp	sl, #0
  a4:	e58d0020 	str	r0, [sp, #32]
  a8:	c3a00000 	movgt	r0, #0
  ac:	ca000002 	bgt	bc <MRF_TileDraw+0xbc>
  b0:	e1a01008 	mov	r1, r8
  b4:	e26a0000 	rsb	r0, sl, #0
  b8:	ebfffffe 	bl	0 <__aeabi_idivmod>
  bc:	e1a04000 	mov	r4, r0
  c0:	e59b0048 	ldr	r0, [fp, #72]	; 0x48
  c4:	e1a01008 	mov	r1, r8
  c8:	e040000a 	sub	r0, r0, sl
  cc:	e0800008 	add	r0, r0, r8
  d0:	e2400001 	sub	r0, r0, #1
  d4:	ebfffffe 	bl	0 <__aeabi_uidivmod>
  d8:	e1500007 	cmp	r0, r7
  dc:	e59d102c 	ldr	r1, [sp, #44]	; 0x2c
  e0:	81a00007 	movhi	r0, r7
  e4:	e3510003 	cmp	r1, #3
  e8:	e58d001c 	str	r0, [sp, #28]
  ec:	3a000003 	bcc	100 <MRF_TileDraw+0x100>
  f0:	e59d0038 	ldr	r0, [sp, #56]	; 0x38
  f4:	e28f1f5a 	add	r1, pc, #360	; 0x168
  f8:	ebfffffe 	bl	0 <mrp_pushstring>
  fc:	ea000009 	b	128 <MRF_TileDraw+0x128>
 100:	e59d0034 	ldr	r0, [sp, #52]	; 0x34
 104:	e590000c 	ldr	r0, [r0, #12]
 108:	e3500000 	cmp	r0, #0
 10c:	11a07804 	lslne	r7, r4, #16
 110:	11a07827 	lsrne	r7, r7, #16
 114:	1a00004a 	bne	244 <MRF_TileDraw+0x244>
 118:	e59d0038 	ldr	r0, [sp, #56]	; 0x38
 11c:	e59d202c 	ldr	r2, [sp, #44]	; 0x2c
 120:	e28f1e16 	add	r1, pc, #352	; 0x160
 124:	ebfffffe 	bl	0 <mrp_pushfstring>
 128:	e59d0038 	ldr	r0, [sp, #56]	; 0x38
 12c:	ebfffffe 	bl	0 <mrp_error>
 130:	ea000046 	b	250 <MRF_TileDraw+0x250>
 134:	e59d0024 	ldr	r0, [sp, #36]	; 0x24
 138:	e1a04800 	lsl	r4, r0, #16
 13c:	e1a04824 	lsr	r4, r4, #16
 140:	ea00003a 	b	230 <MRF_TileDraw+0x230>
 144:	e59f0158 	ldr	r0, [pc, #344]	; 2a4 <MRF_TileDraw+0x2a4>
 148:	e59d102c 	ldr	r1, [sp, #44]	; 0x2c
 14c:	e7900101 	ldr	r0, [r0, r1, lsl #2]
 150:	e59d1028 	ldr	r1, [sp, #40]	; 0x28
 154:	e0214197 	mla	r1, r7, r1, r4
 158:	e0800081 	add	r0, r0, r1, lsl #1
 15c:	e1d0c0b0 	ldrh	ip, [r0]
 160:	e59f0140 	ldr	r0, [pc, #320]	; 2a8 <MRF_TileDraw+0x2a8>
 164:	e1500b0c 	cmp	r0, ip, lsl #22
 168:	0a00002e 	beq	228 <MRF_TileDraw+0x228>
 16c:	e0209496 	mla	r0, r6, r4, r9
 170:	e1d510f8 	ldrsh	r1, [r5, #8]
 174:	e1a0e800 	lsl	lr, r0, #16
 178:	e020a798 	mla	r0, r8, r7, sl
 17c:	e1a0e84e 	asr	lr, lr, #16
 180:	e1a0b800 	lsl	fp, r0, #16
 184:	e08e0006 	add	r0, lr, r6
 188:	e1500001 	cmp	r0, r1
 18c:	a1d500fc 	ldrshge	r0, [r5, #12]
 190:	e1a0b84b 	asr	fp, fp, #16
 194:	a150000e 	cmpge	r0, lr
 198:	da000022 	ble	228 <MRF_TileDraw+0x228>
 19c:	e1d510fa 	ldrsh	r1, [r5, #10]
 1a0:	e08b0008 	add	r0, fp, r8
 1a4:	e1500001 	cmp	r0, r1
 1a8:	a1d500fe 	ldrshge	r0, [r5, #14]
 1ac:	a150000b 	cmpge	r0, fp
 1b0:	da00001c 	ble	228 <MRF_TileDraw+0x228>
 1b4:	e59d0034 	ldr	r0, [sp, #52]	; 0x34
 1b8:	e31c0b01 	tst	ip, #1024	; 0x400
 1bc:	e590000c 	ldr	r0, [r0, #12]
 1c0:	e3a01000 	mov	r1, #0
 1c4:	e58d0030 	str	r0, [sp, #48]	; 0x30
 1c8:	e1d000b0 	ldrh	r0, [r0]
 1cc:	e58d100c 	str	r1, [sp, #12]
 1d0:	e20c1b3f 	and	r1, ip, #64512	; 0xfc00
 1d4:	e58d0008 	str	r0, [sp, #8]
 1d8:	13a00006 	movne	r0, #6
 1dc:	03a00002 	moveq	r0, #2
 1e0:	e0810000 	add	r0, r1, r0
 1e4:	e1a03806 	lsl	r3, r6, #16
 1e8:	e1a03843 	asr	r3, r3, #16
 1ec:	e3cc1b3f 	bic	r1, ip, #64512	; 0xfc00
 1f0:	e58d3014 	str	r3, [sp, #20]
 1f4:	e0010196 	mul	r1, r6, r1
 1f8:	e3c03801 	bic	r3, r0, #65536	; 0x10000
 1fc:	e59d0030 	ldr	r0, [sp, #48]	; 0x30
 200:	e0010198 	mul	r1, r8, r1
 204:	e3a02000 	mov	r2, #0
 208:	e0800081 	add	r0, r0, r1, lsl #1
 20c:	e58d2010 	str	r2, [sp, #16]
 210:	e58d3004 	str	r3, [sp, #4]
 214:	e1a03006 	mov	r3, r6
 218:	e1a0200b 	mov	r2, fp
 21c:	e1a0100e 	mov	r1, lr
 220:	e58d8000 	str	r8, [sp]
 224:	ebfffffe 	bl	0 <MRF_TileDraw>
 228:	e2840001 	add	r0, r4, #1
 22c:	e3c04801 	bic	r4, r0, #65536	; 0x10000
 230:	e59d0020 	ldr	r0, [sp, #32]
 234:	e1540000 	cmp	r4, r0
 238:	3affffc1 	bcc	144 <MRF_TileDraw+0x144>
 23c:	e2870001 	add	r0, r7, #1
 240:	e3c07801 	bic	r7, r0, #65536	; 0x10000
 244:	e59d001c 	ldr	r0, [sp, #28]
 248:	e1570000 	cmp	r7, r0
 24c:	3affffb8 	bcc	134 <MRF_TileDraw+0x134>
 250:	e3a00000 	mov	r0, #0
 254:	e28dd03c 	add	sp, sp, #60	; 0x3c
 258:	e8bd8ff0 	pop	{r4, r5, r6, r7, r8, r9, sl, fp, pc}
 25c:	000002c8 	.word	0x000002c8
 260:	00000000 	.word	0x00000000
 264:	656c6954 	.word	0x656c6954
 268:	77617244 	.word	0x77617244
 26c:	6c69743a 	.word	0x6c69743a
 270:	6e692065 	.word	0x6e692065
 274:	20786564 	.word	0x20786564
 278:	2074756f 	.word	0x2074756f
 27c:	7220666f 	.word	0x7220666f
 280:	21676e61 	.word	0x21676e61
 284:	00000000 	.word	0x00000000
 288:	656c6954 	.word	0x656c6954
 28c:	77617244 	.word	0x77617244
 290:	6c69543a 	.word	0x6c69543a
 294:	64252065 	.word	0x64252065
 298:	20736920 	.word	0x20736920
 29c:	216c696e 	.word	0x216c696e
 2a0:	00000000 	.word	0x00000000
 2a4:	00000304 	.word	0x00000304
 2a8:	ffc00000 	.word	0xffc00000

Disassembly of section i.MRF_TileShift:

00000000 <MRF_TileShift>:
   0:	e92d41f0 	push	{r4, r5, r6, r7, r8, lr}
   4:	e1a05000 	mov	r5, r0
   8:	e3a01001 	mov	r1, #1
   c:	ebfffffe 	bl	0 <mrp_tonumber>
  10:	e1a04800 	lsl	r4, r0, #16
  14:	e1a04824 	lsr	r4, r4, #16
  18:	e1a00005 	mov	r0, r5
  1c:	e3a01002 	mov	r1, #2
  20:	ebfffffe 	bl	0 <mrp_tonumber>
  24:	e1a01800 	lsl	r1, r0, #16
  28:	e3540003 	cmp	r4, #3
  2c:	e1a01821 	lsr	r1, r1, #16
  30:	3a000005 	bcc	4c <MRF_TileShift+0x4c>
  34:	e28f1f45 	add	r1, pc, #276	; 0x114
  38:	e1a00005 	mov	r0, r5
  3c:	ebfffffe 	bl	0 <mrp_pushstring>
  40:	e1a00005 	mov	r0, r5
  44:	ebfffffe 	bl	0 <mrp_error>
  48:	ea00003e 	b	148 <MRF_TileShift+0x148>
  4c:	e59f7120 	ldr	r7, [pc, #288]	; 174 <MRF_TileShift+0x174>
  50:	e3510000 	cmp	r1, #0
  54:	e247003c 	sub	r0, r7, #60	; 0x3c
  58:	0a00000a 	beq	88 <MRF_TileShift+0x88>
  5c:	e3510001 	cmp	r1, #1
  60:	0a000012 	beq	b0 <MRF_TileShift+0xb0>
  64:	e3510002 	cmp	r1, #2
  68:	e3e08001 	mvn	r8, #1
  6c:	0a00001a 	beq	dc <MRF_TileShift+0xdc>
  70:	e3510003 	cmp	r1, #3
  74:	1a000033 	bne	148 <MRF_TileShift+0x148>
  78:	e0841104 	add	r1, r4, r4, lsl #2
  7c:	e0806101 	add	r6, r0, r1, lsl #2
  80:	e3a05000 	mov	r5, #0
  84:	ea00002c 	b	13c <MRF_TileShift+0x13c>
  88:	e0841104 	add	r1, r4, r4, lsl #2
  8c:	e0800101 	add	r0, r0, r1, lsl #2
  90:	e1d010b4 	ldrh	r1, [r0, #4]
  94:	e1d000b6 	ldrh	r0, [r0, #6]
  98:	e2400001 	sub	r0, r0, #1
  9c:	e0000091 	mul	r0, r1, r0
  a0:	e1a02080 	lsl	r2, r0, #1
  a4:	e7970104 	ldr	r0, [r7, r4, lsl #2]
  a8:	e0801081 	add	r1, r0, r1, lsl #1
  ac:	ea000008 	b	d4 <MRF_TileShift+0xd4>
  b0:	e0841104 	add	r1, r4, r4, lsl #2
  b4:	e0801101 	add	r1, r0, r1, lsl #2
  b8:	e1d100b4 	ldrh	r0, [r1, #4]
  bc:	e1d110b6 	ldrh	r1, [r1, #6]
  c0:	e2411001 	sub	r1, r1, #1
  c4:	e0010190 	mul	r1, r0, r1
  c8:	e1a02081 	lsl	r2, r1, #1
  cc:	e7971104 	ldr	r1, [r7, r4, lsl #2]
  d0:	e0810080 	add	r0, r1, r0, lsl #1
  d4:	ebfffffe 	bl	0 <__aeabi_memmove>
  d8:	ea00001a 	b	148 <MRF_TileShift+0x148>
  dc:	e0841104 	add	r1, r4, r4, lsl #2
  e0:	e0806101 	add	r6, r0, r1, lsl #2
  e4:	e3a05000 	mov	r5, #0
  e8:	ea000007 	b	10c <MRF_TileShift+0x10c>
  ec:	e1d620b4 	ldrh	r2, [r6, #4]
  f0:	e7970104 	ldr	r0, [r7, r4, lsl #2]
  f4:	e0010295 	mul	r1, r5, r2
  f8:	e0020298 	mul	r2, r8, r2
  fc:	e0800081 	add	r0, r0, r1, lsl #1
 100:	e2801002 	add	r1, r0, #2
 104:	ebfffffe 	bl	0 <__aeabi_memmove>
 108:	e2855001 	add	r5, r5, #1
 10c:	e1d600b6 	ldrh	r0, [r6, #6]
 110:	e1500005 	cmp	r0, r5
 114:	cafffff4 	bgt	ec <MRF_TileShift+0xec>
 118:	ea00000a 	b	148 <MRF_TileShift+0x148>
 11c:	e1d620b4 	ldrh	r2, [r6, #4]
 120:	e7970104 	ldr	r0, [r7, r4, lsl #2]
 124:	e0010295 	mul	r1, r5, r2
 128:	e0020298 	mul	r2, r8, r2
 12c:	e0801081 	add	r1, r0, r1, lsl #1
 130:	e2810002 	add	r0, r1, #2
 134:	ebfffffe 	bl	0 <__aeabi_memmove>
 138:	e2855001 	add	r5, r5, #1
 13c:	e1d600b6 	ldrh	r0, [r6, #6]
 140:	e1500005 	cmp	r0, r5
 144:	cafffff4 	bgt	11c <MRF_TileShift+0x11c>
 148:	e3a00000 	mov	r0, #0
 14c:	e8bd81f0 	pop	{r4, r5, r6, r7, r8, pc}
 150:	656c6954 	.word	0x656c6954
 154:	66696853 	.word	0x66696853
 158:	69743a74 	.word	0x69743a74
 15c:	6920656c 	.word	0x6920656c
 160:	7865646e 	.word	0x7865646e
 164:	74756f20 	.word	0x74756f20
 168:	20666f20 	.word	0x20666f20
 16c:	676e6172 	.word	0x676e6172
 170:	00000021 	.word	0x00000021
 174:	00000304 	.word	0x00000304

Disassembly of section i.MRF_TileLoad:

00000000 <MRF_TileLoad>:
   0:	e92d47fc 	push	{r2, r3, r4, r5, r6, r7, r8, r9, sl, lr}
   4:	e1a09000 	mov	r9, r0
   8:	e3a01001 	mov	r1, #1
   c:	ebfffffe 	bl	0 <mrp_tonumber>
  10:	e1a04800 	lsl	r4, r0, #16
  14:	e1a04824 	lsr	r4, r4, #16
  18:	e1a00009 	mov	r0, r9
  1c:	e3a01002 	mov	r1, #2
  20:	ebfffffe 	bl	0 <mrp_tostring>
  24:	e3540003 	cmp	r4, #3
  28:	e1a08000 	mov	r8, r0
  2c:	3a000003 	bcc	40 <MRF_TileLoad+0x40>
  30:	e28f10d8 	add	r1, pc, #216	; 0xd8
  34:	e1a00009 	mov	r0, r9
  38:	ebfffffe 	bl	0 <mrp_pushstring>
  3c:	ea000019 	b	a8 <MRF_TileLoad+0xa8>
  40:	e59f50ec 	ldr	r5, [pc, #236]	; 134 <MRF_TileLoad+0x134>
  44:	e3a06000 	mov	r6, #0
  48:	e7950104 	ldr	r0, [r5, r4, lsl #2]
  4c:	e245703c 	sub	r7, r5, #60	; 0x3c
  50:	e3500000 	cmp	r0, #0
  54:	0a000007 	beq	78 <MRF_TileLoad+0x78>
  58:	e0841104 	add	r1, r4, r4, lsl #2
  5c:	e0871101 	add	r1, r7, r1, lsl #2
  60:	e1d120b4 	ldrh	r2, [r1, #4]
  64:	e1d110b6 	ldrh	r1, [r1, #6]
  68:	e0010192 	mul	r1, r2, r1
  6c:	e1a01081 	lsl	r1, r1, #1
  70:	ebfffffe 	bl	0 <MRF_TileLoad>
  74:	e7856104 	str	r6, [r5, r4, lsl #2]
  78:	e3a02000 	mov	r2, #0
  7c:	e28d1004 	add	r1, sp, #4
  80:	e1a00008 	mov	r0, r8
  84:	ebfffffe 	bl	0 <MRF_TileLoad>
  88:	e3500000 	cmp	r0, #0
  8c:	e7850104 	str	r0, [r5, r4, lsl #2]
  90:	1a000007 	bne	b4 <MRF_TileLoad+0xb4>
  94:	e1a03008 	mov	r3, r8
  98:	e1a02004 	mov	r2, r4
  9c:	e28f1094 	add	r1, pc, #148	; 0x94
  a0:	e1a00009 	mov	r0, r9
  a4:	ebfffffe 	bl	0 <mrp_pushfstring>
  a8:	e1a00009 	mov	r0, r9
  ac:	ebfffffe 	bl	0 <mrp_error>
  b0:	ea000014 	b	108 <MRF_TileLoad+0x108>
  b4:	e0841104 	add	r1, r4, r4, lsl #2
  b8:	e0877101 	add	r7, r7, r1, lsl #2
  bc:	e1d710b4 	ldrh	r1, [r7, #4]
  c0:	e1d720b6 	ldrh	r2, [r7, #6]
  c4:	e0020291 	mul	r2, r1, r2
  c8:	e59d1004 	ldr	r1, [sp, #4]
  cc:	e1510082 	cmp	r1, r2, lsl #1
  d0:	0a00000c 	beq	108 <MRF_TileLoad+0x108>
  d4:	ebfffffe 	bl	0 <MRF_TileLoad>
  d8:	e1d700b4 	ldrh	r0, [r7, #4]
  dc:	e1d710b6 	ldrh	r1, [r7, #6]
  e0:	e1a02008 	mov	r2, r8
  e4:	e0000091 	mul	r0, r1, r0
  e8:	e28f1068 	add	r1, pc, #104	; 0x68
  ec:	e1a03080 	lsl	r3, r0, #1
  f0:	e58d3000 	str	r3, [sp]
  f4:	e59d3004 	ldr	r3, [sp, #4]
  f8:	e1a00009 	mov	r0, r9
  fc:	ebfffffe 	bl	0 <mrp_pushfstring>
 100:	e7856104 	str	r6, [r5, r4, lsl #2]
 104:	eaffffe7 	b	a8 <MRF_TileLoad+0xa8>
 108:	e3a00000 	mov	r0, #0
 10c:	e8bd87fc 	pop	{r2, r3, r4, r5, r6, r7, r8, r9, sl, pc}
 110:	656c6954 	.word	0x656c6954
 114:	64616f4c 	.word	0x64616f4c
 118:	6c69743a 	.word	0x6c69743a
 11c:	6e692065 	.word	0x6e692065
 120:	20786564 	.word	0x20786564
 124:	2074756f 	.word	0x2074756f
 128:	7220666f 	.word	0x7220666f
 12c:	21676e61 	.word	0x21676e61
 130:	00000000 	.word	0x00000000
 134:	00000304 	.word	0x00000304
 138:	656c6954 	.word	0x656c6954
 13c:	64616f4c 	.word	0x64616f4c
 140:	3a642520 	.word	0x3a642520
 144:	6e6e6163 	.word	0x6e6e6163
 148:	7220746f 	.word	0x7220746f
 14c:	20646165 	.word	0x20646165
 150:	22732522 	.word	0x22732522
 154:	00000021 	.word	0x00000021
 158:	656c6954 	.word	0x656c6954
 15c:	64616f4c 	.word	0x64616f4c
 160:	614d203a 	.word	0x614d203a
 164:	69662070 	.word	0x69662070
 168:	2220656c 	.word	0x2220656c
 16c:	20227325 	.word	0x20227325
 170:	206e656c 	.word	0x206e656c
 174:	20727265 	.word	0x20727265
 178:	25206425 	.word	0x25206425
 17c:	00212064 	.word	0x00212064

Disassembly of section i.MRF_GetTile:

00000000 <MRF_GetTile>:
   0:	e92d4070 	push	{r4, r5, r6, lr}
   4:	e1a06000 	mov	r6, r0
   8:	e3a01001 	mov	r1, #1
   c:	ebfffffe 	bl	0 <mrp_tonumber>
  10:	e1a04800 	lsl	r4, r0, #16
  14:	e1a04824 	lsr	r4, r4, #16
  18:	e1a00006 	mov	r0, r6
  1c:	e3a01002 	mov	r1, #2
  20:	ebfffffe 	bl	0 <mrp_tonumber>
  24:	e1a05800 	lsl	r5, r0, #16
  28:	e1a05825 	lsr	r5, r5, #16
  2c:	e1a00006 	mov	r0, r6
  30:	e3a01003 	mov	r1, #3
  34:	ebfffffe 	bl	0 <mrp_tonumber>
  38:	e1a00800 	lsl	r0, r0, #16
  3c:	e3540003 	cmp	r4, #3
  40:	e1a00820 	lsr	r0, r0, #16
  44:	3a000003 	bcc	58 <MRF_GetTile+0x58>
  48:	e28f107c 	add	r1, pc, #124	; 0x7c
  4c:	e1a00006 	mov	r0, r6
  50:	ebfffffe 	bl	0 <mrp_pushstring>
  54:	ea000011 	b	a0 <MRF_GetTile+0xa0>
  58:	e59f108c 	ldr	r1, [pc, #140]	; ec <MRF_GetTile+0xec>
  5c:	e7911104 	ldr	r1, [r1, r4, lsl #2]
  60:	e3510000 	cmp	r1, #0
  64:	01a02004 	moveq	r2, r4
  68:	028f1080 	addeq	r1, pc, #128	; 0x80
  6c:	0a000009 	beq	98 <MRF_GetTile+0x98>
  70:	e59f2090 	ldr	r2, [pc, #144]	; 108 <MRF_GetTile+0x108>
  74:	e0843104 	add	r3, r4, r4, lsl #2
  78:	e0822103 	add	r2, r2, r3, lsl #2
  7c:	e1d230b6 	ldrh	r3, [r2, #6]
  80:	e1530000 	cmp	r3, r0
  84:	21d220b4 	ldrhcs	r2, [r2, #4]
  88:	21520005 	cmpcs	r2, r5
  8c:	2a000007 	bcs	b0 <MRF_GetTile+0xb0>
  90:	e1a02004 	mov	r2, r4
  94:	e28f1070 	add	r1, pc, #112	; 0x70
  98:	e1a00006 	mov	r0, r6
  9c:	ebfffffe 	bl	0 <mrp_pushfstring>
  a0:	e1a00006 	mov	r0, r6
  a4:	ebfffffe 	bl	0 <mrp_error>
  a8:	e3a00000 	mov	r0, #0
  ac:	e8bd8070 	pop	{r4, r5, r6, pc}
  b0:	e0205092 	mla	r0, r2, r0, r5
  b4:	e0810080 	add	r0, r1, r0, lsl #1
  b8:	e1d010f0 	ldrsh	r1, [r0]
  bc:	e1a00006 	mov	r0, r6
  c0:	ebfffffe 	bl	0 <to_mr_pushnumber>
  c4:	e3a00001 	mov	r0, #1
  c8:	e8bd8070 	pop	{r4, r5, r6, pc}
  cc:	54746547 	.word	0x54746547
  d0:	3a656c69 	.word	0x3a656c69
  d4:	656c6974 	.word	0x656c6974
  d8:	646e6920 	.word	0x646e6920
  dc:	6f207865 	.word	0x6f207865
  e0:	6f207475 	.word	0x6f207475
  e4:	61722066 	.word	0x61722066
  e8:	0021676e 	.word	0x0021676e
  ec:	00000304 	.word	0x00000304
  f0:	54746547 	.word	0x54746547
  f4:	20656c69 	.word	0x20656c69
  f8:	743a6425 	.word	0x743a6425
  fc:	20656c69 	.word	0x20656c69
 100:	6e207369 	.word	0x6e207369
 104:	00216c69 	.word	0x00216c69
 108:	000002c8 	.word	0x000002c8
 10c:	54746547 	.word	0x54746547
 110:	20656c69 	.word	0x20656c69
 114:	7265766f 	.word	0x7265766f
 118:	776f6c66 	.word	0x776f6c66
 11c:	00000021 	.word	0x00000021

Disassembly of section i.MRF_SetTile:

00000000 <MRF_SetTile>:
   0:	e92d41f0 	push	{r4, r5, r6, r7, r8, lr}
   4:	e1a07000 	mov	r7, r0
   8:	e3a01001 	mov	r1, #1
   c:	ebfffffe 	bl	0 <mrp_tonumber>
  10:	e1a04800 	lsl	r4, r0, #16
  14:	e1a04824 	lsr	r4, r4, #16
  18:	e1a00007 	mov	r0, r7
  1c:	e3a01002 	mov	r1, #2
  20:	ebfffffe 	bl	0 <mrp_tonumber>
  24:	e1a05800 	lsl	r5, r0, #16
  28:	e1a05825 	lsr	r5, r5, #16
  2c:	e1a00007 	mov	r0, r7
  30:	e3a01003 	mov	r1, #3
  34:	ebfffffe 	bl	0 <mrp_tonumber>
  38:	e1a06800 	lsl	r6, r0, #16
  3c:	e1a06826 	lsr	r6, r6, #16
  40:	e1a00007 	mov	r0, r7
  44:	e3a01004 	mov	r1, #4
  48:	ebfffffe 	bl	0 <mrp_tonumber>
  4c:	e1a00800 	lsl	r0, r0, #16
  50:	e3540003 	cmp	r4, #3
  54:	e1a00820 	lsr	r0, r0, #16
  58:	3a000003 	bcc	6c <MRF_SetTile+0x6c>
  5c:	e28f106c 	add	r1, pc, #108	; 0x6c
  60:	e1a00007 	mov	r0, r7
  64:	ebfffffe 	bl	0 <mrp_pushstring>
  68:	ea000014 	b	c0 <MRF_SetTile+0xc0>
  6c:	e59f107c 	ldr	r1, [pc, #124]	; f0 <MRF_SetTile+0xf0>
  70:	e7911104 	ldr	r1, [r1, r4, lsl #2]
  74:	e3510000 	cmp	r1, #0
  78:	01a02004 	moveq	r2, r4
  7c:	028f1070 	addeq	r1, pc, #112	; 0x70
  80:	0a00000c 	beq	b8 <MRF_SetTile+0xb8>
  84:	e59f2080 	ldr	r2, [pc, #128]	; 10c <MRF_SetTile+0x10c>
  88:	e0843104 	add	r3, r4, r4, lsl #2
  8c:	e0822103 	add	r2, r2, r3, lsl #2
  90:	e1d230b6 	ldrh	r3, [r2, #6]
  94:	e1530006 	cmp	r3, r6
  98:	21d220b4 	ldrhcs	r2, [r2, #4]
  9c:	21520005 	cmpcs	r2, r5
  a0:	20225296 	mlacs	r2, r6, r2, r5
  a4:	20811082 	addcs	r1, r1, r2, lsl #1
  a8:	21c100b0 	strhcs	r0, [r1]
  ac:	2a000005 	bcs	c8 <MRF_SetTile+0xc8>
  b0:	e1a02004 	mov	r2, r4
  b4:	e28f1054 	add	r1, pc, #84	; 0x54
  b8:	e1a00007 	mov	r0, r7
  bc:	ebfffffe 	bl	0 <mrp_pushfstring>
  c0:	e1a00007 	mov	r0, r7
  c4:	ebfffffe 	bl	0 <mrp_error>
  c8:	e3a00000 	mov	r0, #0
  cc:	e8bd81f0 	pop	{r4, r5, r6, r7, r8, pc}
  d0:	54746553 	.word	0x54746553
  d4:	3a656c69 	.word	0x3a656c69
  d8:	656c6974 	.word	0x656c6974
  dc:	646e6920 	.word	0x646e6920
  e0:	6f207865 	.word	0x6f207865
  e4:	6f207475 	.word	0x6f207475
  e8:	61722066 	.word	0x61722066
  ec:	0021676e 	.word	0x0021676e
  f0:	00000304 	.word	0x00000304
  f4:	54746553 	.word	0x54746553
  f8:	20656c69 	.word	0x20656c69
  fc:	743a6425 	.word	0x743a6425
 100:	20656c69 	.word	0x20656c69
 104:	6e207369 	.word	0x6e207369
 108:	00216c69 	.word	0x00216c69
 10c:	000002c8 	.word	0x000002c8
 110:	54746553 	.word	0x54746553
 114:	20656c69 	.word	0x20656c69
 118:	6f206425 	.word	0x6f206425
 11c:	66726576 	.word	0x66726576
 120:	21776f6c 	.word	0x21776f6c
 124:	00000000 	.word	0x00000000

Disassembly of section i.MRF_ClearScreen:

00000000 <MRF_ClearScreen>:
   0:	e92d40fe 	push	{r1, r2, r3, r4, r5, r6, r7, lr}
   4:	e1a04000 	mov	r4, r0
   8:	e3a01001 	mov	r1, #1
   c:	ebfffffe 	bl	0 <mrp_tonumber>
  10:	e1a05000 	mov	r5, r0
  14:	e1a00004 	mov	r0, r4
  18:	e3a01002 	mov	r1, #2
  1c:	ebfffffe 	bl	0 <mrp_tonumber>
  20:	e1a06000 	mov	r6, r0
  24:	e1a00004 	mov	r0, r4
  28:	e3a01003 	mov	r1, #3
  2c:	ebfffffe 	bl	0 <mrp_tonumber>
  30:	e20030ff 	and	r3, r0, #255	; 0xff
  34:	e20620ff 	and	r2, r6, #255	; 0xff
  38:	e20510ff 	and	r1, r5, #255	; 0xff
  3c:	e59f002c 	ldr	r0, [pc, #44]	; 70 <MRF_ClearScreen+0x70>
  40:	e88d000e 	stm	sp, {r1, r2, r3}
  44:	e5901048 	ldr	r1, [r0, #72]	; 0x48
  48:	e5900044 	ldr	r0, [r0, #68]	; 0x44
  4c:	e1a03801 	lsl	r3, r1, #16
  50:	e1a02800 	lsl	r2, r0, #16
  54:	e1a02842 	asr	r2, r2, #16
  58:	e3a00000 	mov	r0, #0
  5c:	e1a03843 	asr	r3, r3, #16
  60:	e3a01000 	mov	r1, #0
  64:	ebfffffe 	bl	0 <MRF_ClearScreen>
  68:	e3a00000 	mov	r0, #0
  6c:	e8bd80fe 	pop	{r1, r2, r3, r4, r5, r6, r7, pc}
  70:	00000000 	.word	0x00000000

Disassembly of section i.MRF_EffSetCon:

00000000 <MRF_EffSetCon>:
   0:	e92d4ffe 	push	{r1, r2, r3, r4, r5, r6, r7, r8, r9, sl, fp, lr}
   4:	e1a0a000 	mov	sl, r0
   8:	e3a02000 	mov	r2, #0
   c:	e3a01001 	mov	r1, #1
  10:	ebfffffe 	bl	0 <to_mr_tonumber>
  14:	e1a04800 	lsl	r4, r0, #16
  18:	e1a04844 	asr	r4, r4, #16
  1c:	e1a0000a 	mov	r0, sl
  20:	e3a02000 	mov	r2, #0
  24:	e3a01002 	mov	r1, #2
  28:	ebfffffe 	bl	0 <to_mr_tonumber>
  2c:	e1a05800 	lsl	r5, r0, #16
  30:	e1a05845 	asr	r5, r5, #16
  34:	e1a0000a 	mov	r0, sl
  38:	e3a02000 	mov	r2, #0
  3c:	e3a01003 	mov	r1, #3
  40:	ebfffffe 	bl	0 <to_mr_tonumber>
  44:	e1a06800 	lsl	r6, r0, #16
  48:	e1a06846 	asr	r6, r6, #16
  4c:	e1a0000a 	mov	r0, sl
  50:	e3a02000 	mov	r2, #0
  54:	e3a01004 	mov	r1, #4
  58:	ebfffffe 	bl	0 <to_mr_tonumber>
  5c:	e1a07800 	lsl	r7, r0, #16
  60:	e1a07847 	asr	r7, r7, #16
  64:	e1a0000a 	mov	r0, sl
  68:	e3a02000 	mov	r2, #0
  6c:	e3a01005 	mov	r1, #5
  70:	ebfffffe 	bl	0 <to_mr_tonumber>
  74:	e1a08800 	lsl	r8, r0, #16
  78:	e1a08848 	asr	r8, r8, #16
  7c:	e1a0000a 	mov	r0, sl
  80:	e3a02000 	mov	r2, #0
  84:	e3a01006 	mov	r1, #6
  88:	ebfffffe 	bl	0 <to_mr_tonumber>
  8c:	e1a09800 	lsl	r9, r0, #16
  90:	e1a09849 	asr	r9, r9, #16
  94:	e1a0000a 	mov	r0, sl
  98:	e3a02000 	mov	r2, #0
  9c:	e3a01007 	mov	r1, #7
  a0:	ebfffffe 	bl	0 <to_mr_tonumber>
  a4:	e1a03800 	lsl	r3, r0, #16
  a8:	e1a03843 	asr	r3, r3, #16
  ac:	e58d3008 	str	r3, [sp, #8]
  b0:	e1a03007 	mov	r3, r7
  b4:	e1a00004 	mov	r0, r4
  b8:	e1a02006 	mov	r2, r6
  bc:	e1a01005 	mov	r1, r5
  c0:	e1cd80f0 	strd	r8, [sp]
  c4:	ebfffffe 	bl	0 <MRF_EffSetCon>
  c8:	e8bd8ffe 	pop	{r1, r2, r3, r4, r5, r6, r7, r8, r9, sl, fp, pc}

Disassembly of section i.MRF_GetRand:

00000000 <MRF_GetRand>:
   0:	e92d4070 	push	{r4, r5, r6, lr}
   4:	e1a05000 	mov	r5, r0
   8:	e3a01001 	mov	r1, #1
   c:	ebfffffe 	bl	0 <mrp_tonumber>
  10:	e1a04000 	mov	r4, r0
  14:	ebfffffe 	bl	0 <rand>
  18:	e1a01004 	mov	r1, r4
  1c:	ebfffffe 	bl	0 <__aeabi_idivmod>
  20:	e1a00005 	mov	r0, r5
  24:	ebfffffe 	bl	0 <to_mr_pushnumber>
  28:	e3a00001 	mov	r0, #1
  2c:	e8bd8070 	pop	{r4, r5, r6, pc}

Disassembly of section i.MRF_mod:

00000000 <MRF_mod>:
   0:	e92d4070 	push	{r4, r5, r6, lr}
   4:	e1a05000 	mov	r5, r0
   8:	e3a01001 	mov	r1, #1
   c:	ebfffffe 	bl	0 <mrp_tonumber>
  10:	e1a04000 	mov	r4, r0
  14:	e1a00005 	mov	r0, r5
  18:	e3a01002 	mov	r1, #2
  1c:	ebfffffe 	bl	0 <mrp_tonumber>
  20:	e1a01000 	mov	r1, r0
  24:	e1a00004 	mov	r0, r4
  28:	ebfffffe 	bl	0 <__aeabi_idivmod>
  2c:	e1a00005 	mov	r0, r5
  30:	ebfffffe 	bl	0 <mrp_pushnumber>
  34:	e3a00001 	mov	r0, #1
  38:	e8bd8070 	pop	{r4, r5, r6, pc}

Disassembly of section i.MRF_and:

00000000 <MRF_and>:
   0:	e92d4070 	push	{r4, r5, r6, lr}
   4:	e1a04000 	mov	r4, r0
   8:	e3a01001 	mov	r1, #1
   c:	ebfffffe 	bl	0 <mrp_tonumber>
  10:	e1a05000 	mov	r5, r0
  14:	e1a00004 	mov	r0, r4
  18:	e3a01002 	mov	r1, #2
  1c:	ebfffffe 	bl	0 <mrp_tonumber>
  20:	e0051000 	and	r1, r5, r0
  24:	e1a00004 	mov	r0, r4
  28:	ebfffffe 	bl	0 <mrp_pushnumber>
  2c:	e3a00001 	mov	r0, #1
  30:	e8bd8070 	pop	{r4, r5, r6, pc}

Disassembly of section i.MRF_or:

00000000 <MRF_or>:
   0:	e92d4070 	push	{r4, r5, r6, lr}
   4:	e1a04000 	mov	r4, r0
   8:	e3a01001 	mov	r1, #1
   c:	ebfffffe 	bl	0 <mrp_tonumber>
  10:	e1a05000 	mov	r5, r0
  14:	e1a00004 	mov	r0, r4
  18:	e3a01002 	mov	r1, #2
  1c:	ebfffffe 	bl	0 <mrp_tonumber>
  20:	e1851000 	orr	r1, r5, r0
  24:	e1a00004 	mov	r0, r4
  28:	ebfffffe 	bl	0 <mrp_pushnumber>
  2c:	e3a00001 	mov	r0, #1
  30:	e8bd8070 	pop	{r4, r5, r6, pc}

Disassembly of section i.MRF_not:

00000000 <MRF_not>:
   0:	e92d4010 	push	{r4, lr}
   4:	e1a04000 	mov	r4, r0
   8:	e3a01001 	mov	r1, #1
   c:	ebfffffe 	bl	0 <mrp_tonumber>
  10:	e2701001 	rsbs	r1, r0, #1
  14:	33a01000 	movcc	r1, #0
  18:	e1a00004 	mov	r0, r4
  1c:	ebfffffe 	bl	0 <mrp_pushnumber>
  20:	e3a00001 	mov	r0, #1
  24:	e8bd8010 	pop	{r4, pc}

Disassembly of section i.MRF_xor:

00000000 <MRF_xor>:
   0:	e92d4070 	push	{r4, r5, r6, lr}
   4:	e1a04000 	mov	r4, r0
   8:	e3a01001 	mov	r1, #1
   c:	ebfffffe 	bl	0 <mrp_tonumber>
  10:	e1a05000 	mov	r5, r0
  14:	e1a00004 	mov	r0, r4
  18:	e3a01002 	mov	r1, #2
  1c:	ebfffffe 	bl	0 <mrp_tonumber>
  20:	e0251000 	eor	r1, r5, r0
  24:	e1a00004 	mov	r0, r4
  28:	ebfffffe 	bl	0 <mrp_pushnumber>
  2c:	e3a00001 	mov	r0, #1
  30:	e8bd8070 	pop	{r4, r5, r6, pc}

Disassembly of section i.SoundSet:

00000000 <SoundSet>:
   0:	e92d4ff8 	push	{r3, r4, r5, r6, r7, r8, r9, sl, fp, lr}
   4:	e3510005 	cmp	r1, #5
   8:	e1a0a000 	mov	sl, r0
   c:	e1a09003 	mov	r9, r3
  10:	e1a08002 	mov	r8, r2
  14:	e1a07001 	mov	r7, r1
  18:	3a000005 	bcc	34 <SoundSet+0x34>
  1c:	e1a02007 	mov	r2, r7
  20:	e28f1088 	add	r1, pc, #136	; 0x88
  24:	e1a0000a 	mov	r0, sl
  28:	ebfffffe 	bl	0 <mrp_pushfstring>
  2c:	e1a0000a 	mov	r0, sl
  30:	ebfffffe 	bl	0 <mrp_error>
  34:	e59f6090 	ldr	r6, [pc, #144]	; cc <SoundSet+0xcc>
  38:	e0874087 	add	r4, r7, r7, lsl #1
  3c:	e7960104 	ldr	r0, [r6, r4, lsl #2]
  40:	e2861000 	add	r1, r6, #0
  44:	e3500000 	cmp	r0, #0
  48:	e0815104 	add	r5, r1, r4, lsl #2
  4c:	0a000003 	beq	60 <SoundSet+0x60>
  50:	e5951004 	ldr	r1, [r5, #4]
  54:	ebfffffe 	bl	0 <SoundSet>
  58:	e3a00000 	mov	r0, #0
  5c:	e7860104 	str	r0, [r6, r4, lsl #2]
  60:	e5d80000 	ldrb	r0, [r8]
  64:	e350002a 	cmp	r0, #42	; 0x2a
  68:	0a00000f 	beq	ac <SoundSet+0xac>
  6c:	e3a02000 	mov	r2, #0
  70:	e1a0100d 	mov	r1, sp
  74:	e1a00008 	mov	r0, r8
  78:	ebfffffe 	bl	0 <SoundSet>
  7c:	e3500000 	cmp	r0, #0
  80:	17860104 	strne	r0, [r6, r4, lsl #2]
  84:	159d0000 	ldrne	r0, [sp]
  88:	19850201 	stmibne	r5, {r0, r9}
  8c:	1a000006 	bne	ac <SoundSet+0xac>
  90:	e1a03008 	mov	r3, r8
  94:	e1a02007 	mov	r2, r7
  98:	e28f1030 	add	r1, pc, #48	; 0x30
  9c:	e1a0000a 	mov	r0, sl
  a0:	ebfffffe 	bl	0 <mrp_pushfstring>
  a4:	e1a0000a 	mov	r0, sl
  a8:	ebfffffe 	bl	0 <mrp_error>
  ac:	e8bd8ff8 	pop	{r3, r4, r5, r6, r7, r8, r9, sl, fp, pc}
  b0:	6e756f53 	.word	0x6e756f53
  b4:	74655364 	.word	0x74655364
  b8:	6e693a20 	.word	0x6e693a20
  bc:	20786564 	.word	0x20786564
  c0:	69206425 	.word	0x69206425
  c4:	6c61766e 	.word	0x6c61766e
  c8:	00216469 	.word	0x00216469
  cc:	00000310 	.word	0x00000310
  d0:	6e756f53 	.word	0x6e756f53
  d4:	74655364 	.word	0x74655364
  d8:	3a642520 	.word	0x3a642520
  dc:	6e6e6163 	.word	0x6e6e6163
  e0:	7220746f 	.word	0x7220746f
  e4:	20646165 	.word	0x20646165
  e8:	22732522 	.word	0x22732522
  ec:	00000021 	.word	0x00000021

Disassembly of section i.MRF_SoundSet:

00000000 <MRF_SoundSet>:
   0:	e92d4070 	push	{r4, r5, r6, lr}
   4:	e1a06000 	mov	r6, r0
   8:	e3a02000 	mov	r2, #0
   c:	e3a01001 	mov	r1, #1
  10:	ebfffffe 	bl	0 <to_mr_tonumber>
  14:	e1a04800 	lsl	r4, r0, #16
  18:	e1a04824 	lsr	r4, r4, #16
  1c:	e1a00006 	mov	r0, r6
  20:	e3a02000 	mov	r2, #0
  24:	e3a01002 	mov	r1, #2
  28:	ebfffffe 	bl	0 <to_mr_tostring>
  2c:	e1a05000 	mov	r5, r0
  30:	e1a00006 	mov	r0, r6
  34:	e3a02001 	mov	r2, #1
  38:	e3a01003 	mov	r1, #3
  3c:	ebfffffe 	bl	0 <to_mr_tonumber>
  40:	e1a03000 	mov	r3, r0
  44:	e1a00006 	mov	r0, r6
  48:	e1a02005 	mov	r2, r5
  4c:	e1a01004 	mov	r1, r4
  50:	ebfffffe 	bl	0 <MRF_SoundSet>
  54:	e3a00000 	mov	r0, #0
  58:	e8bd8070 	pop	{r4, r5, r6, pc}

Disassembly of section i.MRF_SoundPlay:

00000000 <MRF_SoundPlay>:
   0:	e92d4070 	push	{r4, r5, r6, lr}
   4:	e1a05000 	mov	r5, r0
   8:	e3a02000 	mov	r2, #0
   c:	e3a01001 	mov	r1, #1
  10:	ebfffffe 	bl	0 <to_mr_tonumber>
  14:	e1a04800 	lsl	r4, r0, #16
  18:	e1a04824 	lsr	r4, r4, #16
  1c:	e1a00005 	mov	r0, r5
  20:	e3a02000 	mov	r2, #0
  24:	e3a01002 	mov	r1, #2
  28:	ebfffffe 	bl	0 <to_mr_toboolean>
  2c:	e3540005 	cmp	r4, #5
  30:	e1a03000 	mov	r3, r0
  34:	3a000006 	bcc	54 <MRF_SoundPlay+0x54>
  38:	e1a02004 	mov	r2, r4
  3c:	e28f1050 	add	r1, pc, #80	; 0x50
  40:	e1a00005 	mov	r0, r5
  44:	ebfffffe 	bl	0 <mrp_pushfstring>
  48:	e1a00005 	mov	r0, r5
  4c:	ebfffffe 	bl	0 <mrp_error>
  50:	ea00000d 	b	8c <MRF_SoundPlay+0x8c>
  54:	e59f1054 	ldr	r1, [pc, #84]	; b0 <MRF_SoundPlay+0xb0>
  58:	e5910004 	ldr	r0, [r1, #4]
  5c:	e3500001 	cmp	r0, #1
  60:	1a000009 	bne	8c <MRF_SoundPlay+0x8c>
  64:	e5d10000 	ldrb	r0, [r1]
  68:	e3500000 	cmp	r0, #0
  6c:	0a000006 	beq	8c <MRF_SoundPlay+0x8c>
  70:	e59fc03c 	ldr	ip, [pc, #60]	; b4 <MRF_SoundPlay+0xb4>
  74:	e0841084 	add	r1, r4, r4, lsl #1
  78:	e08c0101 	add	r0, ip, r1, lsl #2
  7c:	e5902004 	ldr	r2, [r0, #4]
  80:	e5900008 	ldr	r0, [r0, #8]
  84:	e79c1101 	ldr	r1, [ip, r1, lsl #2]
  88:	ebfffffe 	bl	0 <mr_playSound>
  8c:	e3a00000 	mov	r0, #0
  90:	e8bd8070 	pop	{r4, r5, r6, pc}
  94:	6e756f53 	.word	0x6e756f53
  98:	616c5064 	.word	0x616c5064
  9c:	6e693a79 	.word	0x6e693a79
  a0:	20786564 	.word	0x20786564
  a4:	69206425 	.word	0x69206425
  a8:	6c61766e 	.word	0x6c61766e
  ac:	00216469 	.word	0x00216469
  b0:	00000000 	.word	0x00000000
  b4:	00000310 	.word	0x00000310

Disassembly of section i.MRF_SoundStop:

00000000 <MRF_SoundStop>:
   0:	e92d4010 	push	{r4, lr}
   4:	e1a04000 	mov	r4, r0
   8:	e3a02000 	mov	r2, #0
   c:	e3a01001 	mov	r1, #1
  10:	ebfffffe 	bl	0 <to_mr_tonumber>
  14:	e1a02800 	lsl	r2, r0, #16
  18:	e1a02822 	lsr	r2, r2, #16
  1c:	e3520005 	cmp	r2, #5
  20:	3a000005 	bcc	3c <MRF_SoundStop+0x3c>
  24:	e28f102c 	add	r1, pc, #44	; 0x2c
  28:	e1a00004 	mov	r0, r4
  2c:	ebfffffe 	bl	0 <mrp_pushfstring>
  30:	e1a00004 	mov	r0, r4
  34:	ebfffffe 	bl	0 <mrp_error>
  38:	ea000004 	b	50 <MRF_SoundStop+0x50>
  3c:	e59f1030 	ldr	r1, [pc, #48]	; 74 <MRF_SoundStop+0x74>
  40:	e0820082 	add	r0, r2, r2, lsl #1
  44:	e0810100 	add	r0, r1, r0, lsl #2
  48:	e5900008 	ldr	r0, [r0, #8]
  4c:	ebfffffe 	bl	0 <mr_stopSound>
  50:	e3a00000 	mov	r0, #0
  54:	e8bd8010 	pop	{r4, pc}
  58:	6e756f53 	.word	0x6e756f53
  5c:	6f745364 	.word	0x6f745364
  60:	6e693a70 	.word	0x6e693a70
  64:	20786564 	.word	0x20786564
  68:	69206425 	.word	0x69206425
  6c:	6c61766e 	.word	0x6c61766e
  70:	00216469 	.word	0x00216469
  74:	00000310 	.word	0x00000310

Disassembly of section i.MRF_BgMusicSet:

00000000 <MRF_BgMusicSet>:
   0:	e92d4070 	push	{r4, r5, r6, lr}
   4:	e1a05000 	mov	r5, r0
   8:	e3a02000 	mov	r2, #0
   c:	e3a01001 	mov	r1, #1
  10:	ebfffffe 	bl	0 <to_mr_tostring>
  14:	e1a04000 	mov	r4, r0
  18:	e1a00005 	mov	r0, r5
  1c:	e3a02000 	mov	r2, #0
  20:	e3a01002 	mov	r1, #2
  24:	ebfffffe 	bl	0 <to_mr_tonumber>
  28:	e1a03000 	mov	r3, r0
  2c:	e1a00005 	mov	r0, r5
  30:	e1a02004 	mov	r2, r4
  34:	e3a01000 	mov	r1, #0
  38:	ebfffffe 	bl	0 <MRF_BgMusicSet>
  3c:	e3a00000 	mov	r0, #0
  40:	e8bd8070 	pop	{r4, r5, r6, pc}

Disassembly of section i.MRF_BgMusicStart:

00000000 <MRF_BgMusicStart>:
   0:	e92d4010 	push	{r4, lr}
   4:	e3a02001 	mov	r2, #1
   8:	e3a01001 	mov	r1, #1
   c:	ebfffffe 	bl	0 <to_mr_toboolean>
  10:	e59f102c 	ldr	r1, [pc, #44]	; 44 <MRF_BgMusicStart+0x44>
  14:	e1a03000 	mov	r3, r0
  18:	e5910004 	ldr	r0, [r1, #4]
  1c:	e3500001 	cmp	r0, #1
  20:	1a000005 	bne	3c <MRF_BgMusicStart+0x3c>
  24:	e5d10000 	ldrb	r0, [r1]
  28:	e3500000 	cmp	r0, #0
  2c:	159f0014 	ldrne	r0, [pc, #20]	; 48 <MRF_BgMusicStart+0x48>
  30:	18900006 	ldmne	r0, {r1, r2}
  34:	15900008 	ldrne	r0, [r0, #8]
  38:	1bfffffe 	blne	0 <mr_playSound>
  3c:	e3a00000 	mov	r0, #0
  40:	e8bd8010 	pop	{r4, pc}
  44:	00000000 	.word	0x00000000
  48:	00000310 	.word	0x00000310

Disassembly of section i.MRF_BgMusicStop:

00000000 <MRF_BgMusicStop>:
   0:	e59f0010 	ldr	r0, [pc, #16]	; 18 <MRF_BgMusicStop+0x18>
   4:	e92d4010 	push	{r4, lr}
   8:	e5900008 	ldr	r0, [r0, #8]
   c:	ebfffffe 	bl	0 <mr_stopSound>
  10:	e3a00000 	mov	r0, #0
  14:	e8bd8010 	pop	{r4, pc}
  18:	00000310 	.word	0x00000310

Disassembly of section i.mr_strncpy:

00000000 <mr_strncpy>:
   0:	e3500000 	cmp	r0, #0
   4:	13510000 	cmpne	r1, #0
   8:	e92d4010 	push	{r4, lr}
   c:	13520000 	cmpne	r2, #0
  10:	18bd4010 	popne	{r4, lr}
  14:	1afffffe 	bne	0 <strncpy>
  18:	e1a03002 	mov	r3, r2
  1c:	e1a02001 	mov	r2, r1
  20:	e1a01000 	mov	r1, r0
  24:	e59f0008 	ldr	r0, [pc, #8]	; 34 <mr_strncpy+0x34>
  28:	ebfffffe 	bl	0 <mr_printf>
  2c:	e3a00000 	mov	r0, #0
  30:	e8bd8010 	pop	{r4, pc}
  34:	00000088 	.word	0x00000088

Disassembly of section i.MRF_Exit:

00000000 <MRF_Exit>:
   0:	e92d4070 	push	{r4, r5, r6, lr}
   4:	e1a05000 	mov	r5, r0
   8:	e59f0090 	ldr	r0, [pc, #144]	; a0 <MRF_Exit+0xa0>
   c:	e59f4090 	ldr	r4, [pc, #144]	; a4 <MRF_Exit+0xa4>
  10:	e5d00000 	ldrb	r0, [r0]
  14:	e3500000 	cmp	r0, #0
  18:	0a000016 	beq	78 <MRF_Exit+0x78>
  1c:	e59f0084 	ldr	r0, [pc, #132]	; a8 <MRF_Exit+0xa8>
  20:	e3a01080 	mov	r1, #128	; 0x80
  24:	ebfffffe 	bl	0 <__aeabi_memclr4>
  28:	e59f1070 	ldr	r1, [pc, #112]	; a0 <MRF_Exit+0xa0>
  2c:	e3a0207f 	mov	r2, #127	; 0x7f
  30:	e2410d06 	sub	r0, r1, #384	; 0x180
  34:	ebfffffe 	bl	0 <MRF_Exit>
  38:	e59f006c 	ldr	r0, [pc, #108]	; ac <MRF_Exit+0xac>
  3c:	e3a01080 	mov	r1, #128	; 0x80
  40:	ebfffffe 	bl	0 <__aeabi_memclr4>
  44:	e59f1064 	ldr	r1, [pc, #100]	; b0 <MRF_Exit+0xb0>
  48:	e3a0207f 	mov	r2, #127	; 0x7f
  4c:	e2410d06 	sub	r0, r1, #384	; 0x180
  50:	ebfffffe 	bl	0 <MRF_Exit>
  54:	e28f0058 	add	r0, pc, #88	; 0x58
  58:	e5840050 	str	r0, [r4, #80]	; 0x50
  5c:	e3a00064 	mov	r0, #100	; 0x64
  60:	ebfffffe 	bl	0 <mr_timerStart>
  64:	e3a00001 	mov	r0, #1
  68:	e584000c 	str	r0, [r4, #12]
  6c:	e3a00003 	mov	r0, #3
  70:	e5840004 	str	r0, [r4, #4]
  74:	ea000007 	b	98 <MRF_Exit+0x98>
  78:	ebfffffe 	bl	0 <mr_exit>
  7c:	e3a00004 	mov	r0, #4
  80:	e5840004 	str	r0, [r4, #4]
  84:	e1a00005 	mov	r0, r5
  88:	e28f102c 	add	r1, pc, #44	; 0x2c
  8c:	ebfffffe 	bl	0 <mrp_pushstring>
  90:	e1a00005 	mov	r0, r5
  94:	ebfffffe 	bl	0 <mrp_error>
  98:	e3a00000 	mov	r0, #0
  9c:	e8bd8070 	pop	{r4, r5, r6, pc}
  a0:	000004e0 	.word	0x000004e0
  a4:	00000000 	.word	0x00000000
  a8:	00000360 	.word	0x00000360
  ac:	000003e0 	.word	0x000003e0
  b0:	00000560 	.word	0x00000560
  b4:	74736572 	.word	0x74736572
  b8:	00747261 	.word	0x00747261
  bc:	74697845 	.word	0x74697845
  c0:	2e676e69 	.word	0x2e676e69
  c4:	00002e2e 	.word	0x00002e2e

Disassembly of section i.bufwriter:

00000000 <bufwriter>:
   0:	e92d4070 	push	{r4, r5, r6, lr}
   4:	e1a05000 	mov	r5, r0
   8:	e5930000 	ldr	r0, [r3]
   c:	e1a04003 	mov	r4, r3
  10:	ebfffffe 	bl	0 <mr_write>
  14:	e3500000 	cmp	r0, #0
  18:	aa000006 	bge	38 <bufwriter+0x38>
  1c:	e28f101c 	add	r1, pc, #28
  20:	e1a00005 	mov	r0, r5
  24:	ebfffffe 	bl	0 <mrp_pushstring>
  28:	e5940000 	ldr	r0, [r4]
  2c:	ebfffffe 	bl	0 <mr_close>
  30:	e1a00005 	mov	r0, r5
  34:	ebfffffe 	bl	0 <mrp_error>
  38:	e3a00000 	mov	r0, #0
  3c:	e8bd8070 	pop	{r4, r5, r6, pc}
  40:	65766153 	.word	0x65766153
  44:	6c626154 	.word	0x6c626154
  48:	726d3a65 	.word	0x726d3a65
  4c:	6972775f 	.word	0x6972775f
  50:	66206574 	.word	0x66206574
  54:	656c6961 	.word	0x656c6961
  58:	00000064 	.word	0x00000064

Disassembly of section i.SaveTable:

00000000 <SaveTable>:
   0:	e92d4038 	push	{r3, r4, r5, lr}
   4:	e1a04000 	mov	r4, r0
   8:	e3a02000 	mov	r2, #0
   c:	e3a01003 	mov	r1, #3
  10:	ebfffffe 	bl	0 <to_mr_tostring>
  14:	e1a05000 	mov	r5, r0
  18:	e1a00004 	mov	r0, r4
  1c:	e3a01002 	mov	r1, #2
  20:	ebfffffe 	bl	0 <mrp_settop>
  24:	e3a02005 	mov	r2, #5
  28:	e3a01001 	mov	r1, #1
  2c:	e1a00004 	mov	r0, r4
  30:	ebfffffe 	bl	0 <mr_L_checktype>
  34:	e3a0100a 	mov	r1, #10
  38:	e1a00005 	mov	r0, r5
  3c:	ebfffffe 	bl	0 <mr_open>
  40:	e3500000 	cmp	r0, #0
  44:	e58d0000 	str	r0, [sp]
  48:	1a000004 	bne	60 <SaveTable+0x60>
  4c:	e1a01005 	mov	r1, r5
  50:	e28f0040 	add	r0, pc, #64	; 0x40
  54:	ebfffffe 	bl	0 <mr_printf>
  58:	e3a00000 	mov	r0, #0
  5c:	e8bd8038 	pop	{r3, r4, r5, pc}
  60:	e59f1050 	ldr	r1, [pc, #80]	; b8 <SaveTable+0xb8>
  64:	e1a0200d 	mov	r2, sp
  68:	e1a00004 	mov	r0, r4
  6c:	ebfffffe 	bl	0 <mr_store_persist>
  70:	e3a01000 	mov	r1, #0
  74:	e1a00004 	mov	r0, r4
  78:	ebfffffe 	bl	0 <mrp_settop>
  7c:	e59d0000 	ldr	r0, [sp]
  80:	ebfffffe 	bl	0 <mr_close>
  84:	e3a01000 	mov	r1, #0
  88:	e1a00004 	mov	r0, r4
  8c:	ebfffffe 	bl	0 <mrp_pushnumber>
  90:	e3a00001 	mov	r0, #1
  94:	e8bd8038 	pop	{r3, r4, r5, pc}
  98:	65766153 	.word	0x65766153
  9c:	6c626154 	.word	0x6c626154
  a0:	726d3a65 	.word	0x726d3a65
  a4:	65706f5f 	.word	0x65706f5f
  a8:	2522206e 	.word	0x2522206e
  ac:	66202273 	.word	0x66202273
  b0:	656c6961 	.word	0x656c6961
  b4:	00000064 	.word	0x00000064
  b8:	00000000 	.word	0x00000000

Disassembly of section i.bufreader:

00000000 <bufreader>:
   0:	e92d4070 	push	{r4, r5, r6, lr}
   4:	e1a05002 	mov	r5, r2
   8:	e1a04001 	mov	r4, r1
   c:	e4910004 	ldr	r0, [r1], #4
  10:	e3a02c01 	mov	r2, #256	; 0x100
  14:	ebfffffe 	bl	0 <mr_read>
  18:	e3500000 	cmp	r0, #0
  1c:	e5850000 	str	r0, [r5]
  20:	12840004 	addne	r0, r4, #4
  24:	e8bd8070 	pop	{r4, r5, r6, pc}

Disassembly of section i.LoadTable:

00000000 <LoadTable>:
   0:	e92d4030 	push	{r4, r5, lr}
   4:	e24ddf41 	sub	sp, sp, #260	; 0x104
   8:	e1a04000 	mov	r4, r0
   c:	e3a02000 	mov	r2, #0
  10:	e3a01002 	mov	r1, #2
  14:	ebfffffe 	bl	0 <to_mr_tostring>
  18:	e1a05000 	mov	r5, r0
  1c:	e1a00004 	mov	r0, r4
  20:	e3a01002 	mov	r1, #2
  24:	ebfffffe 	bl	0 <mrp_settop>
  28:	e3e01001 	mvn	r1, #1
  2c:	e1a00004 	mov	r0, r4
  30:	ebfffffe 	bl	0 <mrp_settop>
  34:	e3a02005 	mov	r2, #5
  38:	e3a01001 	mov	r1, #1
  3c:	e1a00004 	mov	r0, r4
  40:	ebfffffe 	bl	0 <mr_L_checktype>
  44:	e3a01001 	mov	r1, #1
  48:	e1a00005 	mov	r0, r5
  4c:	ebfffffe 	bl	0 <mr_open>
  50:	e3500000 	cmp	r0, #0
  54:	e58d0000 	str	r0, [sp]
  58:	1a000009 	bne	84 <LoadTable+0x84>
  5c:	e1a01005 	mov	r1, r5
  60:	e28f0040 	add	r0, pc, #64	; 0x40
  64:	ebfffffe 	bl	0 <mr_printf>
  68:	e3a01000 	mov	r1, #0
  6c:	e1a00004 	mov	r0, r4
  70:	ebfffffe 	bl	0 <mrp_settop>
  74:	e3a01001 	mov	r1, #1
  78:	e1a00004 	mov	r0, r4
  7c:	ebfffffe 	bl	0 <mrp_settop>
  80:	ea000005 	b	9c <LoadTable+0x9c>
  84:	e59f1038 	ldr	r1, [pc, #56]	; c4 <LoadTable+0xc4>
  88:	e1a0200d 	mov	r2, sp
  8c:	e1a00004 	mov	r0, r4
  90:	ebfffffe 	bl	0 <mr_store_unpersist>
  94:	e59d0000 	ldr	r0, [sp]
  98:	ebfffffe 	bl	0 <mr_close>
  9c:	e3a00001 	mov	r0, #1
  a0:	e28ddf41 	add	sp, sp, #260	; 0x104
  a4:	e8bd8030 	pop	{r4, r5, pc}
  a8:	64616f4c 	.word	0x64616f4c
  ac:	6c626154 	.word	0x6c626154
  b0:	726d3a65 	.word	0x726d3a65
  b4:	65706f5f 	.word	0x65706f5f
  b8:	2522206e 	.word	0x2522206e
  bc:	65202273 	.word	0x65202273
  c0:	00007272 	.word	0x00007272
  c4:	00000000 	.word	0x00000000

Disassembly of section i._mr_GetSysInfo:

00000000 <_mr_GetSysInfo>:
   0:	e92d4070 	push	{r4, r5, r6, lr}
   4:	e24dd048 	sub	sp, sp, #72	; 0x48
   8:	e1a06000 	mov	r6, r0
   c:	e3a02001 	mov	r2, #1
  10:	e3a01001 	mov	r1, #1
  14:	ebfffffe 	bl	0 <mr_L_optnumber>
  18:	e1a05800 	lsl	r5, r0, #16
  1c:	e1a05825 	lsr	r5, r5, #16
  20:	e1a00006 	mov	r0, r6
  24:	ebfffffe 	bl	0 <mrp_newtable>
  28:	e3a02e7b 	mov	r2, #1968	; 0x7b0
  2c:	e28f1e1e 	add	r1, pc, #480	; 0x1e0
  30:	e1a00006 	mov	r0, r6
  34:	ebfffffe 	bl	0 <_mr_GetSysInfo>
  38:	e59f41dc 	ldr	r4, [pc, #476]	; 21c <_mr_GetSysInfo+0x21c>
  3c:	e28f1f77 	add	r1, pc, #476	; 0x1dc
  40:	e5942044 	ldr	r2, [r4, #68]	; 0x44
  44:	e1a00006 	mov	r0, r6
  48:	ebfffffe 	bl	0 <_mr_GetSysInfo>
  4c:	e5942048 	ldr	r2, [r4, #72]	; 0x48
  50:	e28f1e1d 	add	r1, pc, #464	; 0x1d0
  54:	e1a00006 	mov	r0, r6
  58:	ebfffffe 	bl	0 <_mr_GetSysInfo>
  5c:	e5942044 	ldr	r2, [r4, #68]	; 0x44
  60:	e28f1f72 	add	r1, pc, #456	; 0x1c8
  64:	e1a00006 	mov	r0, r6
  68:	ebfffffe 	bl	0 <_mr_GetSysInfo>
  6c:	e5942048 	ldr	r2, [r4, #72]	; 0x48
  70:	e28f1d07 	add	r1, pc, #448	; 0x1c0
  74:	e1a00006 	mov	r0, r6
  78:	ebfffffe 	bl	0 <_mr_GetSysInfo>
  7c:	e59f01bc 	ldr	r0, [pc, #444]	; 240 <_mr_GetSysInfo+0x240>
  80:	e28d3040 	add	r3, sp, #64	; 0x40
  84:	e28d2044 	add	r2, sp, #68	; 0x44
  88:	e1a01005 	mov	r1, r5
  8c:	ebfffffe 	bl	0 <mr_getCharBitmap>
  90:	e59d2044 	ldr	r2, [sp, #68]	; 0x44
  94:	e28f1f6a 	add	r1, pc, #424	; 0x1a8
  98:	e1a00006 	mov	r0, r6
  9c:	ebfffffe 	bl	0 <_mr_GetSysInfo>
  a0:	e59d2040 	ldr	r2, [sp, #64]	; 0x40
  a4:	e28f1f6a 	add	r1, pc, #424	; 0x1a8
  a8:	e1a00006 	mov	r0, r6
  ac:	ebfffffe 	bl	0 <_mr_GetSysInfo>
  b0:	e59d2044 	ldr	r2, [sp, #68]	; 0x44
  b4:	e28f1f69 	add	r1, pc, #420	; 0x1a4
  b8:	e1a00006 	mov	r0, r6
  bc:	ebfffffe 	bl	0 <_mr_GetSysInfo>
  c0:	e59d2040 	ldr	r2, [sp, #64]	; 0x40
  c4:	e28f1f66 	add	r1, pc, #408	; 0x198
  c8:	e1a00006 	mov	r0, r6
  cc:	ebfffffe 	bl	0 <_mr_GetSysInfo>
  d0:	e28d3040 	add	r3, sp, #64	; 0x40
  d4:	e28d2044 	add	r2, sp, #68	; 0x44
  d8:	e1a01005 	mov	r1, r5
  dc:	e3a00032 	mov	r0, #50	; 0x32
  e0:	ebfffffe 	bl	0 <mr_getCharBitmap>
  e4:	e59d2044 	ldr	r2, [sp, #68]	; 0x44
  e8:	e28f1f5e 	add	r1, pc, #376	; 0x178
  ec:	e1a00006 	mov	r0, r6
  f0:	ebfffffe 	bl	0 <_mr_GetSysInfo>
  f4:	e59d2040 	ldr	r2, [sp, #64]	; 0x40
  f8:	e28f1f5e 	add	r1, pc, #376	; 0x178
  fc:	e1a00006 	mov	r0, r6
 100:	ebfffffe 	bl	0 <_mr_GetSysInfo>
 104:	e59d2044 	ldr	r2, [sp, #68]	; 0x44
 108:	e28f1f5d 	add	r1, pc, #372	; 0x174
 10c:	e1a00006 	mov	r0, r6
 110:	ebfffffe 	bl	0 <_mr_GetSysInfo>
 114:	e59d2040 	ldr	r2, [sp, #64]	; 0x40
 118:	e28f1f5b 	add	r1, pc, #364	; 0x16c
 11c:	e1a00006 	mov	r0, r6
 120:	ebfffffe 	bl	0 <_mr_GetSysInfo>
 124:	e59f2168 	ldr	r2, [pc, #360]	; 294 <_mr_GetSysInfo+0x294>
 128:	e28f1f5a 	add	r1, pc, #360	; 0x168
 12c:	e1a00006 	mov	r0, r6
 130:	ebfffffe 	bl	0 <_mr_GetSysInfo>
 134:	e59f2158 	ldr	r2, [pc, #344]	; 294 <_mr_GetSysInfo+0x294>
 138:	e28f1f59 	add	r1, pc, #356	; 0x164
 13c:	e1a00006 	mov	r0, r6
 140:	ebfffffe 	bl	0 <_mr_GetSysInfo>
 144:	e1a0000d 	mov	r0, sp
 148:	ebfffffe 	bl	0 <mr_getUserInfo>
 14c:	e3500000 	cmp	r0, #0
 150:	1a000016 	bne	1b0 <_mr_GetSysInfo+0x1b0>
 154:	e28f0f55 	add	r0, pc, #340	; 0x154
 158:	ebfffffe 	bl	0 <mr_printf>
 15c:	e1a0400d 	mov	r4, sp
 160:	e28d2020 	add	r2, sp, #32
 164:	e28f1f56 	add	r1, pc, #344	; 0x158
 168:	e1a00006 	mov	r0, r6
 16c:	ebfffffe 	bl	0 <_mr_GetSysInfo>
 170:	e2842028 	add	r2, r4, #40	; 0x28
 174:	e28f1e15 	add	r1, pc, #336	; 0x150
 178:	e1a00006 	mov	r0, r6
 17c:	ebfffffe 	bl	0 <_mr_GetSysInfo>
 180:	e3a03010 	mov	r3, #16
 184:	e1a0200d 	mov	r2, sp
 188:	e28f1f51 	add	r1, pc, #324	; 0x144
 18c:	e1a00006 	mov	r0, r6
 190:	ebfffffe 	bl	0 <_mr_GetSysInfo>
 194:	e3a03010 	mov	r3, #16
 198:	e2842010 	add	r2, r4, #16
 19c:	e28f1f4e 	add	r1, pc, #312	; 0x138
 1a0:	e1a00006 	mov	r0, r6
 1a4:	ebfffffe 	bl	0 <_mr_GetSysInfo>
 1a8:	e59d2030 	ldr	r2, [sp, #48]	; 0x30
 1ac:	ea000012 	b	1fc <_mr_GetSysInfo+0x1fc>
 1b0:	e28f0f4b 	add	r0, pc, #300	; 0x12c
 1b4:	ebfffffe 	bl	0 <mr_printf>
 1b8:	e28f2f4f 	add	r2, pc, #316	; 0x13c
 1bc:	e28f1c01 	add	r1, pc, #256	; 0x100
 1c0:	e1a00006 	mov	r0, r6
 1c4:	ebfffffe 	bl	0 <_mr_GetSysInfo>
 1c8:	e28f2f4b 	add	r2, pc, #300	; 0x12c
 1cc:	e28f10f8 	add	r1, pc, #248	; 0xf8
 1d0:	e1a00006 	mov	r0, r6
 1d4:	ebfffffe 	bl	0 <_mr_GetSysInfo>
 1d8:	e28f2f49 	add	r2, pc, #292	; 0x124
 1dc:	e28f10f0 	add	r1, pc, #240	; 0xf0
 1e0:	e1a00006 	mov	r0, r6
 1e4:	ebfffffe 	bl	0 <_mr_GetSysInfo>
 1e8:	e28f2f45 	add	r2, pc, #276	; 0x114
 1ec:	e28f10e8 	add	r1, pc, #232	; 0xe8
 1f0:	e1a00006 	mov	r0, r6
 1f4:	ebfffffe 	bl	0 <_mr_GetSysInfo>
 1f8:	e3a02000 	mov	r2, #0
 1fc:	e28f1f41 	add	r1, pc, #260	; 0x104
 200:	e1a00006 	mov	r0, r6
 204:	ebfffffe 	bl	0 <_mr_GetSysInfo>
 208:	e3a00001 	mov	r0, #1
 20c:	e28dd048 	add	sp, sp, #72	; 0x48
 210:	e8bd8070 	pop	{r4, r5, r6, pc}
 214:	65766d76 	.word	0x65766d76
 218:	00000072 	.word	0x00000072
 21c:	00000000 	.word	0x00000000
 220:	65726353 	.word	0x65726353
 224:	00576e65 	.word	0x00576e65
 228:	65726353 	.word	0x65726353
 22c:	00486e65 	.word	0x00486e65
 230:	77726373 	.word	0x77726373
 234:	00000000 	.word	0x00000000
 238:	68726373 	.word	0x68726373
 23c:	00000000 	.word	0x00000000
 240:	000070b9 	.word	0x000070b9
 244:	6e696843 	.word	0x6e696843
 248:	57657365 	.word	0x57657365
 24c:	68746469 	.word	0x68746469
 250:	00000000 	.word	0x00000000
 254:	6e696843 	.word	0x6e696843
 258:	48657365 	.word	0x48657365
 25c:	00686769 	.word	0x00686769
 260:	00776863 	.word	0x00776863
 264:	00686863 	.word	0x00686863
 268:	6c676e45 	.word	0x6c676e45
 26c:	57687369 	.word	0x57687369
 270:	68746469 	.word	0x68746469
 274:	00000000 	.word	0x00000000
 278:	6c676e45 	.word	0x6c676e45
 27c:	48687369 	.word	0x48687369
 280:	00686769 	.word	0x00686769
 284:	77637361 	.word	0x77637361
 288:	00000000 	.word	0x00000000
 28c:	68637361 	.word	0x68637361
 290:	00000000 	.word	0x00000000
 294:	00000360 	.word	0x00000360
 298:	6b636150 	.word	0x6b636150
 29c:	656d614e 	.word	0x656d614e
 2a0:	00000000 	.word	0x00000000
 2a4:	6b636170 	.word	0x6b636170
 2a8:	656d616e 	.word	0x656d616e
 2ac:	00000000 	.word	0x00000000
 2b0:	675f726d 	.word	0x675f726d
 2b4:	73557465 	.word	0x73557465
 2b8:	6e497265 	.word	0x6e497265
 2bc:	6f206f66 	.word	0x6f206f66
 2c0:	0000216b 	.word	0x0000216b
 2c4:	616d7368 	.word	0x616d7368
 2c8:	0000006e 	.word	0x0000006e
 2cc:	79747368 	.word	0x79747368
 2d0:	00006570 	.word	0x00006570
 2d4:	49454d49 	.word	0x49454d49
 2d8:	00000000 	.word	0x00000000
 2dc:	49534d49 	.word	0x49534d49
 2e0:	00000000 	.word	0x00000000
 2e4:	675f726d 	.word	0x675f726d
 2e8:	73557465 	.word	0x73557465
 2ec:	6e497265 	.word	0x6e497265
 2f0:	66206f66 	.word	0x66206f66
 2f4:	656c6961 	.word	0x656c6961
 2f8:	00002164 	.word	0x00002164
 2fc:	656e6f6e 	.word	0x656e6f6e
 300:	00000000 	.word	0x00000000
 304:	00003030 	.word	0x00003030
 308:	65767368 	.word	0x65767368
 30c:	00000072 	.word	0x00000072

Disassembly of section i._mr_GetDatetime:

00000000 <_mr_GetDatetime>:
   0:	e92d401c 	push	{r2, r3, r4, lr}
   4:	e1a04000 	mov	r4, r0
   8:	e1a0000d 	mov	r0, sp
   c:	ebfffffe 	bl	0 <mr_getDatetime>
  10:	e3500000 	cmp	r0, #0
  14:	13a00000 	movne	r0, #0
  18:	1a00001a 	bne	88 <_mr_GetDatetime+0x88>
  1c:	e1a00004 	mov	r0, r4
  20:	ebfffffe 	bl	0 <mrp_newtable>
  24:	e1dd20b0 	ldrh	r2, [sp]
  28:	e28f105c 	add	r1, pc, #92	; 0x5c
  2c:	e1a00004 	mov	r0, r4
  30:	ebfffffe 	bl	0 <_mr_GetDatetime>
  34:	e5dd2002 	ldrb	r2, [sp, #2]
  38:	e28f1054 	add	r1, pc, #84	; 0x54
  3c:	e1a00004 	mov	r0, r4
  40:	ebfffffe 	bl	0 <_mr_GetDatetime>
  44:	e5dd2003 	ldrb	r2, [sp, #3]
  48:	e28f1048 	add	r1, pc, #72	; 0x48
  4c:	e1a00004 	mov	r0, r4
  50:	ebfffffe 	bl	0 <_mr_GetDatetime>
  54:	e5dd2004 	ldrb	r2, [sp, #4]
  58:	e28f103c 	add	r1, pc, #60	; 0x3c
  5c:	e1a00004 	mov	r0, r4
  60:	ebfffffe 	bl	0 <_mr_GetDatetime>
  64:	e5dd2005 	ldrb	r2, [sp, #5]
  68:	e28f1034 	add	r1, pc, #52	; 0x34
  6c:	e1a00004 	mov	r0, r4
  70:	ebfffffe 	bl	0 <_mr_GetDatetime>
  74:	e5dd2006 	ldrb	r2, [sp, #6]
  78:	e28f1028 	add	r1, pc, #40	; 0x28
  7c:	e1a00004 	mov	r0, r4
  80:	ebfffffe 	bl	0 <_mr_GetDatetime>
  84:	e3a00001 	mov	r0, #1
  88:	e8bd801c 	pop	{r2, r3, r4, pc}
  8c:	72616579 	.word	0x72616579
  90:	00000000 	.word	0x00000000
  94:	006e6f6d 	.word	0x006e6f6d
  98:	00796164 	.word	0x00796164
  9c:	72756f68 	.word	0x72756f68
  a0:	00000000 	.word	0x00000000
  a4:	006e696d 	.word	0x006e696d
  a8:	00636573 	.word	0x00636573

Disassembly of section i.Call:

00000000 <Call>:
   0:	e92d4070 	push	{r4, r5, r6, lr}
   4:	e1a05000 	mov	r5, r0
   8:	e3a02000 	mov	r2, #0
   c:	e3a01001 	mov	r1, #1
  10:	ebfffffe 	bl	0 <to_mr_tostring>
  14:	e1a04000 	mov	r4, r0
  18:	e1a00005 	mov	r0, r5
  1c:	e3a01001 	mov	r1, #1
  20:	ebfffffe 	bl	0 <mrp_settop>
  24:	e1a00004 	mov	r0, r4
  28:	ebfffffe 	bl	0 <mr_call>
  2c:	e3a00000 	mov	r0, #0
  30:	e8bd8070 	pop	{r4, r5, r6, pc}

Disassembly of section i.LoadPack:

00000000 <LoadPack>:
   0:	e92d4070 	push	{r4, r5, r6, lr}
   4:	e24dd018 	sub	sp, sp, #24
   8:	e1a06000 	mov	r6, r0
   c:	e3a02000 	mov	r2, #0
  10:	e3a01001 	mov	r1, #1
  14:	ebfffffe 	bl	0 <to_mr_tostring>
  18:	e1a05000 	mov	r5, r0
  1c:	e59f00e0 	ldr	r0, [pc, #224]	; 104 <LoadPack+0x104>
  20:	e5900008 	ldr	r0, [r0, #8]
  24:	e3100002 	tst	r0, #2
  28:	0a000023 	beq	bc <LoadPack+0xbc>
  2c:	e3a01001 	mov	r1, #1
  30:	e1a00005 	mov	r0, r5
  34:	ebfffffe 	bl	0 <mr_open>
  38:	e1b04000 	movs	r4, r0
  3c:	1a000003 	bne	50 <LoadPack+0x50>
  40:	e1a01005 	mov	r1, r5
  44:	e28f00bc 	add	r0, pc, #188	; 0xbc
  48:	ebfffffe 	bl	0 <mr_printf>
  4c:	ea00002a 	b	fc <LoadPack+0xfc>
  50:	e3a02000 	mov	r2, #0
  54:	e3a01034 	mov	r1, #52	; 0x34
  58:	e1a00004 	mov	r0, r4
  5c:	ebfffffe 	bl	0 <mr_seek>
  60:	e3500000 	cmp	r0, #0
  64:	aa000004 	bge	7c <LoadPack+0x7c>
  68:	e1a00004 	mov	r0, r4
  6c:	ebfffffe 	bl	0 <mr_close>
  70:	e28f1098 	add	r1, pc, #152	; 0x98
  74:	e3a02000 	mov	r2, #0
  78:	ea00001d 	b	f4 <LoadPack+0xf4>
  7c:	e3a02018 	mov	r2, #24
  80:	e1a0100d 	mov	r1, sp
  84:	e1a00004 	mov	r0, r4
  88:	ebfffffe 	bl	0 <mr_read>
  8c:	e3500018 	cmp	r0, #24
  90:	e1a00004 	mov	r0, r4
  94:	0a000003 	beq	a8 <LoadPack+0xa8>
  98:	ebfffffe 	bl	0 <mr_close>
  9c:	e28f106c 	add	r1, pc, #108	; 0x6c
  a0:	e3a02001 	mov	r2, #1
  a4:	ea000012 	b	f4 <LoadPack+0xf4>
  a8:	ebfffffe 	bl	0 <mr_close>
  ac:	e1a0000d 	mov	r0, sp
  b0:	ebfffffe 	bl	0 <LoadPack>
  b4:	e3500000 	cmp	r0, #0
  b8:	1a00000b 	bne	ec <LoadPack+0xec>
  bc:	e3a01001 	mov	r1, #1
  c0:	e1a00006 	mov	r0, r6
  c4:	ebfffffe 	bl	0 <mrp_settop>
  c8:	e59f1050 	ldr	r1, [pc, #80]	; 120 <LoadPack+0x120>
  cc:	e1a00006 	mov	r0, r6
  d0:	ebfffffe 	bl	0 <mrp_pushstring>
  d4:	e59f0044 	ldr	r0, [pc, #68]	; 120 <LoadPack+0x120>
  d8:	e1a01005 	mov	r1, r5
  dc:	ebfffffe 	bl	0 <strcpy>
  e0:	e3a00001 	mov	r0, #1
  e4:	e28dd018 	add	sp, sp, #24
  e8:	e8bd8070 	pop	{r4, r5, r6, pc}
  ec:	e28f101c 	add	r1, pc, #28
  f0:	e3a02002 	mov	r2, #2
  f4:	e59f0028 	ldr	r0, [pc, #40]	; 124 <LoadPack+0x124>
  f8:	ebfffffe 	bl	0 <mr_printf>
  fc:	e3a00000 	mov	r0, #0
 100:	eafffff7 	b	e4 <LoadPack+0xe4>
 104:	00000000 	.word	0x00000000
 108:	22732522 	.word	0x22732522
 10c:	20736920 	.word	0x20736920
 110:	75616e75 	.word	0x75616e75
 114:	726f6874 	.word	0x726f6874
 118:	64657a69 	.word	0x64657a69
 11c:	00000000 	.word	0x00000000
 120:	00000360 	.word	0x00000360
 124:	00000068 	.word	0x00000068

Disassembly of section i.SendSms:

00000000 <SendSms>:
   0:	e92d41f0 	push	{r4, r5, r6, r7, r8, lr}
   4:	e1a07000 	mov	r7, r0
   8:	e28f2060 	add	r2, pc, #96	; 0x60
   c:	e3a01001 	mov	r1, #1
  10:	ebfffffe 	bl	0 <to_mr_tostring>
  14:	e1a04000 	mov	r4, r0
  18:	e1a00007 	mov	r0, r7
  1c:	e28f204c 	add	r2, pc, #76	; 0x4c
  20:	e3a01002 	mov	r1, #2
  24:	ebfffffe 	bl	0 <to_mr_tostring>
  28:	e1a05000 	mov	r5, r0
  2c:	e1a00007 	mov	r0, r7
  30:	e3a02000 	mov	r2, #0
  34:	e3a01003 	mov	r1, #3
  38:	ebfffffe 	bl	0 <to_mr_tonumber>
  3c:	e1a06000 	mov	r6, r0
  40:	e1a00007 	mov	r0, r7
  44:	e3a01002 	mov	r1, #2
  48:	ebfffffe 	bl	0 <mrp_settop>
  4c:	e1a02006 	mov	r2, r6
  50:	e1a01005 	mov	r1, r5
  54:	e1a00004 	mov	r0, r4
  58:	ebfffffe 	bl	0 <mr_sendSms>
  5c:	e1a01000 	mov	r1, r0
  60:	e1a00007 	mov	r0, r7
  64:	ebfffffe 	bl	0 <mrp_pushnumber>
  68:	e3a00001 	mov	r0, #1
  6c:	e8bd81f0 	pop	{r4, r5, r6, r7, r8, pc}
  70:	00000030 	.word	0x00000030

Disassembly of section i.GetNetworkID:

00000000 <GetNetworkID>:
   0:	e92d4010 	push	{r4, lr}
   4:	e1a04000 	mov	r4, r0
   8:	ebfffffe 	bl	0 <mr_getNetworkID>
   c:	e1a01000 	mov	r1, r0
  10:	e1a00004 	mov	r0, r4
  14:	ebfffffe 	bl	0 <mrp_pushnumber>
  18:	e3a00001 	mov	r0, #1
  1c:	e8bd8010 	pop	{r4, pc}

Disassembly of section i.ConnectWAP:

00000000 <ConnectWAP>:
   0:	e92d4070 	push	{r4, r5, r6, lr}
   4:	e1a05000 	mov	r5, r0
   8:	e3a02000 	mov	r2, #0
   c:	e3a01001 	mov	r1, #1
  10:	ebfffffe 	bl	0 <to_mr_tostring>
  14:	e1a04000 	mov	r4, r0
  18:	e1a00005 	mov	r0, r5
  1c:	e3a01001 	mov	r1, #1
  20:	ebfffffe 	bl	0 <mrp_settop>
  24:	e1a00004 	mov	r0, r4
  28:	ebfffffe 	bl	0 <mr_connectWAP>
  2c:	e3a00000 	mov	r0, #0
  30:	e8bd8070 	pop	{r4, r5, r6, pc}

Disassembly of section i.MRF_RunFile:

00000000 <MRF_RunFile>:
   0:	e92d4070 	push	{r4, r5, r6, lr}
   4:	e1a06000 	mov	r6, r0
   8:	e3a02000 	mov	r2, #0
   c:	e3a01001 	mov	r1, #1
  10:	ebfffffe 	bl	0 <to_mr_tostring>
  14:	e1a04000 	mov	r4, r0
  18:	e1a00006 	mov	r0, r6
  1c:	e3a02000 	mov	r2, #0
  20:	e3a01002 	mov	r1, #2
  24:	ebfffffe 	bl	0 <to_mr_tostring>
  28:	e1a05000 	mov	r5, r0
  2c:	e1a00006 	mov	r0, r6
  30:	e3a02000 	mov	r2, #0
  34:	e3a01003 	mov	r1, #3
  38:	ebfffffe 	bl	0 <to_mr_tostring>
  3c:	e1a06000 	mov	r6, r0
  40:	e59f007c 	ldr	r0, [pc, #124]	; c4 <MRF_RunFile+0xc4>
  44:	e3a01080 	mov	r1, #128	; 0x80
  48:	ebfffffe 	bl	0 <__aeabi_memclr4>
  4c:	e59f0070 	ldr	r0, [pc, #112]	; c4 <MRF_RunFile+0xc4>
  50:	e3a0207f 	mov	r2, #127	; 0x7f
  54:	e1a01004 	mov	r1, r4
  58:	ebfffffe 	bl	0 <MRF_RunFile>
  5c:	e59f0064 	ldr	r0, [pc, #100]	; c8 <MRF_RunFile+0xc8>
  60:	e3a01080 	mov	r1, #128	; 0x80
  64:	ebfffffe 	bl	0 <__aeabi_memclr4>
  68:	e59f0058 	ldr	r0, [pc, #88]	; c8 <MRF_RunFile+0xc8>
  6c:	e3a0207f 	mov	r2, #127	; 0x7f
  70:	e1a01005 	mov	r1, r5
  74:	ebfffffe 	bl	0 <MRF_RunFile>
  78:	e59f004c 	ldr	r0, [pc, #76]	; cc <MRF_RunFile+0xcc>
  7c:	e3a01080 	mov	r1, #128	; 0x80
  80:	ebfffffe 	bl	0 <__aeabi_memclr4>
  84:	e3560000 	cmp	r6, #0
  88:	159f003c 	ldrne	r0, [pc, #60]	; cc <MRF_RunFile+0xcc>
  8c:	13a0207f 	movne	r2, #127	; 0x7f
  90:	11a01006 	movne	r1, r6
  94:	1bfffffe 	blne	0 <MRF_RunFile>
  98:	e59f4038 	ldr	r4, [pc, #56]	; d8 <MRF_RunFile+0xd8>
  9c:	e28f002c 	add	r0, pc, #44	; 0x2c
  a0:	e5840050 	str	r0, [r4, #80]	; 0x50
  a4:	e3a00064 	mov	r0, #100	; 0x64
  a8:	ebfffffe 	bl	0 <mr_timerStart>
  ac:	e3a00001 	mov	r0, #1
  b0:	e584000c 	str	r0, [r4, #12]
  b4:	e3a00003 	mov	r0, #3
  b8:	e5840004 	str	r0, [r4, #4]
  bc:	e3a00000 	mov	r0, #0
  c0:	e8bd8070 	pop	{r4, r5, r6, pc}
  c4:	00000360 	.word	0x00000360
  c8:	000003e0 	.word	0x000003e0
  cc:	00000460 	.word	0x00000460
  d0:	74736572 	.word	0x74736572
  d4:	00747261 	.word	0x00747261
  d8:	00000000 	.word	0x00000000

Disassembly of section i.mr_Gb2312toUnicode:

00000000 <mr_Gb2312toUnicode>:
   0:	e92d40f8 	push	{r3, r4, r5, r6, r7, lr}
   4:	e1a06000 	mov	r6, r0
   8:	e3a02000 	mov	r2, #0
   c:	e3a01001 	mov	r1, #1
  10:	ebfffffe 	bl	0 <to_mr_tostring>
  14:	e1a05000 	mov	r5, r0
  18:	e1a0200d 	mov	r2, sp
  1c:	e3a01000 	mov	r1, #0
  20:	ebfffffe 	bl	0 <c2u>
  24:	e1b04000 	movs	r4, r0
  28:	1a000007 	bne	4c <mr_Gb2312toUnicode+0x4c>
  2c:	e5d52000 	ldrb	r2, [r5]
  30:	e28f1038 	add	r1, pc, #56	; 0x38
  34:	e1a00006 	mov	r0, r6
  38:	ebfffffe 	bl	0 <mrp_pushfstring>
  3c:	e1a00006 	mov	r0, r6
  40:	ebfffffe 	bl	0 <mrp_error>
  44:	e3a00000 	mov	r0, #0
  48:	e8bd80f8 	pop	{r3, r4, r5, r6, r7, pc}
  4c:	e59d2000 	ldr	r2, [sp]
  50:	e1a01004 	mov	r1, r4
  54:	e1a00006 	mov	r0, r6
  58:	ebfffffe 	bl	0 <mrp_pushlstring>
  5c:	e59d1000 	ldr	r1, [sp]
  60:	e1a00004 	mov	r0, r4
  64:	ebfffffe 	bl	0 <mr_Gb2312toUnicode>
  68:	e3a00001 	mov	r0, #1
  6c:	e8bd80f8 	pop	{r3, r4, r5, r6, r7, pc}
  70:	33326247 	.word	0x33326247
  74:	6f743231 	.word	0x6f743231
  78:	63696e55 	.word	0x63696e55
  7c:	2065646f 	.word	0x2065646f
  80:	74786574 	.word	0x74786574
  84:	3d5d305b 	.word	0x3d5d305b
  88:	203a6425 	.word	0x203a6425
  8c:	21727265 	.word	0x21727265
  90:	00000000 	.word	0x00000000

Disassembly of section i.MRF_plat:

00000000 <MRF_plat>:
   0:	e92d4070 	push	{r4, r5, r6, lr}
   4:	e1a05000 	mov	r5, r0
   8:	e3a02000 	mov	r2, #0
   c:	e3a01001 	mov	r1, #1
  10:	ebfffffe 	bl	0 <to_mr_tonumber>
  14:	e1a04000 	mov	r4, r0
  18:	e1a00005 	mov	r0, r5
  1c:	e3a02000 	mov	r2, #0
  20:	e3a01002 	mov	r1, #2
  24:	ebfffffe 	bl	0 <to_mr_tonumber>
  28:	e1a01000 	mov	r1, r0
  2c:	e1a00004 	mov	r0, r4
  30:	ebfffffe 	bl	0 <mr_plat>
  34:	e1a01000 	mov	r1, r0
  38:	e1a00005 	mov	r0, r5
  3c:	ebfffffe 	bl	0 <mrp_pushnumber>
  40:	e3a00001 	mov	r0, #1
  44:	e8bd8070 	pop	{r4, r5, r6, pc}

Disassembly of section i.MRF_platEx:

00000000 <MRF_platEx>:
   0:	e92d4030 	push	{r4, r5, lr}
   4:	e24dd01c 	sub	sp, sp, #28
   8:	e1a05000 	mov	r5, r0
   c:	e3a02000 	mov	r2, #0
  10:	e3a01001 	mov	r1, #1
  14:	ebfffffe 	bl	0 <to_mr_tonumber>
  18:	e1a04000 	mov	r4, r0
  1c:	e1a00005 	mov	r0, r5
  20:	e28d2018 	add	r2, sp, #24
  24:	e3a01002 	mov	r1, #2
  28:	ebfffffe 	bl	0 <mr_L_checklstring>
  2c:	e1a01000 	mov	r1, r0
  30:	e3a00000 	mov	r0, #0
  34:	e28d300c 	add	r3, sp, #12
  38:	e28d2014 	add	r2, sp, #20
  3c:	e58d0014 	str	r0, [sp, #20]
  40:	e1cd20f0 	strd	r2, [sp]
  44:	e58d0010 	str	r0, [sp, #16]
  48:	e58d000c 	str	r0, [sp, #12]
  4c:	e59d2018 	ldr	r2, [sp, #24]
  50:	e1a00004 	mov	r0, r4
  54:	e28d3010 	add	r3, sp, #16
  58:	ebfffffe 	bl	0 <mr_platEx>
  5c:	e59d1010 	ldr	r1, [sp, #16]
  60:	e1a04000 	mov	r4, r0
  64:	e3510000 	cmp	r1, #0
  68:	159d2014 	ldrne	r2, [sp, #20]
  6c:	13520000 	cmpne	r2, #0
  70:	0a000002 	beq	80 <MRF_platEx+0x80>
  74:	e1a00005 	mov	r0, r5
  78:	ebfffffe 	bl	0 <mrp_pushlstring>
  7c:	ea000002 	b	8c <MRF_platEx+0x8c>
  80:	e28f102c 	add	r1, pc, #44	; 0x2c
  84:	e1a00005 	mov	r0, r5
  88:	ebfffffe 	bl	0 <mrp_pushstring>
  8c:	e59d200c 	ldr	r2, [sp, #12]
  90:	e3520000 	cmp	r2, #0
  94:	11cd01d0 	ldrdne	r0, [sp, #16]
  98:	112fff32 	blxne	r2
  9c:	e1a01004 	mov	r1, r4
  a0:	e1a00005 	mov	r0, r5
  a4:	ebfffffe 	bl	0 <mrp_pushnumber>
  a8:	e3a00002 	mov	r0, #2
  ac:	e28dd01c 	add	sp, sp, #28
  b0:	e8bd8030 	pop	{r4, r5, pc}
  b4:	00000000 	.word	0x00000000

Disassembly of section i.MRF_initNet:

00000000 <MRF_initNet>:
   0:	e92d4010 	push	{r4, lr}
   4:	e1a04000 	mov	r4, r0
   8:	e28f2014 	add	r2, pc, #20
   c:	e3a01001 	mov	r1, #1
  10:	ebfffffe 	bl	0 <to_mr_tostring>
  14:	e1a01000 	mov	r1, r0
  18:	e1a00004 	mov	r0, r4
  1c:	e8bd4010 	pop	{r4, lr}
  20:	eafffffe 	b	0 <mropen_socket>
  24:	656e6d63 	.word	0x656e6d63
  28:	00000074 	.word	0x00000074

Disassembly of section i.MRF_closeNet:

00000000 <MRF_closeNet>:
   0:	e92d4070 	push	{r4, r5, r6, lr}
   4:	e1a04000 	mov	r4, r0
   8:	ebfffffe 	bl	0 <mr_closeNetwork>
   c:	e1a05000 	mov	r5, r0
  10:	e1a00004 	mov	r0, r4
  14:	e28f107c 	add	r1, pc, #124	; 0x7c
  18:	ebfffffe 	bl	0 <mrp_pushstring>
  1c:	e59f107c 	ldr	r1, [pc, #124]	; a0 <MRF_closeNet+0xa0>
  20:	e1a00004 	mov	r0, r4
  24:	ebfffffe 	bl	0 <mrp_rawget>
  28:	e3e01000 	mvn	r1, #0
  2c:	e1a00004 	mov	r0, r4
  30:	ebfffffe 	bl	0 <mrp_type>
  34:	e3500005 	cmp	r0, #5
  38:	0a000005 	beq	54 <MRF_closeNet+0x54>
  3c:	e3e01001 	mvn	r1, #1
  40:	e1a00004 	mov	r0, r4
  44:	ebfffffe 	bl	0 <mrp_settop>
  48:	e28f0054 	add	r0, pc, #84	; 0x54
  4c:	ebfffffe 	bl	0 <mr_printf>
  50:	ea00000b 	b	84 <MRF_closeNet+0x84>
  54:	e28f1058 	add	r1, pc, #88	; 0x58
  58:	e1a00004 	mov	r0, r4
  5c:	ebfffffe 	bl	0 <mrp_pushstring>
  60:	e3a01003 	mov	r1, #3
  64:	e1a00004 	mov	r0, r4
  68:	ebfffffe 	bl	0 <mrp_pushnumber>
  6c:	e3e01002 	mvn	r1, #2
  70:	e1a00004 	mov	r0, r4
  74:	ebfffffe 	bl	0 <mrp_rawset>
  78:	e3e01001 	mvn	r1, #1
  7c:	e1a00004 	mov	r0, r4
  80:	ebfffffe 	bl	0 <mrp_settop>
  84:	e1a01005 	mov	r1, r5
  88:	e1a00004 	mov	r0, r4
  8c:	ebfffffe 	bl	0 <to_mr_pushnumber>
  90:	e3a00001 	mov	r0, #1
  94:	e8bd8070 	pop	{r4, r5, r6, pc}
  98:	6b636f73 	.word	0x6b636f73
  9c:	00007465 	.word	0x00007465
  a0:	ffffd8ef 	.word	0xffffd8ef
  a4:	6b636f53 	.word	0x6b636f53
  a8:	49207465 	.word	0x49207465
  ac:	21454c44 	.word	0x21454c44
  b0:	00000000 	.word	0x00000000
  b4:	74617473 	.word	0x74617473
  b8:	00000065 	.word	0x00000065

Disassembly of section i._mr_save_sms_cfg:

00000000 <_mr_save_sms_cfg>:
   0:	e59f007c 	ldr	r0, [pc, #124]	; 84 <_mr_save_sms_cfg+0x84>
   4:	e92d4010 	push	{r4, lr}
   8:	e5901020 	ldr	r1, [r0, #32]
   c:	e3510000 	cmp	r1, #0
  10:	0a000019 	beq	7c <_mr_save_sms_cfg+0x7c>
  14:	e3a01000 	mov	r1, #0
  18:	e5801020 	str	r1, [r0, #32]
  1c:	e590001c 	ldr	r0, [r0, #28]
  20:	e3a0100a 	mov	r1, #10
  24:	ebfffffe 	bl	0 <mr_open>
  28:	e1b04000 	movs	r4, r0
  2c:	1a000001 	bne	38 <_mr_save_sms_cfg+0x38>
  30:	e3e00000 	mvn	r0, #0
  34:	e8bd8010 	pop	{r4, pc}
  38:	e3a02000 	mov	r2, #0
  3c:	e3a01000 	mov	r1, #0
  40:	e1a00004 	mov	r0, r4
  44:	ebfffffe 	bl	0 <mr_seek>
  48:	e3700001 	cmn	r0, #1
  4c:	0a000005 	beq	68 <_mr_save_sms_cfg+0x68>
  50:	e59f2030 	ldr	r2, [pc, #48]	; 88 <_mr_save_sms_cfg+0x88>
  54:	e59f1030 	ldr	r1, [pc, #48]	; 8c <_mr_save_sms_cfg+0x8c>
  58:	e1a00004 	mov	r0, r4
  5c:	ebfffffe 	bl	0 <mr_write>
  60:	e3700001 	cmn	r0, #1
  64:	1a000002 	bne	74 <_mr_save_sms_cfg+0x74>
  68:	e1a00004 	mov	r0, r4
  6c:	ebfffffe 	bl	0 <mr_close>
  70:	eaffffee 	b	30 <_mr_save_sms_cfg+0x30>
  74:	e1a00004 	mov	r0, r4
  78:	ebfffffe 	bl	0 <mr_close>
  7c:	e3a00000 	mov	r0, #0
  80:	e8bd8010 	pop	{r4, pc}
  84:	00000000 	.word	0x00000000
  88:	000010e0 	.word	0x000010e0
  8c:	00000660 	.word	0x00000660

Disassembly of section i._mr_smsGetBytes:

00000000 <_mr_smsGetBytes>:
   0:	e92d4010 	push	{r4, lr}
   4:	e59fe034 	ldr	lr, [pc, #52]	; 40 <_mr_smsGetBytes+0x40>
   8:	e1a03001 	mov	r3, r1
   c:	e150000e 	cmp	r0, lr
  10:	2a000002 	bcs	20 <_mr_smsGetBytes+0x20>
  14:	e0801002 	add	r1, r0, r2
  18:	e151000e 	cmp	r1, lr
  1c:	ba000001 	blt	28 <_mr_smsGetBytes+0x28>
  20:	e3e00000 	mvn	r0, #0
  24:	e8bd8010 	pop	{r4, pc}
  28:	e59f1014 	ldr	r1, [pc, #20]	; 44 <_mr_smsGetBytes+0x44>
  2c:	e0811000 	add	r1, r1, r0
  30:	e1a00003 	mov	r0, r3
  34:	ebfffffe 	bl	0 <__aeabi_memcpy>
  38:	e3a00000 	mov	r0, #0
  3c:	e8bd8010 	pop	{r4, pc}
  40:	000010e0 	.word	0x000010e0
  44:	00000660 	.word	0x00000660

Disassembly of section i._mr_smsSetBytes:

00000000 <_mr_smsSetBytes>:
   0:	e92d4010 	push	{r4, lr}
   4:	e59fe038 	ldr	lr, [pc, #56]	; 44 <_mr_smsSetBytes+0x44>
   8:	e150000e 	cmp	r0, lr
   c:	2a000002 	bcs	1c <_mr_smsSetBytes+0x1c>
  10:	e0803002 	add	r3, r0, r2
  14:	e153000e 	cmp	r3, lr
  18:	ba000001 	blt	24 <_mr_smsSetBytes+0x24>
  1c:	e3e00000 	mvn	r0, #0
  20:	e8bd8010 	pop	{r4, pc}
  24:	e59fc01c 	ldr	ip, [pc, #28]	; 48 <_mr_smsSetBytes+0x48>
  28:	e3a03001 	mov	r3, #1
  2c:	e58c3020 	str	r3, [ip, #32]
  30:	e59f3014 	ldr	r3, [pc, #20]	; 4c <_mr_smsSetBytes+0x4c>
  34:	e0830000 	add	r0, r3, r0
  38:	ebfffffe 	bl	0 <__aeabi_memcpy>
  3c:	e3a00000 	mov	r0, #0
  40:	e8bd8010 	pop	{r4, pc}
  44:	000010e0 	.word	0x000010e0
  48:	00000000 	.word	0x00000000
  4c:	00000660 	.word	0x00000660

Disassembly of section i._mr_smsAddNum:

00000000 <_mr_smsAddNum>:
   0:	e92d4070 	push	{r4, r5, r6, lr}
   4:	e1a05000 	mov	r5, r0
   8:	e1a00001 	mov	r0, r1
   c:	e24dd020 	sub	sp, sp, #32
  10:	e1a06001 	mov	r6, r1
  14:	ebfffffe 	bl	0 <strlen>
  18:	e3500015 	cmp	r0, #21
  1c:	e1a04000 	mov	r4, r0
  20:	da000004 	ble	38 <_mr_smsAddNum+0x38>
  24:	e28f0044 	add	r0, pc, #68	; 0x44
  28:	ebfffffe 	bl	0 <mr_printf>
  2c:	e3e00000 	mvn	r0, #0
  30:	e28dd020 	add	sp, sp, #32
  34:	e8bd8070 	pop	{r4, r5, r6, pc}
  38:	e3a01020 	mov	r1, #32
  3c:	e1a0000d 	mov	r0, sp
  40:	ebfffffe 	bl	0 <__aeabi_memclr4>
  44:	e1a0200d 	mov	r2, sp
  48:	e1a01004 	mov	r1, r4
  4c:	e1a00006 	mov	r0, r6
  50:	ebfffffe 	bl	0 <_mr_encode>
  54:	e3a00078 	mov	r0, #120	; 0x78
  58:	e0800285 	add	r0, r0, r5, lsl #5
  5c:	e3a02020 	mov	r2, #32
  60:	e1a0100d 	mov	r1, sp
  64:	ebfffffe 	bl	0 <_mr_smsAddNum>
  68:	e3a00000 	mov	r0, #0
  6c:	eaffffef 	b	30 <_mr_smsAddNum+0x30>
  70:	206d756e 	.word	0x206d756e
  74:	206f6f74 	.word	0x206f6f74
  78:	676e6f6c 	.word	0x676e6f6c
  7c:	00000000 	.word	0x00000000

Disassembly of section i._mr_load_sms_cfg:

00000000 <_mr_load_sms_cfg>:
   0:	e92d41f0 	push	{r4, r5, r6, r7, r8, lr}
   4:	e59f50a8 	ldr	r5, [pc, #168]	; b4 <_mr_load_sms_cfg+0xb4>
   8:	e59f60a8 	ldr	r6, [pc, #168]	; b8 <_mr_load_sms_cfg+0xb8>
   c:	e3a00000 	mov	r0, #0
  10:	e5850020 	str	r0, [r5, #32]
  14:	e59f00a0 	ldr	r0, [pc, #160]	; bc <_mr_load_sms_cfg+0xbc>
  18:	e1a01006 	mov	r1, r6
  1c:	ebfffffe 	bl	0 <__aeabi_memclr4>
  20:	e595001c 	ldr	r0, [r5, #28]
  24:	ebfffffe 	bl	0 <mr_info>
  28:	e3500001 	cmp	r0, #1
  2c:	1a000015 	bne	88 <_mr_load_sms_cfg+0x88>
  30:	e595001c 	ldr	r0, [r5, #28]
  34:	e3a01001 	mov	r1, #1
  38:	ebfffffe 	bl	0 <mr_open>
  3c:	e1b04000 	movs	r4, r0
  40:	0a00000d 	beq	7c <_mr_load_sms_cfg+0x7c>
  44:	e59f1070 	ldr	r1, [pc, #112]	; bc <_mr_load_sms_cfg+0xbc>
  48:	e1a02006 	mov	r2, r6
  4c:	e1a00004 	mov	r0, r4
  50:	ebfffffe 	bl	0 <mr_read>
  54:	e1a07000 	mov	r7, r0
  58:	e1a00004 	mov	r0, r4
  5c:	ebfffffe 	bl	0 <mr_close>
  60:	e1570006 	cmp	r7, r6
  64:	0a000010 	beq	ac <_mr_load_sms_cfg+0xac>
  68:	e595001c 	ldr	r0, [r5, #28]
  6c:	e3a0100a 	mov	r1, #10
  70:	ebfffffe 	bl	0 <mr_open>
  74:	e3500000 	cmp	r0, #0
  78:	1a000001 	bne	84 <_mr_load_sms_cfg+0x84>
  7c:	e3e00000 	mvn	r0, #0
  80:	e8bd81f0 	pop	{r4, r5, r6, r7, r8, pc}
  84:	ebfffffe 	bl	0 <mr_close>
  88:	e28f1030 	add	r1, pc, #48	; 0x30
  8c:	e3a00000 	mov	r0, #0
  90:	ebfffffe 	bl	0 <_mr_load_sms_cfg>
  94:	e28f1030 	add	r1, pc, #48	; 0x30
  98:	e3a00001 	mov	r0, #1
  9c:	ebfffffe 	bl	0 <_mr_load_sms_cfg>
  a0:	e28f1030 	add	r1, pc, #48	; 0x30
  a4:	e3a00003 	mov	r0, #3
  a8:	ebfffffe 	bl	0 <_mr_load_sms_cfg>
  ac:	e3a00000 	mov	r0, #0
  b0:	e8bd81f0 	pop	{r4, r5, r6, r7, r8, pc}
  b4:	00000000 	.word	0x00000000
  b8:	000010e0 	.word	0x000010e0
  bc:	00000660 	.word	0x00000660
  c0:	38383135 	.word	0x38383135
  c4:	35303936 	.word	0x35303936
  c8:	00000038 	.word	0x00000038
  cc:	38383139 	.word	0x38383139
  d0:	35303936 	.word	0x35303936
  d4:	00000038 	.word	0x00000038
  d8:	00006161 	.word	0x00006161

Disassembly of section i._mr_smsReplyServer:

00000000 <_mr_smsReplyServer>:
   0:	e92d40f0 	push	{r4, r5, r6, r7, lr}
   4:	e24ddf57 	sub	sp, sp, #348	; 0x15c
   8:	e1a07000 	mov	r7, r0
   c:	e28d0004 	add	r0, sp, #4
  10:	e1a05001 	mov	r5, r1
  14:	ebfffffe 	bl	0 <mr_getUserInfo>
  18:	e3500000 	cmp	r0, #0
  1c:	13e00000 	mvnne	r0, #0
  20:	1a000046 	bne	140 <_mr_smsReplyServer+0x140>
  24:	e3a010a0 	mov	r1, #160	; 0xa0
  28:	e28d0044 	add	r0, sp, #68	; 0x44
  2c:	ebfffffe 	bl	0 <__aeabi_memclr4>
  30:	e3a000fa 	mov	r0, #250	; 0xfa
  34:	e5cd00e4 	strb	r0, [sp, #228]	; 0xe4
  38:	e3a000f1 	mov	r0, #241	; 0xf1
  3c:	e5cd00e5 	strb	r0, [sp, #229]	; 0xe5
  40:	e3550000 	cmp	r5, #0
  44:	e3a00002 	mov	r0, #2
  48:	e3a06011 	mov	r6, #17
  4c:	e28d40e4 	add	r4, sp, #228	; 0xe4
  50:	0a000007 	beq	74 <_mr_smsReplyServer+0x74>
  54:	e3a00006 	mov	r0, #6
  58:	e5cd60e6 	strb	r6, [sp, #230]	; 0xe6
  5c:	e5cd00e7 	strb	r0, [sp, #231]	; 0xe7
  60:	e2840004 	add	r0, r4, #4
  64:	e3a02010 	mov	r2, #16
  68:	e1a01005 	mov	r1, r5
  6c:	ebfffffe 	bl	0 <__aeabi_memcpy>
  70:	e3a00014 	mov	r0, #20
  74:	e7c46000 	strb	r6, [r4, r0]
  78:	e2800001 	add	r0, r0, #1
  7c:	e3a01002 	mov	r1, #2
  80:	e7c41000 	strb	r1, [r4, r0]
  84:	e2805001 	add	r5, r0, #1
  88:	e0840005 	add	r0, r4, r5
  8c:	e28d1004 	add	r1, sp, #4
  90:	e3a02010 	mov	r2, #16
  94:	ebfffffe 	bl	0 <__aeabi_memcpy>
  98:	e2850010 	add	r0, r5, #16
  9c:	e7c46000 	strb	r6, [r4, r0]
  a0:	e2800001 	add	r0, r0, #1
  a4:	e3a01003 	mov	r1, #3
  a8:	e7c41000 	strb	r1, [r4, r0]
  ac:	e2805001 	add	r5, r0, #1
  b0:	e28d6004 	add	r6, sp, #4
  b4:	e2861010 	add	r1, r6, #16
  b8:	e0840005 	add	r0, r4, r5
  bc:	e3a02010 	mov	r2, #16
  c0:	ebfffffe 	bl	0 <__aeabi_memcpy>
  c4:	e2850010 	add	r0, r5, #16
  c8:	e3a01015 	mov	r1, #21
  cc:	e7c41000 	strb	r1, [r4, r0]
  d0:	e2800001 	add	r0, r0, #1
  d4:	e3a01004 	mov	r1, #4
  d8:	e7c41000 	strb	r1, [r4, r0]
  dc:	e2805001 	add	r5, r0, #1
  e0:	e59d0034 	ldr	r0, [sp, #52]	; 0x34
  e4:	e59d1034 	ldr	r1, [sp, #52]	; 0x34
  e8:	e1a00c20 	lsr	r0, r0, #24
  ec:	e20118ff 	and	r1, r1, #16711680	; 0xff0000
  f0:	e1800421 	orr	r0, r0, r1, lsr #8
  f4:	e59d1034 	ldr	r1, [sp, #52]	; 0x34
  f8:	e3a02014 	mov	r2, #20
  fc:	e2011cff 	and	r1, r1, #65280	; 0xff00
 100:	e1800401 	orr	r0, r0, r1, lsl #8
 104:	e59d1034 	ldr	r1, [sp, #52]	; 0x34
 108:	e1800c01 	orr	r0, r0, r1, lsl #24
 10c:	e58d0034 	str	r0, [sp, #52]	; 0x34
 110:	e0840005 	add	r0, r4, r5
 114:	e2861020 	add	r1, r6, #32
 118:	ebfffffe 	bl	0 <__aeabi_memcpy>
 11c:	e2851014 	add	r1, r5, #20
 120:	e28d2044 	add	r2, sp, #68	; 0x44
 124:	e28d00e4 	add	r0, sp, #228	; 0xe4
 128:	ebfffffe 	bl	0 <_mr_encode>
 12c:	e3a02018 	mov	r2, #24
 130:	e28d1044 	add	r1, sp, #68	; 0x44
 134:	e1a00007 	mov	r0, r7
 138:	ebfffffe 	bl	0 <mr_sendSms>
 13c:	e3a00000 	mov	r0, #0
 140:	e28ddf57 	add	sp, sp, #348	; 0x15c
 144:	e8bd80f0 	pop	{r4, r5, r6, r7, pc}

Disassembly of section i._mr_smsGetNum:

00000000 <_mr_smsGetNum>:
   0:	e92d4010 	push	{r4, lr}
   4:	e1a04001 	mov	r4, r1
   8:	e3a01078 	mov	r1, #120	; 0x78
   c:	e0810280 	add	r0, r1, r0, lsl #5
  10:	e24dd020 	sub	sp, sp, #32
  14:	e1a0100d 	mov	r1, sp
  18:	e3a02020 	mov	r2, #32
  1c:	ebfffffe 	bl	0 <_mr_smsGetNum>
  20:	e1a0000d 	mov	r0, sp
  24:	ebfffffe 	bl	0 <strlen>
  28:	e350001f 	cmp	r0, #31
  2c:	83a0001f 	movhi	r0, #31
  30:	8a000001 	bhi	3c <_mr_smsGetNum+0x3c>
  34:	e1a0000d 	mov	r0, sp
  38:	ebfffffe 	bl	0 <strlen>
  3c:	e1a01000 	mov	r1, r0
  40:	e1a0000d 	mov	r0, sp
  44:	e1a02004 	mov	r2, r4
  48:	ebfffffe 	bl	0 <_mr_decode>
  4c:	e3500000 	cmp	r0, #0
  50:	13500020 	cmpne	r0, #32
  54:	e3a01000 	mov	r1, #0
  58:	25c41000 	strbcs	r1, [r4]
  5c:	37c41000 	strbcc	r1, [r4, r0]
  60:	e28dd020 	add	sp, sp, #32
  64:	33a00000 	movcc	r0, #0
  68:	23e00000 	mvncs	r0, #0
  6c:	e8bd8010 	pop	{r4, pc}

Disassembly of section i._mr_newSIMInd:

00000000 <_mr_newSIMInd>:
   0:	e92d4070 	push	{r4, r5, r6, lr}
   4:	e24dd028 	sub	sp, sp, #40	; 0x28
   8:	e1a06001 	mov	r6, r1
   c:	e1a04000 	mov	r4, r0
  10:	ebfffffe 	bl	0 <mr_getNetworkID>
  14:	e3540000 	cmp	r4, #0
  18:	13540001 	cmpne	r4, #1
  1c:	e1a05000 	mov	r5, r0
  20:	1a00001e 	bne	a0 <_mr_newSIMInd+0xa0>
  24:	ebfffffe 	bl	0 <_mr_newSIMInd>
  28:	ebfffffe 	bl	0 <_mr_newSIMInd>
  2c:	e3a02001 	mov	r2, #1
  30:	e28d1024 	add	r1, sp, #36	; 0x24
  34:	e3a00005 	mov	r0, #5
  38:	ebfffffe 	bl	0 <_mr_newSIMInd>
  3c:	e5dd0024 	ldrb	r0, [sp, #36]	; 0x24
  40:	e3500080 	cmp	r0, #128	; 0x80
  44:	3a000003 	bcc	58 <_mr_newSIMInd+0x58>
  48:	e28d1004 	add	r1, sp, #4
  4c:	e3a00003 	mov	r0, #3
  50:	ebfffffe 	bl	0 <_mr_newSIMInd>
  54:	ea00000e 	b	94 <_mr_newSIMInd+0x94>
  58:	e3550000 	cmp	r5, #0
  5c:	028d1004 	addeq	r1, sp, #4
  60:	03a00000 	moveq	r0, #0
  64:	0a000004 	beq	7c <_mr_newSIMInd+0x7c>
  68:	e3550001 	cmp	r5, #1
  6c:	13550002 	cmpne	r5, #2
  70:	1a000004 	bne	88 <_mr_newSIMInd+0x88>
  74:	e28d1004 	add	r1, sp, #4
  78:	e3a00001 	mov	r0, #1
  7c:	ebfffffe 	bl	0 <_mr_newSIMInd>
  80:	e3700001 	cmn	r0, #1
  84:	1a000002 	bne	94 <_mr_newSIMInd+0x94>
  88:	e3e00000 	mvn	r0, #0
  8c:	e28dd028 	add	sp, sp, #40	; 0x28
  90:	e8bd8070 	pop	{r4, r5, r6, pc}
  94:	e1a01006 	mov	r1, r6
  98:	e28d0004 	add	r0, sp, #4
  9c:	ebfffffe 	bl	0 <_mr_newSIMInd>
  a0:	e3a00000 	mov	r0, #0
  a4:	eafffff8 	b	8c <_mr_newSIMInd+0x8c>

Disassembly of section i.mr_newSIMInd:

00000000 <mr_newSIMInd>:
   0:	eafffffe 	b	0 <mr_newSIMInd>

Disassembly of section i._mr_TestCom:

00000000 <_mr_TestCom>:
   0:	e92d43f8 	push	{r3, r4, r5, r6, r7, r8, r9, lr}
   4:	e59f644c 	ldr	r6, [pc, #1100]	; 458 <_mr_TestCom+0x458>
   8:	e59fc44c 	ldr	ip, [pc, #1100]	; 45c <_mr_TestCom+0x45c>
   c:	e1a08000 	mov	r8, r0
  10:	e5960008 	ldr	r0, [r6, #8]
  14:	e151000c 	cmp	r1, ip
  18:	03a00001 	moveq	r0, #1
  1c:	e1a04002 	mov	r4, r2
  20:	05c60002 	strbeq	r0, [r6, #2]
  24:	e3a05000 	mov	r5, #0
  28:	0586408c 	streq	r4, [r6, #140]	; 0x8c
  2c:	0a000127 	beq	4d0 <_mr_TestCom+0x4d0>
  30:	ca00003c 	bgt	128 <_mr_TestCom+0x128>
  34:	e3510066 	cmp	r1, #102	; 0x66
  38:	05965088 	ldreq	r5, [r6, #136]	; 0x88
  3c:	0a000123 	beq	4d0 <_mr_TestCom+0x4d0>
  40:	ca00001a 	bgt	b0 <_mr_TestCom+0xb0>
  44:	e3510005 	cmp	r1, #5
  48:	05864030 	streq	r4, [r6, #48]	; 0x30
  4c:	0a00011f 	beq	4d0 <_mr_TestCom+0x4d0>
  50:	ca00000a 	bgt	80 <_mr_TestCom+0x80>
  54:	e3510001 	cmp	r1, #1
  58:	0a000089 	beq	284 <_mr_TestCom+0x284>
  5c:	e3510002 	cmp	r1, #2
  60:	05864024 	streq	r4, [r6, #36]	; 0x24
  64:	0a000119 	beq	4d0 <_mr_TestCom+0x4d0>
  68:	e3510003 	cmp	r1, #3
  6c:	05864028 	streq	r4, [r6, #40]	; 0x28
  70:	0a000116 	beq	4d0 <_mr_TestCom+0x4d0>
  74:	e3510004 	cmp	r1, #4
  78:	0586402c 	streq	r4, [r6, #44]	; 0x2c
  7c:	ea000113 	b	4d0 <_mr_TestCom+0x4d0>
  80:	e3510006 	cmp	r1, #6
  84:	05864034 	streq	r4, [r6, #52]	; 0x34
  88:	0a000110 	beq	4d0 <_mr_TestCom+0x4d0>
  8c:	e3510007 	cmp	r1, #7
  90:	01a00004 	moveq	r0, r4
  94:	0a000046 	beq	1b4 <_mr_TestCom+0x1b4>
  98:	e3510064 	cmp	r1, #100	; 0x64
  9c:	0596506c 	ldreq	r5, [r6, #108]	; 0x6c
  a0:	0a00010a 	beq	4d0 <_mr_TestCom+0x4d0>
  a4:	e3510065 	cmp	r1, #101	; 0x65
  a8:	05965070 	ldreq	r5, [r6, #112]	; 0x70
  ac:	ea000107 	b	4d0 <_mr_TestCom+0x4d0>
  b0:	e59fc3a8 	ldr	ip, [pc, #936]	; 460 <_mr_TestCom+0x460>
  b4:	e151000c 	cmp	r1, ip
  b8:	03800004 	orreq	r0, r0, #4
  bc:	0a000102 	beq	4cc <_mr_TestCom+0x4cc>
  c0:	ca00000c 	bgt	f8 <_mr_TestCom+0xf8>
  c4:	e35100c8 	cmp	r1, #200	; 0xc8
  c8:	0a00006f 	beq	28c <_mr_TestCom+0x28c>
  cc:	e35100c9 	cmp	r1, #201	; 0xc9
  d0:	0a0000fe 	beq	4d0 <_mr_TestCom+0x4d0>
  d4:	e1a00c04 	lsl	r0, r4, #24
  d8:	e3510f4b 	cmp	r1, #300	; 0x12c
  dc:	e1a00c40 	asr	r0, r0, #24
  e0:	05c60000 	strbeq	r0, [r6]
  e4:	0a0000f9 	beq	4d0 <_mr_TestCom+0x4d0>
  e8:	e241cc01 	sub	ip, r1, #256	; 0x100
  ec:	e25cc02d 	subs	ip, ip, #45	; 0x2d
  f0:	05c60001 	strbeq	r0, [r6, #1]
  f4:	ea0000f5 	b	4d0 <_mr_TestCom+0x4d0>
  f8:	e241cc01 	sub	ip, r1, #256	; 0x100
  fc:	e25cc02f 	subs	ip, ip, #47	; 0x2f
 100:	03c00004 	biceq	r0, r0, #4
 104:	0a0000f0 	beq	4cc <_mr_TestCom+0x4cc>
 108:	e3510e13 	cmp	r1, #304	; 0x130
 10c:	03800008 	orreq	r0, r0, #8
 110:	0a0000ed 	beq	4cc <_mr_TestCom+0x4cc>
 114:	e241cc01 	sub	ip, r1, #256	; 0x100
 118:	e25cc031 	subs	ip, ip, #49	; 0x31
 11c:	1a0000eb 	bne	4d0 <_mr_TestCom+0x4d0>
 120:	e3c00008 	bic	r0, r0, #8
 124:	ea0000e8 	b	4cc <_mr_TestCom+0x4cc>
 128:	e3510f66 	cmp	r1, #408	; 0x198
 12c:	e3a02000 	mov	r2, #0
 130:	0a00008a 	beq	360 <_mr_TestCom+0x360>
 134:	ca000030 	bgt	1fc <_mr_TestCom+0x1fc>
 138:	e59fc324 	ldr	ip, [pc, #804]	; 464 <_mr_TestCom+0x464>
 13c:	e151000c 	cmp	r1, ip
 140:	0a00005d 	beq	2bc <_mr_TestCom+0x2bc>
 144:	ca00001b 	bgt	1b8 <_mr_TestCom+0x1b8>
 148:	e241cc01 	sub	ip, r1, #256	; 0x100
 14c:	e25cc033 	subs	ip, ip, #51	; 0x33
 150:	05c62002 	strbeq	r2, [r6, #2]
 154:	0a0000dd 	beq	4d0 <_mr_TestCom+0x4d0>
 158:	e3510e19 	cmp	r1, #400	; 0x190
 15c:	0a000053 	beq	2b0 <_mr_TestCom+0x2b0>
 160:	e241cc01 	sub	ip, r1, #256	; 0x100
 164:	e25cc091 	subs	ip, ip, #145	; 0x91
 168:	05965044 	ldreq	r5, [r6, #68]	; 0x44
 16c:	05864044 	streq	r4, [r6, #68]	; 0x44
 170:	0a0000d6 	beq	4d0 <_mr_TestCom+0x4d0>
 174:	e241cc01 	sub	ip, r1, #256	; 0x100
 178:	e25cc092 	subs	ip, ip, #146	; 0x92
 17c:	1a0000d3 	bne	4d0 <_mr_TestCom+0x4d0>
 180:	e3a01002 	mov	r1, #2
 184:	e1a00008 	mov	r0, r8
 188:	ebfffffe 	bl	0 <mrp_isnumber>
 18c:	e3500000 	cmp	r0, #0
 190:	128f0e2d 	addne	r0, pc, #720	; 0x2d0
 194:	1a000003 	bne	1a8 <_mr_TestCom+0x1a8>
 198:	e28f2fb2 	add	r2, pc, #712	; 0x2c8
 19c:	e3a01002 	mov	r1, #2
 1a0:	e1a00008 	mov	r0, r8
 1a4:	ebfffffe 	bl	0 <to_mr_tostring>
 1a8:	e1a01000 	mov	r1, r0
 1ac:	e1a00008 	mov	r0, r8
 1b0:	ebfffffe 	bl	0 <mropen_socket>
 1b4:	e8bd83f8 	pop	{r3, r4, r5, r6, r7, r8, r9, pc}
 1b8:	e3510f65 	cmp	r1, #404	; 0x194
 1bc:	0a000042 	beq	2cc <_mr_TestCom+0x2cc>
 1c0:	e241cc01 	sub	ip, r1, #256	; 0x100
 1c4:	e25cc095 	subs	ip, ip, #149	; 0x95
 1c8:	0a000044 	beq	2e0 <_mr_TestCom+0x2e0>
 1cc:	e241cc01 	sub	ip, r1, #256	; 0x100
 1d0:	e25cc096 	subs	ip, ip, #150	; 0x96
 1d4:	05965048 	ldreq	r5, [r6, #72]	; 0x48
 1d8:	05864048 	streq	r4, [r6, #72]	; 0x48
 1dc:	0a0000bb 	beq	4d0 <_mr_TestCom+0x4d0>
 1e0:	e241cc01 	sub	ip, r1, #256	; 0x100
 1e4:	e25cc097 	subs	ip, ip, #151	; 0x97
 1e8:	059f0280 	ldreq	r0, [pc, #640]	; 470 <_mr_TestCom+0x470>
 1ec:	01a01004 	moveq	r1, r4
 1f0:	05864010 	streq	r4, [r6, #16]
 1f4:	0bfffffe 	bleq	0 <mr_plat>
 1f8:	ea0000b4 	b	4d0 <_mr_TestCom+0x4d0>
 1fc:	e3510f7e 	cmp	r1, #504	; 0x1f8
 200:	0a0000a5 	beq	49c <_mr_TestCom+0x49c>
 204:	ca000011 	bgt	250 <_mr_TestCom+0x250>
 208:	e3510f7d 	cmp	r1, #500	; 0x1f4
 20c:	0a00006a 	beq	3bc <_mr_TestCom+0x3bc>
 210:	e241cc01 	sub	ip, r1, #256	; 0x100
 214:	e25cc0f5 	subs	ip, ip, #245	; 0xf5
 218:	0a000069 	beq	3c4 <_mr_TestCom+0x3c4>
 21c:	e241cc01 	sub	ip, r1, #256	; 0x100
 220:	e25cc0f6 	subs	ip, ip, #246	; 0xf6
 224:	0a00007b 	beq	418 <_mr_TestCom+0x418>
 228:	e241cc01 	sub	ip, r1, #256	; 0x100
 22c:	e25cc0f7 	subs	ip, ip, #247	; 0xf7
 230:	1a0000a6 	bne	4d0 <_mr_TestCom+0x4d0>
 234:	e58d2000 	str	r2, [sp]
 238:	e3a02001 	mov	r2, #1
 23c:	e1a0100d 	mov	r1, sp
 240:	e3a00005 	mov	r0, #5
 244:	ebfffffe 	bl	0 <_mr_TestCom>
 248:	e5dd5000 	ldrb	r5, [sp]
 24c:	ea00009f 	b	4d0 <_mr_TestCom+0x4d0>
 250:	e241cb03 	sub	ip, r1, #3072	; 0xc00
 254:	e25cc0b3 	subs	ip, ip, #179	; 0xb3
 258:	0a000097 	beq	4bc <_mr_TestCom+0x4bc>
 25c:	e241cc0e 	sub	ip, r1, #3584	; 0xe00
 260:	e25cc02d 	subs	ip, ip, #45	; 0x2d
 264:	0a00008f 	beq	4a8 <_mr_TestCom+0x4a8>
 268:	e241cc0f 	sub	ip, r1, #3840	; 0xf00
 26c:	e25cc051 	subs	ip, ip, #81	; 0x51
 270:	0244c906 	subeq	ip, r4, #98304	; 0x18000
 274:	025cc030 	subseq	ip, ip, #48	; 0x30
 278:	1a000094 	bne	4d0 <_mr_TestCom+0x4d0>
 27c:	e3800002 	orr	r0, r0, #2
 280:	ea000091 	b	4cc <_mr_TestCom+0x4cc>
 284:	ebfffffe 	bl	0 <mr_getTime>
 288:	ea000070 	b	450 <_mr_TestCom+0x450>
 28c:	e5960004 	ldr	r0, [r6, #4]
 290:	e3500001 	cmp	r0, #1
 294:	1a00008d 	bne	4d0 <_mr_TestCom+0x4d0>
 298:	e5d60001 	ldrb	r0, [r6, #1]
 29c:	e3500000 	cmp	r0, #0
 2a0:	0a00008a 	beq	4d0 <_mr_TestCom+0x4d0>
 2a4:	e1a00004 	mov	r0, r4
 2a8:	ebfffffe 	bl	0 <mr_startShake>
 2ac:	ea000067 	b	450 <_mr_TestCom+0x450>
 2b0:	e1a00004 	mov	r0, r4
 2b4:	ebfffffe 	bl	0 <mr_sleep>
 2b8:	ea000084 	b	4d0 <_mr_TestCom+0x4d0>
 2bc:	e1a01004 	mov	r1, r4
 2c0:	e1a00008 	mov	r0, r8
 2c4:	ebfffffe 	bl	0 <mrp_setgcthreshold>
 2c8:	ea000080 	b	4d0 <_mr_TestCom+0x4d0>
 2cc:	e1a00804 	lsl	r0, r4, #16
 2d0:	e1a00840 	asr	r0, r0, #16
 2d4:	e3a01000 	mov	r1, #0
 2d8:	ebfffffe 	bl	0 <_mr_TestCom>
 2dc:	ea00005b 	b	450 <_mr_TestCom+0x450>
 2e0:	ebfffffe 	bl	0 <mr_closeNetwork>
 2e4:	e1a05000 	mov	r5, r0
 2e8:	e1a00008 	mov	r0, r8
 2ec:	e28f1d06 	add	r1, pc, #384	; 0x180
 2f0:	ebfffffe 	bl	0 <mrp_pushstring>
 2f4:	e59f1180 	ldr	r1, [pc, #384]	; 47c <_mr_TestCom+0x47c>
 2f8:	e1a00008 	mov	r0, r8
 2fc:	ebfffffe 	bl	0 <mrp_rawget>
 300:	e3e01000 	mvn	r1, #0
 304:	e1a00008 	mov	r0, r8
 308:	ebfffffe 	bl	0 <mrp_type>
 30c:	e3500005 	cmp	r0, #5
 310:	0a000005 	beq	32c <_mr_TestCom+0x32c>
 314:	e3e01001 	mvn	r1, #1
 318:	e1a00008 	mov	r0, r8
 31c:	ebfffffe 	bl	0 <mrp_settop>
 320:	e28f0f56 	add	r0, pc, #344	; 0x158
 324:	ebfffffe 	bl	0 <mr_printf>
 328:	ea000068 	b	4d0 <_mr_TestCom+0x4d0>
 32c:	e28f1f57 	add	r1, pc, #348	; 0x15c
 330:	e1a00008 	mov	r0, r8
 334:	ebfffffe 	bl	0 <mrp_pushstring>
 338:	e3a01003 	mov	r1, #3
 33c:	e1a00008 	mov	r0, r8
 340:	ebfffffe 	bl	0 <mrp_pushnumber>
 344:	e3e01002 	mvn	r1, #2
 348:	e1a00008 	mov	r0, r8
 34c:	ebfffffe 	bl	0 <mrp_rawset>
 350:	e3e01001 	mvn	r1, #1
 354:	e1a00008 	mov	r0, r8
 358:	ebfffffe 	bl	0 <mrp_settop>
 35c:	ea00005b 	b	4d0 <_mr_TestCom+0x4d0>
 360:	e59f7130 	ldr	r7, [pc, #304]	; 498 <_mr_TestCom+0x498>
 364:	e59701e8 	ldr	r0, [r7, #488]	; 0x1e8
 368:	e3500000 	cmp	r0, #0
 36c:	1a00000b 	bne	3a0 <_mr_TestCom+0x3a0>
 370:	e1a00004 	mov	r0, r4
 374:	ebfffffe 	bl	0 <_mr_TestCom>
 378:	e3500000 	cmp	r0, #0
 37c:	e58701ec 	str	r0, [r7, #492]	; 0x1ec
 380:	0a00000b 	beq	3b4 <_mr_TestCom+0x3b4>
 384:	e59711e4 	ldr	r1, [r7, #484]	; 0x1e4
 388:	e5960040 	ldr	r0, [r6, #64]	; 0x40
 38c:	ebfffffe 	bl	0 <_mr_TestCom>
 390:	e59701ec 	ldr	r0, [r7, #492]	; 0x1ec
 394:	e5860040 	str	r0, [r6, #64]	; 0x40
 398:	e58741e4 	str	r4, [r7, #484]	; 0x1e4
 39c:	ea00004b 	b	4d0 <_mr_TestCom+0x4d0>
 3a0:	e3500001 	cmp	r0, #1
 3a4:	1a000049 	bne	4d0 <_mr_TestCom+0x4d0>
 3a8:	e59701e4 	ldr	r0, [r7, #484]	; 0x1e4
 3ac:	e1500004 	cmp	r0, r4
 3b0:	2a000046 	bcs	4d0 <_mr_TestCom+0x4d0>
 3b4:	e3e05000 	mvn	r5, #0
 3b8:	ea000044 	b	4d0 <_mr_TestCom+0x4d0>
 3bc:	ebfffffe 	bl	0 <_mr_TestCom>
 3c0:	ea000022 	b	450 <_mr_TestCom+0x450>
 3c4:	e3a02000 	mov	r2, #0
 3c8:	e3a01003 	mov	r1, #3
 3cc:	e1a00008 	mov	r0, r8
 3d0:	ebfffffe 	bl	0 <to_mr_tonumber>
 3d4:	e1a06000 	mov	r6, r0
 3d8:	ebfffffe 	bl	0 <_mr_TestCom>
 3dc:	e1b05000 	movs	r5, r0
 3e0:	0a00000a 	beq	410 <_mr_TestCom+0x410>
 3e4:	e1a02006 	mov	r2, r6
 3e8:	e1a01005 	mov	r1, r5
 3ec:	e1a00004 	mov	r0, r4
 3f0:	ebfffffe 	bl	0 <_mr_TestCom>
 3f4:	e1a02006 	mov	r2, r6
 3f8:	e1a01005 	mov	r1, r5
 3fc:	e1a00008 	mov	r0, r8
 400:	ebfffffe 	bl	0 <mrp_pushlstring>
 404:	e1a01006 	mov	r1, r6
 408:	e1a00005 	mov	r0, r5
 40c:	ebfffffe 	bl	0 <_mr_TestCom>
 410:	e3a00001 	mov	r0, #1
 414:	e8bd83f8 	pop	{r3, r4, r5, r6, r7, r8, r9, pc}
 418:	e3a02000 	mov	r2, #0
 41c:	e3a01003 	mov	r1, #3
 420:	e1a00008 	mov	r0, r8
 424:	ebfffffe 	bl	0 <to_mr_tonumber>
 428:	e1a06000 	mov	r6, r0
 42c:	e1a00008 	mov	r0, r8
 430:	e3a01004 	mov	r1, #4
 434:	ebfffffe 	bl	0 <mrp_tostring>
 438:	e3500000 	cmp	r0, #0
 43c:	0a000023 	beq	4d0 <_mr_TestCom+0x4d0>
 440:	e1a01000 	mov	r1, r0
 444:	e1a00004 	mov	r0, r4
 448:	e1a02006 	mov	r2, r6
 44c:	ebfffffe 	bl	0 <_mr_TestCom>
 450:	e1a05000 	mov	r5, r0
 454:	ea00001d 	b	4d0 <_mr_TestCom+0x4d0>
 458:	00000000 	.word	0x00000000
 45c:	00000132 	.word	0x00000132
 460:	0000012e 	.word	0x0000012e
 464:	00000193 	.word	0x00000193
 468:	656e6d63 	.word	0x656e6d63
 46c:	00000074 	.word	0x00000074
 470:	000004b2 	.word	0x000004b2
 474:	6b636f73 	.word	0x6b636f73
 478:	00007465 	.word	0x00007465
 47c:	ffffd8ef 	.word	0xffffd8ef
 480:	6b636f53 	.word	0x6b636f53
 484:	49207465 	.word	0x49207465
 488:	21454c44 	.word	0x21454c44
 48c:	00000000 	.word	0x00000000
 490:	74617473 	.word	0x74617473
 494:	00000065 	.word	0x00000065
 498:	000000d8 	.word	0x000000d8
 49c:	e1a00004 	mov	r0, r4
 4a0:	ebfffffe 	bl	0 <_mr_TestCom>
 4a4:	eaffffe9 	b	450 <_mr_TestCom+0x450>
 4a8:	e244cc0b 	sub	ip, r4, #2816	; 0xb00
 4ac:	e25cc061 	subs	ip, ip, #97	; 0x61
 4b0:	1a000006 	bne	4d0 <_mr_TestCom+0x4d0>
 4b4:	e3800001 	orr	r0, r0, #1
 4b8:	ea000003 	b	4cc <_mr_TestCom+0x4cc>
 4bc:	e59f1028 	ldr	r1, [pc, #40]	; 4ec <_mr_TestCom+0x4ec>
 4c0:	e1540001 	cmp	r4, r1
 4c4:	1a000001 	bne	4d0 <_mr_TestCom+0x4d0>
 4c8:	e3c00002 	bic	r0, r0, #2
 4cc:	e5860008 	str	r0, [r6, #8]
 4d0:	e3580000 	cmp	r8, #0
 4d4:	03a00000 	moveq	r0, #0
 4d8:	08bd83f8 	popeq	{r3, r4, r5, r6, r7, r8, r9, pc}
 4dc:	e1a01005 	mov	r1, r5
 4e0:	e1a00008 	mov	r0, r8
 4e4:	ebfffffe 	bl	0 <to_mr_pushnumber>
 4e8:	eaffffc8 	b	410 <_mr_TestCom+0x410>
 4ec:	0009e67a 	.word	0x0009e67a

Disassembly of section i.MRF_TestCom:

00000000 <MRF_TestCom>:
   0:	e92d4070 	push	{r4, r5, r6, lr}
   4:	e1a05000 	mov	r5, r0
   8:	e3a02000 	mov	r2, #0
   c:	e3a01001 	mov	r1, #1
  10:	ebfffffe 	bl	0 <to_mr_tonumber>
  14:	e1a04000 	mov	r4, r0
  18:	e1a00005 	mov	r0, r5
  1c:	e3a02000 	mov	r2, #0
  20:	e3a01002 	mov	r1, #2
  24:	ebfffffe 	bl	0 <to_mr_tonumber>
  28:	e1a02000 	mov	r2, r0
  2c:	e1a00005 	mov	r0, r5
  30:	e1a01004 	mov	r1, r4
  34:	e8bd4070 	pop	{r4, r5, r6, lr}
  38:	eafffffe 	b	0 <MRF_TestCom>

Disassembly of section i.mr_stop_ex:

00000000 <mr_stop_ex>:
   0:	e92d41fc 	push	{r2, r3, r4, r5, r6, r7, r8, lr}
   4:	e59f4134 	ldr	r4, [pc, #308]	; 140 <mr_stop_ex+0x140>
   8:	e1a05000 	mov	r5, r0
   c:	e5940004 	ldr	r0, [r4, #4]
  10:	e3500000 	cmp	r0, #0
  14:	03a00001 	moveq	r0, #1
  18:	0a000047 	beq	13c <mr_stop_ex+0x13c>
  1c:	e3500001 	cmp	r0, #1
  20:	e59f711c 	ldr	r7, [pc, #284]	; 144 <mr_stop_ex+0x144>
  24:	13500002 	cmpne	r0, #2
  28:	1a000016 	bne	88 <mr_stop_ex+0x88>
  2c:	e594003c 	ldr	r0, [r4, #60]	; 0x3c
  30:	e28f1e11 	add	r1, pc, #272	; 0x110
  34:	ebfffffe 	bl	0 <mrp_pushstring>
  38:	e594003c 	ldr	r0, [r4, #60]	; 0x3c
  3c:	e1a01007 	mov	r1, r7
  40:	ebfffffe 	bl	0 <mrp_gettable>
  44:	e594003c 	ldr	r0, [r4, #60]	; 0x3c
  48:	e3e01000 	mvn	r1, #0
  4c:	ebfffffe 	bl	0 <mrp_type>
  50:	e3500006 	cmp	r0, #6
  54:	1a000006 	bne	74 <mr_stop_ex+0x74>
  58:	e594003c 	ldr	r0, [r4, #60]	; 0x3c
  5c:	e3a01008 	mov	r1, #8
  60:	ebfffffe 	bl	0 <mrp_pushnumber>
  64:	e3a01000 	mov	r1, #0
  68:	e3a00001 	mov	r0, #1
  6c:	ebfffffe 	bl	0 <mr_stop_ex>
  70:	ea000004 	b	88 <mr_stop_ex+0x88>
  74:	e28f00d8 	add	r0, pc, #216	; 0xd8
  78:	ebfffffe 	bl	0 <mr_printf>
  7c:	e594003c 	ldr	r0, [r4, #60]	; 0x3c
  80:	e3e01001 	mvn	r1, #1
  84:	ebfffffe 	bl	0 <mrp_settop>
  88:	e3a06000 	mov	r6, #0
  8c:	e5846004 	str	r6, [r4, #4]
  90:	e584600c 	str	r6, [r4, #12]
  94:	e3550000 	cmp	r5, #0
  98:	e5846010 	str	r6, [r4, #16]
  9c:	0a00000d 	beq	d8 <mr_stop_ex+0xd8>
  a0:	e59f00bc 	ldr	r0, [pc, #188]	; 164 <mr_stop_ex+0x164>
  a4:	e59011e8 	ldr	r1, [r0, #488]	; 0x1e8
  a8:	e3510000 	cmp	r1, #0
  ac:	0a000008 	beq	d4 <mr_stop_ex+0xd4>
  b0:	e3510001 	cmp	r1, #1
  b4:	1a000006 	bne	d4 <mr_stop_ex+0xd4>
  b8:	e3a03000 	mov	r3, #0
  bc:	e58d3000 	str	r3, [sp]
  c0:	e58d3004 	str	r3, [sp, #4]
  c4:	e59021e4 	ldr	r2, [r0, #484]	; 0x1e4
  c8:	e59f0098 	ldr	r0, [pc, #152]	; 168 <mr_stop_ex+0x168>
  cc:	e5941040 	ldr	r1, [r4, #64]	; 0x40
  d0:	ebfffffe 	bl	0 <mr_platEx>
  d4:	e5846040 	str	r6, [r4, #64]	; 0x40
  d8:	e5940008 	ldr	r0, [r4, #8]
  dc:	e3100004 	tst	r0, #4
  e0:	1a000010 	bne	128 <mr_stop_ex+0x128>
  e4:	e594003c 	ldr	r0, [r4, #60]	; 0x3c
  e8:	e28f107c 	add	r1, pc, #124	; 0x7c
  ec:	ebfffffe 	bl	0 <mrp_pushstring>
  f0:	e594003c 	ldr	r0, [r4, #60]	; 0x3c
  f4:	e1a01007 	mov	r1, r7
  f8:	ebfffffe 	bl	0 <mrp_rawget>
  fc:	e594003c 	ldr	r0, [r4, #60]	; 0x3c
 100:	e3e01000 	mvn	r1, #0
 104:	ebfffffe 	bl	0 <mrp_type>
 108:	e3500005 	cmp	r0, #5
 10c:	1a000003 	bne	120 <mr_stop_ex+0x120>
 110:	ebfffffe 	bl	0 <mr_closeNetwork>
 114:	e594003c 	ldr	r0, [r4, #60]	; 0x3c
 118:	e3e01001 	mvn	r1, #1
 11c:	ebfffffe 	bl	0 <mrp_settop>
 120:	e594003c 	ldr	r0, [r4, #60]	; 0x3c
 124:	ebfffffe 	bl	0 <mrp_close>
 128:	e3550000 	cmp	r5, #0
 12c:	1594007c 	ldrne	r0, [r4, #124]	; 0x7c
 130:	15941080 	ldrne	r1, [r4, #128]	; 0x80
 134:	1bfffffe 	blne	0 <mr_mem_free>
 138:	e3a00000 	mov	r0, #0
 13c:	e8bd81fc 	pop	{r2, r3, r4, r5, r6, r7, r8, pc}
 140:	00000000 	.word	0x00000000
 144:	ffffd8ef 	.word	0xffffd8ef
 148:	6c616564 	.word	0x6c616564
 14c:	6e657665 	.word	0x6e657665
 150:	00000074 	.word	0x00000074
 154:	74697865 	.word	0x74697865
 158:	20656420 	.word	0x20656420
 15c:	6e207369 	.word	0x6e207369
 160:	00216c69 	.word	0x00216c69
 164:	000000d8 	.word	0x000000d8
 168:	000003ea 	.word	0x000003ea
 16c:	6b636f73 	.word	0x6b636f73
 170:	00007465 	.word	0x00007465

Disassembly of section i.mr_stop:

00000000 <mr_stop>:
   0:	e92d4010 	push	{r4, lr}
   4:	e59f4028 	ldr	r4, [pc, #40]	; 34 <mr_stop+0x34>
   8:	e594002c 	ldr	r0, [r4, #44]	; 0x2c
   c:	e3500000 	cmp	r0, #0
  10:	0a000004 	beq	28 <mr_stop+0x28>
  14:	e12fff30 	blx	r0
  18:	e3a01000 	mov	r1, #0
  1c:	e3500001 	cmp	r0, #1
  20:	e584102c 	str	r1, [r4, #44]	; 0x2c
  24:	18bd8010 	popne	{r4, pc}
  28:	e8bd4010 	pop	{r4, lr}
  2c:	e3a00001 	mov	r0, #1
  30:	eafffffe 	b	0 <mr_stop>
  34:	00000000 	.word	0x00000000

Disassembly of section i._mr_pcall:

00000000 <_mr_pcall>:
   0:	e92d4070 	push	{r4, r5, r6, lr}
   4:	e59f40cc 	ldr	r4, [pc, #204]	; d8 <_mr_pcall+0xd8>
   8:	e1a02001 	mov	r2, r1
   c:	e1a01000 	mov	r1, r0
  10:	e594003c 	ldr	r0, [r4, #60]	; 0x3c
  14:	e3a03000 	mov	r3, #0
  18:	ebfffffe 	bl	0 <mrp_pcall>
  1c:	e3500000 	cmp	r0, #0
  20:	0a00002a 	beq	d0 <_mr_pcall+0xd0>
  24:	e5940004 	ldr	r0, [r4, #4]
  28:	e3a05000 	mov	r5, #0
  2c:	e3500004 	cmp	r0, #4
  30:	1a00000a 	bne	60 <_mr_pcall+0x60>
  34:	e5940038 	ldr	r0, [r4, #56]	; 0x38
  38:	e3500000 	cmp	r0, #0
  3c:	0a000005 	beq	58 <_mr_pcall+0x58>
  40:	ebfffffe 	bl	0 <_mr_pcall>
  44:	e5941038 	ldr	r1, [r4, #56]	; 0x38
  48:	e59400a4 	ldr	r0, [r4, #164]	; 0xa4
  4c:	e12fff31 	blx	r1
  50:	e5845038 	str	r5, [r4, #56]	; 0x38
  54:	ea00001d 	b	d0 <_mr_pcall+0xd0>
  58:	ebfffffe 	bl	0 <_mr_pcall>
  5c:	ea00001b 	b	d0 <_mr_pcall+0xd0>
  60:	e5940008 	ldr	r0, [r4, #8]
  64:	e3a02005 	mov	r2, #5
  68:	e3100008 	tst	r0, #8
  6c:	1a000013 	bne	c0 <_mr_pcall+0xc0>
  70:	e5940044 	ldr	r0, [r4, #68]	; 0x44
  74:	e5941048 	ldr	r1, [r4, #72]	; 0x48
  78:	e0000091 	mul	r0, r1, r0
  7c:	e3500b01 	cmp	r0, #1024	; 0x400
  80:	da00000e 	ble	c0 <_mr_pcall+0xc0>
  84:	e5842004 	str	r2, [r4, #4]
  88:	e5940014 	ldr	r0, [r4, #20]
  8c:	e3500000 	cmp	r0, #0
  90:	0a000002 	beq	a0 <_mr_pcall+0xa0>
  94:	ebfffffe 	bl	0 <_mr_pcall>
  98:	e5845014 	str	r5, [r4, #20]
  9c:	ea000003 	b	b0 <_mr_pcall+0xb0>
  a0:	e594003c 	ldr	r0, [r4, #60]	; 0x3c
  a4:	e3e01000 	mvn	r1, #0
  a8:	ebfffffe 	bl	0 <mrp_tostring>
  ac:	ebfffffe 	bl	0 <_mr_pcall>
  b0:	e594003c 	ldr	r0, [r4, #60]	; 0x3c
  b4:	e3e01001 	mvn	r1, #1
  b8:	ebfffffe 	bl	0 <mrp_settop>
  bc:	ea000003 	b	d0 <_mr_pcall+0xd0>
  c0:	e59f0014 	ldr	r0, [pc, #20]	; dc <_mr_pcall+0xdc>
  c4:	e5c05000 	strb	r5, [r0]
  c8:	e5842004 	str	r2, [r4, #4]
  cc:	ebfffffe 	bl	0 <mr_exit>
  d0:	e3a00000 	mov	r0, #0
  d4:	e8bd8070 	pop	{r4, r5, r6, pc}
  d8:	00000000 	.word	0x00000000
  dc:	000004e0 	.word	0x000004e0

Disassembly of section i.mr_get_host_cb:

00000000 <mr_get_host_cb>:
   0:	e92d4070 	push	{r4, r5, r6, lr}
   4:	e59f4070 	ldr	r4, [pc, #112]	; 7c <mr_get_host_cb+0x7c>
   8:	e1a05000 	mov	r5, r0
   c:	e5940004 	ldr	r0, [r4, #4]
  10:	e3500001 	cmp	r0, #1
  14:	13500002 	cmpne	r0, #2
  18:	0a000003 	beq	2c <mr_get_host_cb+0x2c>
  1c:	e28f005c 	add	r0, pc, #92	; 0x5c
  20:	ebfffffe 	bl	0 <mr_printf>
  24:	e3e00000 	mvn	r0, #0
  28:	e8bd8070 	pop	{r4, r5, r6, pc}
  2c:	e594003c 	ldr	r0, [r4, #60]	; 0x3c
  30:	e28f1054 	add	r1, pc, #84	; 0x54
  34:	ebfffffe 	bl	0 <mrp_pushstring>
  38:	e59f1054 	ldr	r1, [pc, #84]	; 94 <mr_get_host_cb+0x94>
  3c:	e594003c 	ldr	r0, [r4, #60]	; 0x3c
  40:	ebfffffe 	bl	0 <mrp_gettable>
  44:	e594003c 	ldr	r0, [r4, #60]	; 0x3c
  48:	e28f1048 	add	r1, pc, #72	; 0x48
  4c:	ebfffffe 	bl	0 <mrp_pushstring>
  50:	e594003c 	ldr	r0, [r4, #60]	; 0x3c
  54:	e1a01005 	mov	r1, r5
  58:	ebfffffe 	bl	0 <mrp_pushnumber>
  5c:	e594003c 	ldr	r0, [r4, #60]	; 0x3c
  60:	e3e01002 	mvn	r1, #2
  64:	ebfffffe 	bl	0 <mrp_rawset>
  68:	e594003c 	ldr	r0, [r4, #60]	; 0x3c
  6c:	e3e01001 	mvn	r1, #1
  70:	ebfffffe 	bl	0 <mrp_settop>
  74:	e3a00000 	mov	r0, #0
  78:	e8bd8070 	pop	{r4, r5, r6, pc}
  7c:	00000000 	.word	0x00000000
  80:	69204d56 	.word	0x69204d56
  84:	44492073 	.word	0x44492073
  88:	0021454c 	.word	0x0021454c
  8c:	6b636f73 	.word	0x6b636f73
  90:	00007465 	.word	0x00007465
  94:	ffffd8ef 	.word	0xffffd8ef
  98:	00007069 	.word	0x00007069

Disassembly of section i._mr_getHost:

00000000 <_mr_getHost>:
   0:	e92d4070 	push	{r4, r5, r6, lr}
   4:	e1a05000 	mov	r5, r0
   8:	e1a00001 	mov	r0, r1
   c:	e59f1054 	ldr	r1, [pc, #84]	; 68 <_mr_getHost+0x68>
  10:	ebfffffe 	bl	0 <mr_getHostByName>
  14:	e1a04000 	mov	r4, r0
  18:	e1a00005 	mov	r0, r5
  1c:	e28f1048 	add	r1, pc, #72	; 0x48
  20:	ebfffffe 	bl	0 <mrp_pushstring>
  24:	e59f1048 	ldr	r1, [pc, #72]	; 74 <_mr_getHost+0x74>
  28:	e1a00005 	mov	r0, r5
  2c:	ebfffffe 	bl	0 <mrp_gettable>
  30:	e28f1040 	add	r1, pc, #64	; 0x40
  34:	e1a00005 	mov	r0, r5
  38:	ebfffffe 	bl	0 <mrp_pushstring>
  3c:	e1a01004 	mov	r1, r4
  40:	e1a00005 	mov	r0, r5
  44:	ebfffffe 	bl	0 <mrp_pushnumber>
  48:	e3e01002 	mvn	r1, #2
  4c:	e1a00005 	mov	r0, r5
  50:	ebfffffe 	bl	0 <mrp_rawset>
  54:	e3e01001 	mvn	r1, #1
  58:	e1a00005 	mov	r0, r5
  5c:	ebfffffe 	bl	0 <mrp_settop>
  60:	e1a00004 	mov	r0, r4
  64:	e8bd8070 	pop	{r4, r5, r6, pc}
  68:	00000000 	.word	0x00000000
  6c:	6b636f73 	.word	0x6b636f73
  70:	00007465 	.word	0x00007465
  74:	ffffd8ef 	.word	0xffffd8ef
  78:	00007069 	.word	0x00007069

Disassembly of section i._mr_c_function_new:

00000000 <_mr_c_function_new>:
   0:	e92d4070 	push	{r4, r5, r6, lr}
   4:	e59f4078 	ldr	r4, [pc, #120]	; 84 <_mr_c_function_new+0x84>
   8:	e1a06000 	mov	r6, r0
   c:	e5940098 	ldr	r0, [r4, #152]	; 0x98
  10:	e1a05001 	mov	r5, r1
  14:	e3500000 	cmp	r0, #0
  18:	1594109c 	ldrne	r1, [r4, #156]	; 0x9c
  1c:	1bfffffe 	blne	0 <_mr_c_function_new>
  20:	e1a00005 	mov	r0, r5
  24:	ebfffffe 	bl	0 <_mr_c_function_new>
  28:	e3500000 	cmp	r0, #0
  2c:	e5840098 	str	r0, [r4, #152]	; 0x98
  30:	1a000006 	bne	50 <_mr_c_function_new+0x50>
  34:	e594003c 	ldr	r0, [r4, #60]	; 0x3c
  38:	e28f1048 	add	r1, pc, #72	; 0x48
  3c:	ebfffffe 	bl	0 <mrp_pushfstring>
  40:	e594003c 	ldr	r0, [r4, #60]	; 0x3c
  44:	ebfffffe 	bl	0 <mrp_error>
  48:	e3e00000 	mvn	r0, #0
  4c:	e8bd8070 	pop	{r4, r5, r6, pc}
  50:	e1a01005 	mov	r1, r5
  54:	e584509c 	str	r5, [r4, #156]	; 0x9c
  58:	ebfffffe 	bl	0 <__aeabi_memclr>
  5c:	e5846094 	str	r6, [r4, #148]	; 0x94
  60:	e59400a0 	ldr	r0, [r4, #160]	; 0xa0
  64:	e3500000 	cmp	r0, #0
  68:	05b41090 	ldreq	r1, [r4, #144]!	; 0x90
  6c:	05940008 	ldreq	r0, [r4, #8]
  70:	05010004 	streq	r0, [r1, #-4]
  74:	15941098 	ldrne	r1, [r4, #152]	; 0x98
  78:	15801004 	strne	r1, [r0, #4]
  7c:	e3a00000 	mov	r0, #0
  80:	e8bd8070 	pop	{r4, r5, r6, pc}
  84:	00000000 	.word	0x00000000
  88:	75665f63 	.word	0x75665f63
  8c:	6974636e 	.word	0x6974636e
  90:	4e3a6e6f 	.word	0x4e3a6e6f
  94:	656d206f 	.word	0x656d206f
  98:	79726f6d 	.word	0x79726f6d
  9c:	00000021 	.word	0x00000021

Disassembly of section i._mr_smsDsmSave:

00000000 <_mr_smsDsmSave>:
   0:	e92d4030 	push	{r4, r5, lr}
   4:	e1a05000 	mov	r5, r0
   8:	e3a00080 	mov	r0, #128	; 0x80
   c:	e24dd07c 	sub	sp, sp, #124	; 0x7c
  10:	e58d0000 	str	r0, [sp]
  14:	e28f0074 	add	r0, pc, #116	; 0x74
  18:	e1a04001 	mov	r4, r1
  1c:	ebfffffe 	bl	0 <mr_printf>
  20:	e3a01078 	mov	r1, #120	; 0x78
  24:	e28d0004 	add	r0, sp, #4
  28:	ebfffffe 	bl	0 <__aeabi_memclr4>
  2c:	e1a02004 	mov	r2, r4
  30:	e1a01005 	mov	r1, r5
  34:	e28d0004 	add	r0, sp, #4
  38:	ebfffffe 	bl	0 <__aeabi_memcpy>
  3c:	e5dd4006 	ldrb	r4, [sp, #6]
  40:	e354001f 	cmp	r4, #31
  44:	c3e00000 	mvngt	r0, #0
  48:	ca00000e 	bgt	88 <_mr_smsDsmSave+0x88>
  4c:	e3a02001 	mov	r2, #1
  50:	e1a0100d 	mov	r1, sp
  54:	e3a00004 	mov	r0, #4
  58:	ebfffffe 	bl	0 <_mr_smsDsmSave>
  5c:	e3a02001 	mov	r2, #1
  60:	e1a0100d 	mov	r1, sp
  64:	e2840020 	add	r0, r4, #32
  68:	ebfffffe 	bl	0 <_mr_smsDsmSave>
  6c:	e2840004 	add	r0, r4, #4
  70:	e3a01078 	mov	r1, #120	; 0x78
  74:	e0000091 	mul	r0, r1, r0
  78:	e28d1004 	add	r1, sp, #4
  7c:	e3a02078 	mov	r2, #120	; 0x78
  80:	ebfffffe 	bl	0 <_mr_smsDsmSave>
  84:	e3a00000 	mov	r0, #0
  88:	e28dd07c 	add	sp, sp, #124	; 0x7c
  8c:	e8bd8030 	pop	{r4, r5, pc}
  90:	5f726d5f 	.word	0x5f726d5f
  94:	44736d73 	.word	0x44736d73
  98:	61536d73 	.word	0x61536d73
  9c:	00006576 	.word	0x00006576

Disassembly of section i._mr_getChunk:

00000000 <_mr_getChunk>:
   0:	e52de004 	push	{lr}		; (str lr, [sp, #-4]!)
   4:	e591e000 	ldr	lr, [r1]
   8:	e590c000 	ldr	ip, [r0]
   c:	e35e0001 	cmp	lr, #1
  10:	d582c000 	strle	ip, [r2]
  14:	d5910000 	ldrle	r0, [r1]
  18:	d5830000 	strle	r0, [r3]
  1c:	d3a00001 	movle	r0, #1
  20:	d49df004 	pople	{pc}		; (ldrle pc, [sp], #4)
  24:	e5dcc000 	ldrb	ip, [ip]
  28:	e583c000 	str	ip, [r3]
  2c:	e591e000 	ldr	lr, [r1]
  30:	e15c000e 	cmp	ip, lr
  34:	aa000001 	bge	40 <_mr_getChunk+0x40>
  38:	e35c0000 	cmp	ip, #0
  3c:	ca000005 	bgt	58 <_mr_getChunk+0x58>
  40:	e5900000 	ldr	r0, [r0]
  44:	e5820000 	str	r0, [r2]
  48:	e5910000 	ldr	r0, [r1]
  4c:	e5830000 	str	r0, [r3]
  50:	e3e00000 	mvn	r0, #0
  54:	e49df004 	pop	{pc}		; (ldr pc, [sp], #4)
  58:	e590c000 	ldr	ip, [r0]
  5c:	e28cc001 	add	ip, ip, #1
  60:	e582c000 	str	ip, [r2]
  64:	e5902000 	ldr	r2, [r0]
  68:	e593c000 	ldr	ip, [r3]
  6c:	e082200c 	add	r2, r2, ip
  70:	e2822001 	add	r2, r2, #1
  74:	e5802000 	str	r2, [r0]
  78:	e5910000 	ldr	r0, [r1]
  7c:	e5932000 	ldr	r2, [r3]
  80:	e0400002 	sub	r0, r0, r2
  84:	e2400001 	sub	r0, r0, #1
  88:	e5810000 	str	r0, [r1]
  8c:	e3a00000 	mov	r0, #0
  90:	e49df004 	pop	{pc}		; (ldr pc, [sp], #4)

Disassembly of section i._mr_smsUpdateURL:

00000000 <_mr_smsUpdateURL>:
   0:	e92d4030 	push	{r4, r5, lr}
   4:	e1a05000 	mov	r5, r0
   8:	e3a00080 	mov	r0, #128	; 0x80
   c:	e24dd07c 	sub	sp, sp, #124	; 0x7c
  10:	e3510057 	cmp	r1, #87	; 0x57
  14:	e1a04001 	mov	r4, r1
  18:	e58d0078 	str	r0, [sp, #120]	; 0x78
  1c:	9a000004 	bls	34 <_mr_smsUpdateURL+0x34>
  20:	e28f0050 	add	r0, pc, #80	; 0x50
  24:	ebfffffe 	bl	0 <mr_printf>
  28:	e3e00000 	mvn	r0, #0
  2c:	e28dd07c 	add	sp, sp, #124	; 0x7c
  30:	e8bd8030 	pop	{r4, r5, pc}
  34:	e3a02001 	mov	r2, #1
  38:	e28d1078 	add	r1, sp, #120	; 0x78
  3c:	e3a00006 	mov	r0, #6
  40:	ebfffffe 	bl	0 <_mr_smsUpdateURL>
  44:	e3a01078 	mov	r1, #120	; 0x78
  48:	e1a0000d 	mov	r0, sp
  4c:	ebfffffe 	bl	0 <__aeabi_memclr4>
  50:	e1a0200d 	mov	r2, sp
  54:	e1a01004 	mov	r1, r4
  58:	e1a00005 	mov	r0, r5
  5c:	ebfffffe 	bl	0 <_mr_encode>
  60:	e3a02078 	mov	r2, #120	; 0x78
  64:	e1a0100d 	mov	r1, sp
  68:	e3a00f5a 	mov	r0, #360	; 0x168
  6c:	ebfffffe 	bl	0 <_mr_smsUpdateURL>
  70:	e3a00000 	mov	r0, #0
  74:	eaffffec 	b	2c <_mr_smsUpdateURL+0x2c>
  78:	206c7275 	.word	0x206c7275
  7c:	206f6f74 	.word	0x206f6f74
  80:	676e6f6c 	.word	0x676e6f6c
  84:	00000000 	.word	0x00000000

Disassembly of section i._mr_smsDelNum:

00000000 <_mr_smsDelNum>:
   0:	e92d4010 	push	{r4, lr}
   4:	e24dd020 	sub	sp, sp, #32
   8:	e1a04000 	mov	r4, r0
   c:	e1a0000d 	mov	r0, sp
  10:	e3a01020 	mov	r1, #32
  14:	ebfffffe 	bl	0 <__aeabi_memclr4>
  18:	e3a00078 	mov	r0, #120	; 0x78
  1c:	e0800284 	add	r0, r0, r4, lsl #5
  20:	e3a02020 	mov	r2, #32
  24:	e1a0100d 	mov	r1, sp
  28:	ebfffffe 	bl	0 <_mr_smsDelNum>
  2c:	e3a00000 	mov	r0, #0
  30:	e28dd020 	add	sp, sp, #32
  34:	e8bd8010 	pop	{r4, pc}

Disassembly of section i._mr_smsIndiaction:

00000000 <_mr_smsIndiaction>:
   0:	e92d41f0 	push	{r4, r5, r6, r7, r8, lr}
   4:	e59f6328 	ldr	r6, [pc, #808]	; 334 <_mr_smsIndiaction+0x334>
   8:	e1a04000 	mov	r4, r0
   c:	e5960004 	ldr	r0, [r6, #4]
  10:	e24dd0e8 	sub	sp, sp, #232	; 0xe8
  14:	e3500001 	cmp	r0, #1
  18:	e1a08002 	mov	r8, r2
  1c:	e1a07003 	mov	r7, r3
  20:	e1a05001 	mov	r5, r1
  24:	0a000004 	beq	3c <_mr_smsIndiaction+0x3c>
  28:	e5961010 	ldr	r1, [r6, #16]
  2c:	e3510000 	cmp	r1, #0
  30:	0a000022 	beq	c0 <_mr_smsIndiaction+0xc0>
  34:	e3500002 	cmp	r0, #2
  38:	1a000020 	bne	c0 <_mr_smsIndiaction+0xc0>
  3c:	e596003c 	ldr	r0, [r6, #60]	; 0x3c
  40:	e28f1e2f 	add	r1, pc, #752	; 0x2f0
  44:	ebfffffe 	bl	0 <mrp_pushstring>
  48:	e59f12f4 	ldr	r1, [pc, #756]	; 344 <_mr_smsIndiaction+0x344>
  4c:	e596003c 	ldr	r0, [r6, #60]	; 0x3c
  50:	ebfffffe 	bl	0 <mrp_gettable>
  54:	e596003c 	ldr	r0, [r6, #60]	; 0x3c
  58:	e3e01000 	mvn	r1, #0
  5c:	ebfffffe 	bl	0 <mrp_type>
  60:	e3500006 	cmp	r0, #6
  64:	1a000010 	bne	ac <_mr_smsIndiaction+0xac>
  68:	e596003c 	ldr	r0, [r6, #60]	; 0x3c
  6c:	e3a01007 	mov	r1, #7
  70:	ebfffffe 	bl	0 <mrp_pushnumber>
  74:	e596003c 	ldr	r0, [r6, #60]	; 0x3c
  78:	e1a02005 	mov	r2, r5
  7c:	e1a01004 	mov	r1, r4
  80:	ebfffffe 	bl	0 <mrp_pushlstring>
  84:	e596003c 	ldr	r0, [r6, #60]	; 0x3c
  88:	e1a01008 	mov	r1, r8
  8c:	ebfffffe 	bl	0 <mrp_pushstring>
  90:	e596003c 	ldr	r0, [r6, #60]	; 0x3c
  94:	e1a01007 	mov	r1, r7
  98:	ebfffffe 	bl	0 <mrp_pushnumber>
  9c:	e3a01000 	mov	r1, #0
  a0:	e3a00004 	mov	r0, #4
  a4:	ebfffffe 	bl	0 <_mr_smsIndiaction>
  a8:	ea000004 	b	c0 <_mr_smsIndiaction+0xc0>
  ac:	e28f0fa5 	add	r0, pc, #660	; 0x294
  b0:	ebfffffe 	bl	0 <mr_printf>
  b4:	e596003c 	ldr	r0, [r6, #60]	; 0x3c
  b8:	e3e01001 	mvn	r1, #1
  bc:	ebfffffe 	bl	0 <mrp_settop>
  c0:	e245000c 	sub	r0, r5, #12
  c4:	e3500095 	cmp	r0, #149	; 0x95
  c8:	2a000021 	bcs	154 <_mr_smsIndiaction+0x154>
  cc:	e3a010a0 	mov	r1, #160	; 0xa0
  d0:	e28d0048 	add	r0, sp, #72	; 0x48
  d4:	ebfffffe 	bl	0 <__aeabi_memclr4>
  d8:	e3570000 	cmp	r7, #0
  dc:	0a00001f 	beq	160 <_mr_smsIndiaction+0x160>
  e0:	e3570001 	cmp	r7, #1
  e4:	1a00001a 	bne	154 <_mr_smsIndiaction+0x154>
  e8:	e3a03008 	mov	r3, #8
  ec:	e28f2f99 	add	r2, pc, #612	; 0x264
  f0:	e1a01005 	mov	r1, r5
  f4:	e1a00004 	mov	r0, r4
  f8:	ebfffffe 	bl	0 <_mr_memfind>
  fc:	e1b06000 	movs	r6, r0
 100:	0a000013 	beq	154 <_mr_smsIndiaction+0x154>
 104:	e0460004 	sub	r0, r6, r4
 108:	e0451000 	sub	r1, r5, r0
 10c:	e1a00006 	mov	r0, r6
 110:	e3a03004 	mov	r3, #4
 114:	e28f2f92 	add	r2, pc, #584	; 0x248
 118:	ebfffffe 	bl	0 <_mr_memfind>
 11c:	e3500000 	cmp	r0, #0
 120:	0a00000b 	beq	154 <_mr_smsIndiaction+0x154>
 124:	e0400006 	sub	r0, r0, r6
 128:	e2401008 	sub	r1, r0, #8
 12c:	e2860008 	add	r0, r6, #8
 130:	e3a03046 	mov	r3, #70	; 0x46
 134:	e1a0200d 	mov	r2, sp
 138:	ebfffffe 	bl	0 <_mr_u2c>
 13c:	e1a01000 	mov	r1, r0
 140:	e1a0000d 	mov	r0, sp
 144:	e28d2048 	add	r2, sp, #72	; 0x48
 148:	ebfffffe 	bl	0 <_mr_decode>
 14c:	e2504000 	subs	r4, r0, #0
 150:	aa000022 	bge	1e0 <_mr_smsIndiaction+0x1e0>
 154:	e3a00001 	mov	r0, #1
 158:	e28dd0e8 	add	sp, sp, #232	; 0xe8
 15c:	e8bd81f0 	pop	{r4, r5, r6, r7, r8, pc}
 160:	e5d40000 	ldrb	r0, [r4]
 164:	e350004d 	cmp	r0, #77	; 0x4d
 168:	05d40001 	ldrbeq	r0, [r4, #1]
 16c:	03500052 	cmpeq	r0, #82	; 0x52
 170:	05d40002 	ldrbeq	r0, [r4, #2]
 174:	03500050 	cmpeq	r0, #80	; 0x50
 178:	05d40003 	ldrbeq	r0, [r4, #3]
 17c:	03500047 	cmpeq	r0, #71	; 0x47
 180:	028d2048 	addeq	r2, sp, #72	; 0x48
 184:	02451004 	subeq	r1, r5, #4
 188:	02840004 	addeq	r0, r4, #4
 18c:	0affffed 	beq	148 <_mr_smsIndiaction+0x148>
 190:	e3a03004 	mov	r3, #4
 194:	e28f2e1d 	add	r2, pc, #464	; 0x1d0
 198:	e1a01005 	mov	r1, r5
 19c:	e1a00004 	mov	r0, r4
 1a0:	ebfffffe 	bl	0 <_mr_memfind>
 1a4:	e1b06000 	movs	r6, r0
 1a8:	0affffe9 	beq	154 <_mr_smsIndiaction+0x154>
 1ac:	e0460004 	sub	r0, r6, r4
 1b0:	e0451000 	sub	r1, r5, r0
 1b4:	e1a00006 	mov	r0, r6
 1b8:	e3a03002 	mov	r3, #2
 1bc:	e28f2e1b 	add	r2, pc, #432	; 0x1b0
 1c0:	ebfffffe 	bl	0 <_mr_memfind>
 1c4:	e3500000 	cmp	r0, #0
 1c8:	0affffe1 	beq	154 <_mr_smsIndiaction+0x154>
 1cc:	e0400006 	sub	r0, r0, r6
 1d0:	e2401004 	sub	r1, r0, #4
 1d4:	e2860004 	add	r0, r6, #4
 1d8:	e28d2048 	add	r2, sp, #72	; 0x48
 1dc:	eaffffd9 	b	148 <_mr_smsIndiaction+0x148>
 1e0:	e28f0e19 	add	r0, pc, #400	; 0x190
 1e4:	ebfffffe 	bl	0 <mr_printf>
 1e8:	ebfffffe 	bl	0 <_mr_smsIndiaction>
 1ec:	e1a05000 	mov	r5, r0
 1f0:	e5dd0048 	ldrb	r0, [sp, #72]	; 0x48
 1f4:	e35000fc 	cmp	r0, #252	; 0xfc
 1f8:	1a000043 	bne	30c <_mr_smsIndiaction+0x30c>
 1fc:	e5dd0049 	ldrb	r0, [sp, #73]	; 0x49
 200:	e35000fc 	cmp	r0, #252	; 0xfc
 204:	1a000046 	bne	324 <_mr_smsIndiaction+0x324>
 208:	e28d004a 	add	r0, sp, #74	; 0x4a
 20c:	e58d0044 	str	r0, [sp, #68]	; 0x44
 210:	e2440002 	sub	r0, r4, #2
 214:	e58d0040 	str	r0, [sp, #64]	; 0x40
 218:	ea000033 	b	2ec <_mr_smsIndiaction+0x2ec>
 21c:	e59d303c 	ldr	r3, [sp, #60]	; 0x3c
 220:	e5d30000 	ldrb	r0, [r3]
 224:	e3500006 	cmp	r0, #6
 228:	05d30002 	ldrbeq	r0, [r3, #2]
 22c:	05d31001 	ldrbeq	r1, [r3, #1]
 230:	05d32003 	ldrbeq	r2, [r3, #3]
 234:	00800401 	addeq	r0, r0, r1, lsl #8
 238:	02831004 	addeq	r1, r3, #4
 23c:	0a000023 	beq	2d0 <_mr_smsIndiaction+0x2d0>
 240:	ca000008 	bgt	268 <_mr_smsIndiaction+0x268>
 244:	e3500005 	cmp	r0, #5
 248:	908ff100 	addls	pc, pc, r0, lsl #2
 24c:	ea000022 	b	2dc <_mr_smsIndiaction+0x2dc>
 250:	ea000021 	b	2dc <_mr_smsIndiaction+0x2dc>
 254:	ea000009 	b	280 <_mr_smsIndiaction+0x280>
 258:	ea00000c 	b	290 <_mr_smsIndiaction+0x290>
 25c:	ea00000e 	b	29c <_mr_smsIndiaction+0x29c>
 260:	ea000013 	b	2b4 <_mr_smsIndiaction+0x2b4>
 264:	ea000016 	b	2c4 <_mr_smsIndiaction+0x2c4>
 268:	e3500007 	cmp	r0, #7
 26c:	13500011 	cmpne	r0, #17
 270:	1350001b 	cmpne	r0, #27
 274:	13500025 	cmpne	r0, #37	; 0x25
 278:	0a00001b 	beq	2ec <_mr_smsIndiaction+0x2ec>
 27c:	ea000016 	b	2dc <_mr_smsIndiaction+0x2dc>
 280:	e5d30001 	ldrb	r0, [r3, #1]
 284:	e2831002 	add	r1, r3, #2
 288:	ebfffffe 	bl	0 <_mr_smsIndiaction>
 28c:	ea000010 	b	2d4 <_mr_smsIndiaction+0x2d4>
 290:	e5d30001 	ldrb	r0, [r3, #1]
 294:	ebfffffe 	bl	0 <_mr_smsIndiaction>
 298:	ea00000d 	b	2d4 <_mr_smsIndiaction+0x2d4>
 29c:	e59d0038 	ldr	r0, [sp, #56]	; 0x38
 2a0:	e2400001 	sub	r0, r0, #1
 2a4:	e20010ff 	and	r1, r0, #255	; 0xff
 2a8:	e2830001 	add	r0, r3, #1
 2ac:	ebfffffe 	bl	0 <_mr_smsIndiaction>
 2b0:	ea000007 	b	2d4 <_mr_smsIndiaction+0x2d4>
 2b4:	e3a01000 	mov	r1, #0
 2b8:	e1a00008 	mov	r0, r8
 2bc:	ebfffffe 	bl	0 <_mr_smsIndiaction>
 2c0:	ea000003 	b	2d4 <_mr_smsIndiaction+0x2d4>
 2c4:	e3a02001 	mov	r2, #1
 2c8:	e2831001 	add	r1, r3, #1
 2cc:	e3a00005 	mov	r0, #5
 2d0:	ebfffffe 	bl	0 <_mr_smsIndiaction>
 2d4:	e3500000 	cmp	r0, #0
 2d8:	0a000003 	beq	2ec <_mr_smsIndiaction+0x2ec>
 2dc:	e1a00005 	mov	r0, r5
 2e0:	ebfffffe 	bl	0 <_mr_smsIndiaction>
 2e4:	e3e00000 	mvn	r0, #0
 2e8:	eaffff9a 	b	158 <_mr_smsIndiaction+0x158>
 2ec:	e28d3038 	add	r3, sp, #56	; 0x38
 2f0:	e28d203c 	add	r2, sp, #60	; 0x3c
 2f4:	e28d1040 	add	r1, sp, #64	; 0x40
 2f8:	e28d0044 	add	r0, sp, #68	; 0x44
 2fc:	ebfffffe 	bl	0 <_mr_smsIndiaction>
 300:	e3500000 	cmp	r0, #0
 304:	0affffc4 	beq	21c <_mr_smsIndiaction+0x21c>
 308:	ea000005 	b	324 <_mr_smsIndiaction+0x324>
 30c:	e35000fa 	cmp	r0, #250	; 0xfa
 310:	05dd0049 	ldrbeq	r0, [sp, #73]	; 0x49
 314:	035000f2 	cmpeq	r0, #242	; 0xf2
 318:	01a01004 	moveq	r1, r4
 31c:	028d0048 	addeq	r0, sp, #72	; 0x48
 320:	0bfffffe 	bleq	0 <_mr_smsIndiaction>
 324:	e1a00005 	mov	r0, r5
 328:	ebfffffe 	bl	0 <_mr_smsIndiaction>
 32c:	e3a00000 	mov	r0, #0
 330:	eaffff88 	b	158 <_mr_smsIndiaction+0x158>
 334:	00000000 	.word	0x00000000
 338:	6c616564 	.word	0x6c616564
 33c:	6e657665 	.word	0x6e657665
 340:	00000074 	.word	0x00000074
 344:	ffffd8ef 	.word	0xffffd8ef
 348:	20646e69 	.word	0x20646e69
 34c:	69206564 	.word	0x69206564
 350:	696e2073 	.word	0x696e2073
 354:	0000216c 	.word	0x0000216c
 358:	23007e00 	.word	0x23007e00
 35c:	7e005e00 	.word	0x7e005e00
 360:	00000000 	.word	0x00000000
 364:	5e002600 	.word	0x5e002600
 368:	00000000 	.word	0x00000000
 36c:	7e5e237e 	.word	0x7e5e237e
 370:	00000000 	.word	0x00000000
 374:	00005e26 	.word	0x00005e26
 378:	735f726d 	.word	0x735f726d
 37c:	6e49736d 	.word	0x6e49736d
 380:	63616964 	.word	0x63616964
 384:	6e6f6974 	.word	0x6e6f6974
 388:	65686320 	.word	0x65686320
 38c:	6f206b63 	.word	0x6f206b63
 390:	0000216b 	.word	0x0000216b

Disassembly of section i.mr_smsIndiaction:

00000000 <mr_smsIndiaction>:
   0:	e92d4010 	push	{r4, lr}
   4:	e59f4018 	ldr	r4, [pc, #24]	; 24 <mr_smsIndiaction+0x24>
   8:	e3a0c000 	mov	ip, #0
   c:	e5c4c002 	strb	ip, [r4, #2]
  10:	ebfffffe 	bl	0 <mr_smsIndiaction>
  14:	e5d41002 	ldrb	r1, [r4, #2]
  18:	e3510001 	cmp	r1, #1
  1c:	0594008c 	ldreq	r0, [r4, #140]	; 0x8c
  20:	e8bd8010 	pop	{r4, pc}
  24:	00000000 	.word	0x00000000

Disassembly of section i.md5_process:

00000000 <md5_process>:
   0:	e92d4ff0 	push	{r4, r5, r6, r7, r8, r9, sl, fp, lr}
   4:	e5908008 	ldr	r8, [r0, #8]
   8:	e24dd09c 	sub	sp, sp, #156	; 0x9c
   c:	e58d8098 	str	r8, [sp, #152]	; 0x98
  10:	e590500c 	ldr	r5, [r0, #12]
  14:	e3110003 	tst	r1, #3
  18:	e58d5094 	str	r5, [sp, #148]	; 0x94
  1c:	e5906010 	ldr	r6, [r0, #16]
  20:	01a03001 	moveq	r3, r1
  24:	e58d6090 	str	r6, [sp, #144]	; 0x90
  28:	e5907014 	ldr	r7, [r0, #20]
  2c:	e1a04000 	mov	r4, r0
  30:	e58d708c 	str	r7, [sp, #140]	; 0x8c
  34:	0a000003 	beq	48 <md5_process+0x48>
  38:	e3a02040 	mov	r2, #64	; 0x40
  3c:	e28d0004 	add	r0, sp, #4
