
/tmp/mtk_disasm/full1968/mythroad.obj:     file format elf32-littlearm


Disassembly of section i._mr_div:

00000000 <_mr_div>:
   0:	eafffffe 	b	0 <__aeabi_idivmod>

Disassembly of section i._mr_mod:

00000000 <_mr_mod>:
   0:	e92d4010 	push	{r4, lr}
   4:	ebfffffe 	bl	0 <__aeabi_idivmod>
   8:	e1a00001 	mov	r0, r1
   c:	e8bd8010 	pop	{r4, pc}

Disassembly of section i._mr_mem_init:

00000000 <_mr_mem_init>:
   0:	e92d4010 	push	{r4, lr}
   4:	e59f4098 	ldr	r4, [pc, #152]	; a4 <_mr_mem_init+0xa4>
   8:	e28f0098 	add	r0, pc, #152	; 0x98
   c:	e5941080 	ldr	r1, [r4, #128]	; 0x80
  10:	ebfffffe 	bl	0 <mr_printf>
  14:	e2841080 	add	r1, r4, #128	; 0x80
  18:	e284007c 	add	r0, r4, #124	; 0x7c
  1c:	ebfffffe 	bl	0 <mr_mem_get>
  20:	e3500000 	cmp	r0, #0
  24:	0a000003 	beq	38 <_mr_mem_init+0x38>
  28:	e28f0094 	add	r0, pc, #148	; 0x94
  2c:	ebfffffe 	bl	0 <mr_printf>
  30:	e3e00000 	mvn	r0, #0
  34:	e8bd8010 	pop	{r4, pc}
  38:	e5941080 	ldr	r1, [r4, #128]	; 0x80
  3c:	e28f0094 	add	r0, pc, #148	; 0x94
  40:	ebfffffe 	bl	0 <mr_printf>
  44:	e594107c 	ldr	r1, [r4, #124]	; 0x7c
  48:	e59f30a4 	ldr	r3, [pc, #164]	; f4 <_mr_mem_init+0xf4>
  4c:	e2810003 	add	r0, r1, #3
  50:	e3c00003 	bic	r0, r0, #3
  54:	e5840074 	str	r0, [r4, #116]	; 0x74
  58:	e5942080 	ldr	r2, [r4, #128]	; 0x80
  5c:	e0401001 	sub	r1, r0, r1
  60:	e0421001 	sub	r1, r2, r1
  64:	e3c11003 	bic	r1, r1, #3
  68:	e0802001 	add	r2, r0, r1
  6c:	e5841078 	str	r1, [r4, #120]	; 0x78
  70:	e5842084 	str	r2, [r4, #132]	; 0x84
  74:	e3a02000 	mov	r2, #0
  78:	e5832000 	str	r2, [r3]
  7c:	e5832004 	str	r2, [r3, #4]
  80:	e5801000 	str	r1, [r0]
  84:	e5940078 	ldr	r0, [r4, #120]	; 0x78
  88:	e5941074 	ldr	r1, [r4, #116]	; 0x74
  8c:	e5810004 	str	r0, [r1, #4]
  90:	e5840088 	str	r0, [r4, #136]	; 0x88
  94:	e584006c 	str	r0, [r4, #108]	; 0x6c
  98:	e3a00000 	mov	r0, #0
  9c:	e5842070 	str	r2, [r4, #112]	; 0x70
  a0:	e8bd8010 	pop	{r4, pc}
  a4:	00000000 	.word	0x00000000
  a8:	206b7361 	.word	0x206b7361
  ac:	6769724f 	.word	0x6769724f
  b0:	4c5f6e69 	.word	0x4c5f6e69
  b4:	656d5f47 	.word	0x656d5f47
  b8:	656c5f6d 	.word	0x656c5f6d
  bc:	64253a6e 	.word	0x64253a6e
  c0:	00000000 	.word	0x00000000
  c4:	6d5f726d 	.word	0x6d5f726d
  c8:	675f6d65 	.word	0x675f6d65
  cc:	66207465 	.word	0x66207465
  d0:	656c6961 	.word	0x656c6961
  d4:	00002164 	.word	0x00002164
  d8:	20746f67 	.word	0x20746f67
  dc:	6769724f 	.word	0x6769724f
  e0:	4c5f6e69 	.word	0x4c5f6e69
  e4:	656d5f47 	.word	0x656d5f47
  e8:	656c5f6d 	.word	0x656c5f6d
  ec:	64253a6e 	.word	0x64253a6e
  f0:	00000000 	.word	0x00000000
  f4:	000000a8 	.word	0x000000a8

Disassembly of section i.mr_malloc:

00000000 <mr_malloc>:
   0:	e92d4010 	push	{r4, lr}
   4:	e59f40d0 	ldr	r4, [pc, #208]	; dc <mr_malloc+0xdc>
   8:	e2800007 	add	r0, r0, #7
   c:	e3c01007 	bic	r1, r0, #7
  10:	e5940088 	ldr	r0, [r4, #136]	; 0x88
  14:	e1510000 	cmp	r1, r0
  18:	3a000001 	bcc	24 <mr_malloc+0x24>
  1c:	e28f00bc 	add	r0, pc, #188	; 0xbc
  20:	ea00000b 	b	54 <mr_malloc+0x54>
  24:	e3510000 	cmp	r1, #0
  28:	028f00c4 	addeq	r0, pc, #196	; 0xc4
  2c:	0a000008 	beq	54 <mr_malloc+0x54>
  30:	e59f00e0 	ldr	r0, [pc, #224]	; 118 <mr_malloc+0x118>
  34:	e594c074 	ldr	ip, [r4, #116]	; 0x74
  38:	e5900000 	ldr	r0, [r0]
  3c:	e594e084 	ldr	lr, [r4, #132]	; 0x84
  40:	e080000c 	add	r0, r0, ip
  44:	e150000e 	cmp	r0, lr
  48:	959f20c8 	ldrls	r2, [pc, #200]	; 118 <mr_malloc+0x118>
  4c:	9a00001f 	bls	d0 <mr_malloc+0xd0>
  50:	e28f00c4 	add	r0, pc, #196	; 0xc4
  54:	ebfffffe 	bl	0 <mr_printf>
  58:	e3a00000 	mov	r0, #0
  5c:	e8bd8010 	pop	{r4, pc}
  60:	e5903004 	ldr	r3, [r0, #4]
  64:	e1530001 	cmp	r3, r1
  68:	05903000 	ldreq	r3, [r0]
  6c:	0a00000b 	beq	a0 <mr_malloc+0xa0>
  70:	91a02000 	movls	r2, r0
  74:	95900000 	ldrls	r0, [r0]
  78:	9080000c 	addls	r0, r0, ip
  7c:	9a000013 	bls	d0 <mr_malloc+0xd0>
  80:	e590c000 	ldr	ip, [r0]
  84:	e0803001 	add	r3, r0, r1
  88:	e583c000 	str	ip, [r3]
  8c:	e590c004 	ldr	ip, [r0, #4]
  90:	e04cc001 	sub	ip, ip, r1
  94:	e583c004 	str	ip, [r3, #4]
  98:	e5923000 	ldr	r3, [r2]
  9c:	e0833001 	add	r3, r3, r1
  a0:	e5823000 	str	r3, [r2]
  a4:	e5943088 	ldr	r3, [r4, #136]	; 0x88
  a8:	e0431001 	sub	r1, r3, r1
  ac:	e5841088 	str	r1, [r4, #136]	; 0x88
  b0:	e594306c 	ldr	r3, [r4, #108]	; 0x6c
  b4:	e1510003 	cmp	r1, r3
  b8:	3584106c 	strcc	r1, [r4, #108]	; 0x6c
  bc:	e5921000 	ldr	r1, [r2]
  c0:	e5942070 	ldr	r2, [r4, #112]	; 0x70
  c4:	e1510002 	cmp	r1, r2
  c8:	85841070 	strhi	r1, [r4, #112]	; 0x70
  cc:	e8bd8010 	pop	{r4, pc}
  d0:	e150000e 	cmp	r0, lr
  d4:	3affffe1 	bcc	60 <mr_malloc+0x60>
  d8:	eaffffcf 	b	1c <mr_malloc+0x1c>
  dc:	00000000 	.word	0x00000000
  e0:	6d5f726d 	.word	0x6d5f726d
  e4:	6f6c6c61 	.word	0x6f6c6c61
  e8:	6f6e2063 	.word	0x6f6e2063
  ec:	6d656d20 	.word	0x6d656d20
  f0:	0079726f 	.word	0x0079726f
  f4:	6d5f726d 	.word	0x6d5f726d
  f8:	6f6c6c61 	.word	0x6f6c6c61
  fc:	6e692063 	.word	0x6e692063
 100:	696c6176 	.word	0x696c6176
 104:	656d2064 	.word	0x656d2064
 108:	79726f6d 	.word	0x79726f6d
 10c:	71657220 	.word	0x71657220
 110:	74736575 	.word	0x74736575
 114:	00000000 	.word	0x00000000
 118:	000000a8 	.word	0x000000a8
 11c:	6d5f726d 	.word	0x6d5f726d
 120:	6f6c6c61 	.word	0x6f6c6c61
 124:	6f632063 	.word	0x6f632063
 128:	70757272 	.word	0x70757272
 12c:	20646574 	.word	0x20646574
 130:	6f6d656d 	.word	0x6f6d656d
 134:	00007972 	.word	0x00007972

Disassembly of section i.mr_free:

00000000 <mr_free>:
   0:	e92d40f8 	push	{r3, r4, r5, r6, r7, lr}
   4:	e1a04000 	mov	r4, r0
   8:	e2810007 	add	r0, r1, #7
   c:	e3d05007 	bics	r5, r0, #7
  10:	e59f6104 	ldr	r6, [pc, #260]	; 11c <mr_free+0x11c>
  14:	13540000 	cmpne	r4, #0
  18:	0a00000d 	beq	54 <mr_free+0x54>
  1c:	e5960074 	ldr	r0, [r6, #116]	; 0x74
  20:	e1a0e006 	mov	lr, r6
  24:	e1540000 	cmp	r4, r0
  28:	3a000009 	bcc	54 <mr_free+0x54>
  2c:	e59e1084 	ldr	r1, [lr, #132]	; 0x84
  30:	e1540001 	cmp	r4, r1
  34:	2a000006 	bcs	54 <mr_free+0x54>
  38:	e0842005 	add	r2, r4, r5
  3c:	e1520001 	cmp	r2, r1
  40:	8a000003 	bhi	54 <mr_free+0x54>
  44:	e1520000 	cmp	r2, r0
  48:	859fc0d0 	ldrhi	ip, [pc, #208]	; 120 <mr_free+0x120>
  4c:	859c3000 	ldrhi	r3, [ip]
  50:	8a00000b 	bhi	84 <mr_free+0x84>
  54:	e28f00c8 	add	r0, pc, #200	; 0xc8
  58:	ebfffffe 	bl	0 <mr_printf>
  5c:	e5963084 	ldr	r3, [r6, #132]	; 0x84
  60:	e1a02005 	mov	r2, r5
  64:	e58d3000 	str	r3, [sp]
  68:	e5963074 	ldr	r3, [r6, #116]	; 0x74
  6c:	e1a01004 	mov	r1, r4
  70:	e28f00bc 	add	r0, pc, #188	; 0xbc
  74:	ebfffffe 	bl	0 <mr_printf>
  78:	e8bd80f8 	pop	{r3, r4, r5, r6, r7, pc}
  7c:	e1a0c003 	mov	ip, r3
  80:	e5933000 	ldr	r3, [r3]
  84:	e0833000 	add	r3, r3, r0
  88:	e1530001 	cmp	r3, r1
  8c:	31530004 	cmpcc	r3, r4
  90:	3afffff9 	bcc	7c <mr_free+0x7c>
  94:	e154000c 	cmp	r4, ip
  98:	11540003 	cmpne	r4, r3
  9c:	08bd40f8 	popeq	{r3, r4, r5, r6, r7, lr}
  a0:	028f00ac 	addeq	r0, pc, #172	; 0xac
  a4:	0afffffe 	beq	0 <mr_printf>
  a8:	e59f1070 	ldr	r1, [pc, #112]	; 120 <mr_free+0x120>
  ac:	e15c0001 	cmp	ip, r1
  b0:	0a000005 	beq	cc <mr_free+0xcc>
  b4:	e59c1004 	ldr	r1, [ip, #4]
  b8:	e081600c 	add	r6, r1, ip
  bc:	e1560004 	cmp	r6, r4
  c0:	00810005 	addeq	r0, r1, r5
  c4:	058c0004 	streq	r0, [ip, #4]
  c8:	0a000005 	beq	e4 <mr_free+0xe4>
  cc:	e0440000 	sub	r0, r4, r0
  d0:	e58c0000 	str	r0, [ip]
  d4:	e59e0074 	ldr	r0, [lr, #116]	; 0x74
  d8:	e1a0c004 	mov	ip, r4
  dc:	e0430000 	sub	r0, r3, r0
  e0:	e8840021 	stm	r4, {r0, r5}
  e4:	e59e0084 	ldr	r0, [lr, #132]	; 0x84
  e8:	e1530000 	cmp	r3, r0
  ec:	2a000006 	bcs	10c <mr_free+0x10c>
  f0:	e1520003 	cmp	r2, r3
  f4:	05930000 	ldreq	r0, [r3]
  f8:	058c0000 	streq	r0, [ip]
  fc:	059c0004 	ldreq	r0, [ip, #4]
 100:	05931004 	ldreq	r1, [r3, #4]
 104:	00800001 	addeq	r0, r0, r1
 108:	058c0004 	streq	r0, [ip, #4]
 10c:	e59e0088 	ldr	r0, [lr, #136]	; 0x88
 110:	e0800005 	add	r0, r0, r5
 114:	e58e0088 	str	r0, [lr, #136]	; 0x88
 118:	e8bd80f8 	pop	{r3, r4, r5, r6, r7, pc}
 11c:	00000000 	.word	0x00000000
 120:	000000a8 	.word	0x000000a8
 124:	665f726d 	.word	0x665f726d
 128:	20656572 	.word	0x20656572
 12c:	61766e69 	.word	0x61766e69
 130:	0064696c 	.word	0x0064696c
 134:	64253d70 	.word	0x64253d70
 138:	253d6c2c 	.word	0x253d6c2c
 13c:	61622c64 	.word	0x61622c64
 140:	253d6573 	.word	0x253d6573
 144:	474c2c64 	.word	0x474c2c64
 148:	6d656d5f 	.word	0x6d656d5f
 14c:	646e655f 	.word	0x646e655f
 150:	0064253d 	.word	0x0064253d
 154:	665f726d 	.word	0x665f726d
 158:	3a656572 	.word	0x3a656572
 15c:	65726c61 	.word	0x65726c61
 160:	20796461 	.word	0x20796461
 164:	65657266 	.word	0x65657266
 168:	00000000 	.word	0x00000000

Disassembly of section i.mr_realloc:

00000000 <mr_realloc>:
   0:	e92d41f0 	push	{r4, r5, r6, r7, r8, lr}
   4:	e1510002 	cmp	r1, r2
   8:	e1a06000 	mov	r6, r0
   c:	e1a00002 	mov	r0, r2
  10:	e1a05001 	mov	r5, r1
  14:	91a07005 	movls	r7, r5
  18:	81a07000 	movhi	r7, r0
  1c:	e3560000 	cmp	r6, #0
  20:	08bd41f0 	popeq	{r4, r5, r6, r7, r8, lr}
  24:	0afffffe 	beq	0 <mr_realloc>
  28:	e3500000 	cmp	r0, #0
  2c:	1a000004 	bne	44 <mr_realloc+0x44>
  30:	e1a01005 	mov	r1, r5
  34:	e1a00006 	mov	r0, r6
  38:	ebfffffe 	bl	0 <mr_realloc>
  3c:	e3a00000 	mov	r0, #0
  40:	e8bd81f0 	pop	{r4, r5, r6, r7, r8, pc}
  44:	ebfffffe 	bl	0 <mr_realloc>
  48:	e1b04000 	movs	r4, r0
  4c:	0a000006 	beq	6c <mr_realloc+0x6c>
  50:	e1a02007 	mov	r2, r7
  54:	e1a01006 	mov	r1, r6
  58:	e1a00004 	mov	r0, r4
  5c:	ebfffffe 	bl	0 <__aeabi_memmove>
  60:	e1a01005 	mov	r1, r5
  64:	e1a00006 	mov	r0, r6
  68:	ebfffffe 	bl	0 <mr_realloc>
  6c:	e1a00004 	mov	r0, r4
  70:	e8bd81f0 	pop	{r4, r5, r6, r7, r8, pc}

Disassembly of section i.mr_platDrawChar:

00000000 <mr_platDrawChar>:
   0:	e1a03803 	lsl	r3, r3, #16
   4:	e1a03823 	lsr	r3, r3, #16
   8:	eafffffe 	b	0 <mr_platDrawCharReal>

Disassembly of section i._DrawPoint:

00000000 <_DrawPoint>:
   0:	e3500000 	cmp	r0, #0
   4:	a3510000 	cmpge	r1, #0
   8:	e52de004 	push	{lr}		; (str lr, [sp, #-4]!)
   c:	b49df004 	poplt	{pc}		; (ldrlt pc, [sp], #4)
  10:	e59fe028 	ldr	lr, [pc, #40]	; 40 <_DrawPoint+0x40>
  14:	e59e3044 	ldr	r3, [lr, #68]	; 0x44
  18:	e1500003 	cmp	r0, r3
  1c:	b59ec048 	ldrlt	ip, [lr, #72]	; 0x48
  20:	b151000c 	cmplt	r1, ip
  24:	a49df004 	popge	{pc}		; (ldrge pc, [sp], #4)
  28:	e0010193 	mul	r1, r3, r1
  2c:	e59e3040 	ldr	r3, [lr, #64]	; 0x40
  30:	e0831081 	add	r1, r3, r1, lsl #1
  34:	e0810080 	add	r0, r1, r0, lsl #1
  38:	e1c020b0 	strh	r2, [r0]
  3c:	e49df004 	pop	{pc}		; (ldr pc, [sp], #4)
  40:	00000000 	.word	0x00000000

Disassembly of section i._DrawBitmap:

00000000 <_DrawBitmap>:
   0:	e92d4ffe 	push	{r1, r2, r3, r4, r5, r6, r7, r8, r9, sl, fp, lr}
   4:	e59f6610 	ldr	r6, [pc, #1552]	; 61c <_DrawBitmap+0x61c>
   8:	e1a07002 	mov	r7, r2
   c:	e59d2030 	ldr	r2, [sp, #48]	; 0x30
  10:	e1a08001 	mov	r8, r1
  14:	e5961048 	ldr	r1, [r6, #72]	; 0x48
  18:	e1a09000 	mov	r9, r0
  1c:	e0870002 	add	r0, r7, r2
  20:	e1500001 	cmp	r0, r1
  24:	e59f65f0 	ldr	r6, [pc, #1520]	; 61c <_DrawBitmap+0x61c>
  28:	c1a00001 	movgt	r0, r1
  2c:	e5961044 	ldr	r1, [r6, #68]	; 0x44
  30:	e1a0b000 	mov	fp, r0
  34:	e1a05003 	mov	r5, r3
  38:	e0880005 	add	r0, r8, r5
  3c:	e1500001 	cmp	r0, r1
  40:	c1a00001 	movgt	r0, r1
  44:	e3580000 	cmp	r8, #0
  48:	a1a04008 	movge	r4, r8
  4c:	b3a04000 	movlt	r4, #0
  50:	e3570000 	cmp	r7, #0
  54:	e1a0a000 	mov	sl, r0
  58:	b3a00000 	movlt	r0, #0
  5c:	a1a00007 	movge	r0, r7
  60:	e59d1034 	ldr	r1, [sp, #52]	; 0x34
  64:	e1a00800 	lsl	r0, r0, #16
  68:	e3510b01 	cmp	r1, #1024	; 0x400
  6c:	e59d1034 	ldr	r1, [sp, #52]	; 0x34
  70:	e1a00820 	lsr	r0, r0, #16
  74:	9a0000b0 	bls	33c <_DrawBitmap+0x33c>
  78:	e59d3034 	ldr	r3, [sp, #52]	; 0x34
  7c:	e3c11b3f 	bic	r1, r1, #64512	; 0xfc00
  80:	e3a0c004 	mov	ip, #4
  84:	e1a02983 	lsl	r2, r3, #19
  88:	e3510002 	cmp	r1, #2
  8c:	e1a02f22 	lsr	r2, r2, #30
  90:	e00c65a3 	and	r6, ip, r3, lsr #11
  94:	0a00001f 	beq	118 <_DrawBitmap+0x118>
  98:	e3510006 	cmp	r1, #6
  9c:	1a00001c 	bne	114 <_DrawBitmap+0x114>
  a0:	ea000019 	b	10c <_DrawBitmap+0x10c>
  a4:	e59f2570 	ldr	r2, [pc, #1392]	; 61c <_DrawBitmap+0x61c>
  a8:	e0443008 	sub	r3, r4, r8
  ac:	e5921044 	ldr	r1, [r2, #68]	; 0x44
  b0:	e5922040 	ldr	r2, [r2, #64]	; 0x40
  b4:	e0010190 	mul	r1, r0, r1
  b8:	e0821081 	add	r1, r2, r1, lsl #1
  bc:	e0402007 	sub	r2, r0, r7
  c0:	e0020295 	mul	r2, r5, r2
  c4:	e0811084 	add	r1, r1, r4, lsl #1
  c8:	e0892082 	add	r2, r9, r2, lsl #1
  cc:	e0822083 	add	r2, r2, r3, lsl #1
  d0:	e1a03804 	lsl	r3, r4, #16
  d4:	e1a03823 	lsr	r3, r3, #16
  d8:	ea000007 	b	fc <_DrawBitmap+0xfc>
  dc:	e1d2c0b0 	ldrh	ip, [r2]
  e0:	e59de038 	ldr	lr, [sp, #56]	; 0x38
  e4:	e2833001 	add	r3, r3, #1
  e8:	e15c000e 	cmp	ip, lr
  ec:	11c1c0b0 	strhne	ip, [r1]
  f0:	e2811002 	add	r1, r1, #2
  f4:	e3c33801 	bic	r3, r3, #65536	; 0x10000
  f8:	e2822002 	add	r2, r2, #2
  fc:	e153000a 	cmp	r3, sl
 100:	bafffff5 	blt	dc <_DrawBitmap+0xdc>
 104:	e2800001 	add	r0, r0, #1
 108:	e3c00801 	bic	r0, r0, #65536	; 0x10000
 10c:	e150000b 	cmp	r0, fp
 110:	baffffe3 	blt	a4 <_DrawBitmap+0xa4>
 114:	e8bd8ffe 	pop	{r1, r2, r3, r4, r5, r6, r7, r8, r9, sl, fp, pc}
 118:	e3520000 	cmp	r2, #0
 11c:	0a000006 	beq	13c <_DrawBitmap+0x13c>
 120:	e3520001 	cmp	r2, #1
 124:	0a000043 	beq	238 <_DrawBitmap+0x238>
 128:	e3520002 	cmp	r2, #2
 12c:	0a00005f 	beq	2b0 <_DrawBitmap+0x2b0>
 130:	e3520003 	cmp	r2, #3
 134:	18bd8ffe 	popne	{r1, r2, r3, r4, r5, r6, r7, r8, r9, sl, fp, pc}
 138:	ea00007c 	b	330 <_DrawBitmap+0x330>
 13c:	e15a0004 	cmp	sl, r4
 140:	d8bd8ffe 	pople	{r1, r2, r3, r4, r5, r6, r7, r8, r9, sl, fp, pc}
 144:	e58d0004 	str	r0, [sp, #4]
 148:	ea000017 	b	1ac <_DrawBitmap+0x1ac>
 14c:	e59f24c8 	ldr	r2, [pc, #1224]	; 61c <_DrawBitmap+0x61c>
 150:	e59d1004 	ldr	r1, [sp, #4]
 154:	e5920044 	ldr	r0, [r2, #68]	; 0x44
 158:	e3560000 	cmp	r6, #0
 15c:	e0000091 	mul	r0, r1, r0
 160:	e5921040 	ldr	r1, [r2, #64]	; 0x40
 164:	159d2030 	ldrne	r2, [sp, #48]	; 0x30
 168:	e0810080 	add	r0, r1, r0, lsl #1
 16c:	e59d1004 	ldr	r1, [sp, #4]
 170:	e0800084 	add	r0, r0, r4, lsl #1
 174:	e0411007 	sub	r1, r1, r7
 178:	10421001 	subne	r1, r2, r1
 17c:	12411001 	subne	r1, r1, #1
 180:	e0010195 	mul	r1, r5, r1
 184:	e0442008 	sub	r2, r4, r8
 188:	e0891081 	add	r1, r9, r1, lsl #1
 18c:	e0811082 	add	r1, r1, r2, lsl #1
 190:	e04a2004 	sub	r2, sl, r4
 194:	e1a02082 	lsl	r2, r2, #1
 198:	ebfffffe 	bl	0 <__aeabi_memcpy>
 19c:	e59d0004 	ldr	r0, [sp, #4]
 1a0:	e2800001 	add	r0, r0, #1
 1a4:	e3c00801 	bic	r0, r0, #65536	; 0x10000
 1a8:	eaffffe5 	b	144 <_DrawBitmap+0x144>
 1ac:	e59d0004 	ldr	r0, [sp, #4]
 1b0:	e150000b 	cmp	r0, fp
 1b4:	baffffe4 	blt	14c <_DrawBitmap+0x14c>
 1b8:	e8bd8ffe 	pop	{r1, r2, r3, r4, r5, r6, r7, r8, r9, sl, fp, pc}
 1bc:	e59f2458 	ldr	r2, [pc, #1112]	; 61c <_DrawBitmap+0x61c>
 1c0:	e3560000 	cmp	r6, #0
 1c4:	e5921044 	ldr	r1, [r2, #68]	; 0x44
 1c8:	e5922040 	ldr	r2, [r2, #64]	; 0x40
 1cc:	e0010190 	mul	r1, r0, r1
 1d0:	159d3030 	ldrne	r3, [sp, #48]	; 0x30
 1d4:	e0821081 	add	r1, r2, r1, lsl #1
 1d8:	e0812084 	add	r2, r1, r4, lsl #1
 1dc:	e0441008 	sub	r1, r4, r8
 1e0:	10431001 	subne	r1, r3, r1
 1e4:	12411001 	subne	r1, r1, #1
 1e8:	e0010195 	mul	r1, r5, r1
 1ec:	e0403007 	sub	r3, r0, r7
 1f0:	e0453003 	sub	r3, r5, r3
 1f4:	e0891081 	add	r1, r9, r1, lsl #1
 1f8:	e0811083 	add	r1, r1, r3, lsl #1
 1fc:	e1a03804 	lsl	r3, r4, #16
 200:	e1a03823 	lsr	r3, r3, #16
 204:	e2411002 	sub	r1, r1, #2
 208:	ea000006 	b	228 <_DrawBitmap+0x228>
 20c:	e1d1c0b0 	ldrh	ip, [r1]
 210:	e3560000 	cmp	r6, #0
 214:	00811085 	addeq	r1, r1, r5, lsl #1
 218:	e2833001 	add	r3, r3, #1
 21c:	e3c33801 	bic	r3, r3, #65536	; 0x10000
 220:	10411085 	subne	r1, r1, r5, lsl #1
 224:	e0c2c0b2 	strh	ip, [r2], #2
 228:	e153000a 	cmp	r3, sl
 22c:	bafffff6 	blt	20c <_DrawBitmap+0x20c>
 230:	e2800001 	add	r0, r0, #1
 234:	e3c00801 	bic	r0, r0, #65536	; 0x10000
 238:	e150000b 	cmp	r0, fp
 23c:	baffffde 	blt	1bc <_DrawBitmap+0x1bc>
 240:	e8bd8ffe 	pop	{r1, r2, r3, r4, r5, r6, r7, r8, r9, sl, fp, pc}
 244:	e59f23d0 	ldr	r2, [pc, #976]	; 61c <_DrawBitmap+0x61c>
 248:	e3560000 	cmp	r6, #0
 24c:	e5921044 	ldr	r1, [r2, #68]	; 0x44
 250:	e5922040 	ldr	r2, [r2, #64]	; 0x40
 254:	e0010190 	mul	r1, r0, r1
 258:	059d3030 	ldreq	r3, [sp, #48]	; 0x30
 25c:	e0821081 	add	r1, r2, r1, lsl #1
 260:	e0402007 	sub	r2, r0, r7
 264:	00432002 	subeq	r2, r3, r2
 268:	02422001 	subeq	r2, r2, #1
 26c:	e0020295 	mul	r2, r5, r2
 270:	e0443008 	sub	r3, r4, r8
 274:	e0453003 	sub	r3, r5, r3
 278:	e0892082 	add	r2, r9, r2, lsl #1
 27c:	e0822083 	add	r2, r2, r3, lsl #1
 280:	e1a03804 	lsl	r3, r4, #16
 284:	e1a03823 	lsr	r3, r3, #16
 288:	e2422002 	sub	r2, r2, #2
 28c:	e0811084 	add	r1, r1, r4, lsl #1
 290:	e153000a 	cmp	r3, sl
 294:	b052c0b2 	ldrhlt	ip, [r2], #-2
 298:	b2833001 	addlt	r3, r3, #1
 29c:	b3c33801 	biclt	r3, r3, #65536	; 0x10000
 2a0:	b0c1c0b2 	strhlt	ip, [r1], #2
 2a4:	bafffff9 	blt	290 <_DrawBitmap+0x290>
 2a8:	e2800001 	add	r0, r0, #1
 2ac:	e3c00801 	bic	r0, r0, #65536	; 0x10000
 2b0:	e150000b 	cmp	r0, fp
 2b4:	baffffe2 	blt	244 <_DrawBitmap+0x244>
 2b8:	e8bd8ffe 	pop	{r1, r2, r3, r4, r5, r6, r7, r8, r9, sl, fp, pc}
 2bc:	e59f2358 	ldr	r2, [pc, #856]	; 61c <_DrawBitmap+0x61c>
 2c0:	e3560000 	cmp	r6, #0
 2c4:	e5921044 	ldr	r1, [r2, #68]	; 0x44
 2c8:	e5922040 	ldr	r2, [r2, #64]	; 0x40
 2cc:	e0010190 	mul	r1, r0, r1
 2d0:	059d3030 	ldreq	r3, [sp, #48]	; 0x30
 2d4:	e0821081 	add	r1, r2, r1, lsl #1
 2d8:	e0812084 	add	r2, r1, r4, lsl #1
 2dc:	e0441008 	sub	r1, r4, r8
 2e0:	00431001 	subeq	r1, r3, r1
 2e4:	02411001 	subeq	r1, r1, #1
 2e8:	e0010195 	mul	r1, r5, r1
 2ec:	e0403007 	sub	r3, r0, r7
 2f0:	e0891081 	add	r1, r9, r1, lsl #1
 2f4:	e0811083 	add	r1, r1, r3, lsl #1
 2f8:	e1a03804 	lsl	r3, r4, #16
 2fc:	e1a03823 	lsr	r3, r3, #16
 300:	ea000006 	b	320 <_DrawBitmap+0x320>
 304:	e1d1c0b0 	ldrh	ip, [r1]
 308:	e3560000 	cmp	r6, #0
 30c:	00411085 	subeq	r1, r1, r5, lsl #1
 310:	e2833001 	add	r3, r3, #1
 314:	e3c33801 	bic	r3, r3, #65536	; 0x10000
 318:	10811085 	addne	r1, r1, r5, lsl #1
 31c:	e0c2c0b2 	strh	ip, [r2], #2
 320:	e153000a 	cmp	r3, sl
 324:	bafffff6 	blt	304 <_DrawBitmap+0x304>
 328:	e2800001 	add	r0, r0, #1
 32c:	e3c00801 	bic	r0, r0, #65536	; 0x10000
 330:	e150000b 	cmp	r0, fp
 334:	baffffe0 	blt	2bc <_DrawBitmap+0x2bc>
 338:	e8bd8ffe 	pop	{r1, r2, r3, r4, r5, r6, r7, r8, r9, sl, fp, pc}
 33c:	e3510009 	cmp	r1, #9
 340:	908ff101 	addls	pc, pc, r1, lsl #2
 344:	e8bd8ffe 	pop	{r1, r2, r3, r4, r5, r6, r7, r8, r9, sl, fp, pc}
 348:	ea000049 	b	474 <_DrawBitmap+0x474>
 34c:	ea000048 	b	474 <_DrawBitmap+0x474>
 350:	ea00002a 	b	400 <_DrawBitmap+0x400>
 354:	ea000046 	b	474 <_DrawBitmap+0x474>
 358:	ea000045 	b	474 <_DrawBitmap+0x474>
 35c:	ea000044 	b	474 <_DrawBitmap+0x474>
 360:	ea000002 	b	370 <_DrawBitmap+0x370>
 364:	ea000042 	b	474 <_DrawBitmap+0x474>
 368:	ea000041 	b	474 <_DrawBitmap+0x474>
 36c:	ea000040 	b	474 <_DrawBitmap+0x474>
 370:	e1a05000 	mov	r5, r0
 374:	ea00001e 	b	3f4 <_DrawBitmap+0x3f4>
 378:	e59f629c 	ldr	r6, [pc, #668]	; 61c <_DrawBitmap+0x61c>
 37c:	e59d2040 	ldr	r2, [sp, #64]	; 0x40
 380:	e5960044 	ldr	r0, [r6, #68]	; 0x44
 384:	e5961040 	ldr	r1, [r6, #64]	; 0x40
 388:	e0000095 	mul	r0, r5, r0
 38c:	e59d303c 	ldr	r3, [sp, #60]	; 0x3c
 390:	e0810080 	add	r0, r1, r0, lsl #1
 394:	e0451007 	sub	r1, r5, r7
 398:	e0811002 	add	r1, r1, r2
 39c:	e59d2044 	ldr	r2, [sp, #68]	; 0x44
 3a0:	e0800084 	add	r0, r0, r4, lsl #1
 3a4:	e0010192 	mul	r1, r2, r1
 3a8:	e0442008 	sub	r2, r4, r8
 3ac:	e0822003 	add	r2, r2, r3
 3b0:	e0891081 	add	r1, r9, r1, lsl #1
 3b4:	e0811082 	add	r1, r1, r2, lsl #1
 3b8:	e1a02804 	lsl	r2, r4, #16
 3bc:	e1a02822 	lsr	r2, r2, #16
 3c0:	ea000007 	b	3e4 <_DrawBitmap+0x3e4>
 3c4:	e1d130b0 	ldrh	r3, [r1]
 3c8:	e59dc038 	ldr	ip, [sp, #56]	; 0x38
 3cc:	e2822001 	add	r2, r2, #1
 3d0:	e153000c 	cmp	r3, ip
 3d4:	11c030b0 	strhne	r3, [r0]
 3d8:	e2800002 	add	r0, r0, #2
 3dc:	e3c22801 	bic	r2, r2, #65536	; 0x10000
 3e0:	e2811002 	add	r1, r1, #2
 3e4:	e152000a 	cmp	r2, sl
 3e8:	bafffff5 	blt	3c4 <_DrawBitmap+0x3c4>
 3ec:	e2850001 	add	r0, r5, #1
 3f0:	e3c05801 	bic	r5, r0, #65536	; 0x10000
 3f4:	e155000b 	cmp	r5, fp
 3f8:	baffffde 	blt	378 <_DrawBitmap+0x378>
 3fc:	e8bd8ffe 	pop	{r1, r2, r3, r4, r5, r6, r7, r8, r9, sl, fp, pc}
 400:	e15a0004 	cmp	sl, r4
 404:	d8bd8ffe 	pople	{r1, r2, r3, r4, r5, r6, r7, r8, r9, sl, fp, pc}
 408:	e59d203c 	ldr	r2, [sp, #60]	; 0x3c
 40c:	e1a05000 	mov	r5, r0
 410:	e04a0004 	sub	r0, sl, r4
 414:	e0441008 	sub	r1, r4, r8
 418:	e59f61fc 	ldr	r6, [pc, #508]	; 61c <_DrawBitmap+0x61c>
 41c:	e0818002 	add	r8, r1, r2
 420:	e1a0a080 	lsl	sl, r0, #1
 424:	ea00000f 	b	468 <_DrawBitmap+0x468>
 428:	e5960044 	ldr	r0, [r6, #68]	; 0x44
 42c:	e5961040 	ldr	r1, [r6, #64]	; 0x40
 430:	e0000095 	mul	r0, r5, r0
 434:	e59d2040 	ldr	r2, [sp, #64]	; 0x40
 438:	e0810080 	add	r0, r1, r0, lsl #1
 43c:	e0451007 	sub	r1, r5, r7
 440:	e0811002 	add	r1, r1, r2
 444:	e59d2044 	ldr	r2, [sp, #68]	; 0x44
 448:	e0800084 	add	r0, r0, r4, lsl #1
 44c:	e0010192 	mul	r1, r2, r1
 450:	e1a0200a 	mov	r2, sl
 454:	e0891081 	add	r1, r9, r1, lsl #1
 458:	e0811088 	add	r1, r1, r8, lsl #1
 45c:	ebfffffe 	bl	0 <__aeabi_memcpy>
 460:	e2850001 	add	r0, r5, #1
 464:	e3c05801 	bic	r5, r0, #65536	; 0x10000
 468:	e155000b 	cmp	r5, fp
 46c:	baffffed 	blt	428 <_DrawBitmap+0x428>
 470:	e8bd8ffe 	pop	{r1, r2, r3, r4, r5, r6, r7, r8, r9, sl, fp, pc}
 474:	e58d0004 	str	r0, [sp, #4]
 478:	ea000063 	b	60c <_DrawBitmap+0x60c>
 47c:	e59f6198 	ldr	r6, [pc, #408]	; 61c <_DrawBitmap+0x61c>
 480:	e59d1004 	ldr	r1, [sp, #4]
 484:	e5960044 	ldr	r0, [r6, #68]	; 0x44
 488:	e59d203c 	ldr	r2, [sp, #60]	; 0x3c
 48c:	e0000091 	mul	r0, r1, r0
 490:	e5961040 	ldr	r1, [r6, #64]	; 0x40
 494:	e0810080 	add	r0, r1, r0, lsl #1
 498:	e0805084 	add	r5, r0, r4, lsl #1
 49c:	e59d0004 	ldr	r0, [sp, #4]
 4a0:	e59d1040 	ldr	r1, [sp, #64]	; 0x40
 4a4:	e0400007 	sub	r0, r0, r7
 4a8:	e0800001 	add	r0, r0, r1
 4ac:	e59d1044 	ldr	r1, [sp, #68]	; 0x44
 4b0:	e0000091 	mul	r0, r1, r0
 4b4:	e0441008 	sub	r1, r4, r8
 4b8:	e0811002 	add	r1, r1, r2
 4bc:	e0890080 	add	r0, r9, r0, lsl #1
 4c0:	e0806081 	add	r6, r0, r1, lsl #1
 4c4:	e1a00804 	lsl	r0, r4, #16
 4c8:	e1a00820 	lsr	r0, r0, #16
 4cc:	ea000047 	b	5f0 <_DrawBitmap+0x5f0>
 4d0:	e59d0034 	ldr	r0, [sp, #52]	; 0x34
 4d4:	e3500009 	cmp	r0, #9
 4d8:	908ff100 	addls	pc, pc, r0, lsl #2
 4dc:	ea00003e 	b	5dc <_DrawBitmap+0x5dc>
 4e0:	ea000028 	b	588 <_DrawBitmap+0x588>
 4e4:	ea000029 	b	590 <_DrawBitmap+0x590>
 4e8:	ea00003b 	b	5dc <_DrawBitmap+0x5dc>
 4ec:	ea00002b 	b	5a0 <_DrawBitmap+0x5a0>
 4f0:	ea00002c 	b	5a8 <_DrawBitmap+0x5a8>
 4f4:	ea000030 	b	5bc <_DrawBitmap+0x5bc>
 4f8:	ea000037 	b	5dc <_DrawBitmap+0x5dc>
 4fc:	ea000032 	b	5cc <_DrawBitmap+0x5cc>
 500:	ea000000 	b	508 <_DrawBitmap+0x508>
 504:	ea000018 	b	56c <_DrawBitmap+0x56c>
 508:	e1d610b0 	ldrh	r1, [r6]
 50c:	e59d0038 	ldr	r0, [sp, #56]	; 0x38
 510:	e1510000 	cmp	r1, r0
 514:	0a000030 	beq	5dc <_DrawBitmap+0x5dc>
 518:	e2010b3e 	and	r0, r1, #63488	; 0xf800
 51c:	e1a025a0 	lsr	r2, r0, #11
 520:	e3a0303c 	mov	r3, #60	; 0x3c
 524:	e1620382 	smulbb	r2, r2, r3
 528:	e2010e7e 	and	r0, r1, #2016	; 0x7e0
 52c:	e1a00320 	lsr	r0, r0, #6
 530:	e3a0303b 	mov	r3, #59	; 0x3b
 534:	e1600380 	smulbb	r0, r0, r3
 538:	e201101f 	and	r1, r1, #31
 53c:	e0820080 	add	r0, r2, r0, lsl #1
 540:	e3a0200b 	mov	r2, #11
 544:	e0010192 	mul	r1, r2, r1
 548:	e0800081 	add	r0, r0, r1, lsl #1
 54c:	e3a01019 	mov	r1, #25
 550:	ebfffffe 	bl	0 <__aeabi_uidivmod>
 554:	e1a011a0 	lsr	r1, r0, #3
 558:	e1a01581 	lsl	r1, r1, #11
 55c:	e1a02120 	lsr	r2, r0, #2
 560:	e0811282 	add	r1, r1, r2, lsl #5
 564:	e08101a0 	add	r0, r1, r0, lsr #3
 568:	ea000004 	b	580 <_DrawBitmap+0x580>
 56c:	e1d600b0 	ldrh	r0, [r6]
 570:	e59d1038 	ldr	r1, [sp, #56]	; 0x38
 574:	e1500001 	cmp	r0, r1
 578:	0a000017 	beq	5dc <_DrawBitmap+0x5dc>
 57c:	e1e00000 	mvn	r0, r0
 580:	e1c500b0 	strh	r0, [r5]
 584:	ea000014 	b	5dc <_DrawBitmap+0x5dc>
 588:	e1d600b0 	ldrh	r0, [r6]
 58c:	ea000007 	b	5b0 <_DrawBitmap+0x5b0>
 590:	e1d600b0 	ldrh	r0, [r6]
 594:	e1d510b0 	ldrh	r1, [r5]
 598:	e0200001 	eor	r0, r0, r1
 59c:	eafffff7 	b	580 <_DrawBitmap+0x580>
 5a0:	e1d600b0 	ldrh	r0, [r6]
 5a4:	eafffff4 	b	57c <_DrawBitmap+0x57c>
 5a8:	e1d600b0 	ldrh	r0, [r6]
 5ac:	e1e00000 	mvn	r0, r0
 5b0:	e1d510b0 	ldrh	r1, [r5]
 5b4:	e1800001 	orr	r0, r0, r1
 5b8:	eafffff0 	b	580 <_DrawBitmap+0x580>
 5bc:	e1d500b0 	ldrh	r0, [r5]
 5c0:	e1d610b0 	ldrh	r1, [r6]
 5c4:	e1c00001 	bic	r0, r0, r1
 5c8:	eaffffec 	b	580 <_DrawBitmap+0x580>
 5cc:	e1d600b0 	ldrh	r0, [r6]
 5d0:	e1d510b0 	ldrh	r1, [r5]
 5d4:	e0000001 	and	r0, r0, r1
 5d8:	eaffffe8 	b	580 <_DrawBitmap+0x580>
 5dc:	e59d0008 	ldr	r0, [sp, #8]
 5e0:	e2855002 	add	r5, r5, #2
 5e4:	e2800001 	add	r0, r0, #1
 5e8:	e3c00801 	bic	r0, r0, #65536	; 0x10000
 5ec:	e2866002 	add	r6, r6, #2
 5f0:	e150000a 	cmp	r0, sl
 5f4:	e58d0008 	str	r0, [sp, #8]
 5f8:	baffffb4 	blt	4d0 <_DrawBitmap+0x4d0>
 5fc:	e59d0004 	ldr	r0, [sp, #4]
 600:	e2800001 	add	r0, r0, #1
 604:	e3c00801 	bic	r0, r0, #65536	; 0x10000
 608:	eaffff99 	b	474 <_DrawBitmap+0x474>
 60c:	e59d0004 	ldr	r0, [sp, #4]
 610:	e150000b 	cmp	r0, fp
 614:	baffff98 	blt	47c <_DrawBitmap+0x47c>
 618:	e8bd8ffe 	pop	{r1, r2, r3, r4, r5, r6, r7, r8, r9, sl, fp, pc}
 61c:	00000000 	.word	0x00000000

Disassembly of section i._DrawBitmapEx:

00000000 <_DrawBitmapEx>:
   0:	e92d4fff 	push	{r0, r1, r2, r3, r4, r5, r6, r7, r8, r9, sl, fp, lr}
   4:	e24dd04c 	sub	sp, sp, #76	; 0x4c
   8:	e1a05000 	mov	r5, r0
   c:	e59d0080 	ldr	r0, [sp, #128]	; 0x80
  10:	e1a06002 	mov	r6, r2
  14:	e1d000f0 	ldrsh	r0, [r0]
  18:	e1a07003 	mov	r7, r3
  1c:	e58d0020 	str	r0, [sp, #32]
  20:	e59d0080 	ldr	r0, [sp, #128]	; 0x80
  24:	e1d020f2 	ldrsh	r2, [r0, #2]
  28:	e58d201c 	str	r2, [sp, #28]
  2c:	e1d010f4 	ldrsh	r1, [r0, #4]
  30:	e59d2050 	ldr	r2, [sp, #80]	; 0x50
  34:	e58d1018 	str	r1, [sp, #24]
  38:	e1d080f6 	ldrsh	r8, [r0, #6]
  3c:	e1d200b8 	ldrh	r0, [r2, #8]
  40:	e59d1018 	ldr	r1, [sp, #24]
  44:	e08000a6 	add	r0, r0, r6, lsr #1
  48:	e1a02800 	lsl	r2, r0, #16
  4c:	e1a02842 	asr	r2, r2, #16
  50:	e58d2014 	str	r2, [sp, #20]
  54:	e59d2050 	ldr	r2, [sp, #80]	; 0x50
  58:	e3510000 	cmp	r1, #0
  5c:	e1d200ba 	ldrh	r0, [r2, #10]
  60:	e59d201c 	ldr	r2, [sp, #28]
  64:	e08000a7 	add	r0, r0, r7, lsr #1
  68:	e1a00800 	lsl	r0, r0, #16
  6c:	e1a00840 	asr	r0, r0, #16
  70:	e58d0010 	str	r0, [sp, #16]
  74:	e59d0020 	ldr	r0, [sp, #32]
  78:	e1620182 	smulbb	r2, r2, r1
  7c:	e1600880 	smulbb	r0, r0, r8
  80:	b2611000 	rsblt	r1, r1, #0
  84:	e0409002 	sub	r9, r0, r2
  88:	e2580000 	subs	r0, r8, #0
  8c:	e0010196 	mul	r1, r6, r1
  90:	b2600000 	rsblt	r0, r0, #0
  94:	e59d2050 	ldr	r2, [sp, #80]	; 0x50
  98:	e0201097 	mla	r0, r7, r0, r1
  9c:	e1d220b6 	ldrh	r2, [r2, #6]
  a0:	e1a01380 	lsl	r1, r0, #7
  a4:	e59d3010 	ldr	r3, [sp, #16]
  a8:	e1a01841 	asr	r1, r1, #16
  ac:	e2610000 	rsb	r0, r1, #0
  b0:	e0422003 	sub	r2, r2, r3
  b4:	e1520001 	cmp	r2, r1
  b8:	d1a01002 	movle	r1, r2
  bc:	e1a01801 	lsl	r1, r1, #16
  c0:	e59d3010 	ldr	r3, [sp, #16]
  c4:	e1a01841 	asr	r1, r1, #16
  c8:	e1a00800 	lsl	r0, r0, #16
  cc:	e58d100c 	str	r1, [sp, #12]
  d0:	e2631000 	rsb	r1, r3, #0
  d4:	e1a00840 	asr	r0, r0, #16
  d8:	e1500001 	cmp	r0, r1
  dc:	d1a00001 	movle	r0, r1
  e0:	e1a04800 	lsl	r4, r0, #16
  e4:	e1a04844 	asr	r4, r4, #16
  e8:	ea000114 	b	540 <_DrawBitmapEx+0x540>
  ec:	e3580000 	cmp	r8, #0
  f0:	059fa45c 	ldreq	sl, [pc, #1116]	; 554 <_DrawBitmapEx+0x554>
  f4:	0a00000e 	beq	134 <_DrawBitmapEx+0x134>
  f8:	e59d101c 	ldr	r1, [sp, #28]
  fc:	e00a0699 	mul	sl, r9, r6
 100:	e0000194 	mul	r0, r4, r1
 104:	e1a01008 	mov	r1, r8
 108:	e58d0048 	str	r0, [sp, #72]	; 0x48
 10c:	e08004ca 	add	r0, r0, sl, asr #9
 110:	ebfffffe 	bl	0 <__aeabi_idivmod>
 114:	e1a0b000 	mov	fp, r0
 118:	e59d0048 	ldr	r0, [sp, #72]	; 0x48
 11c:	e1a01008 	mov	r1, r8
 120:	e04004ca 	sub	r0, r0, sl, asr #9
 124:	ebfffffe 	bl	0 <__aeabi_idivmod>
 128:	e15b0000 	cmp	fp, r0
 12c:	c1a0000b 	movgt	r0, fp
 130:	e1a0a000 	mov	sl, r0
 134:	e59d1018 	ldr	r1, [sp, #24]
 138:	e3510000 	cmp	r1, #0
 13c:	059f0410 	ldreq	r0, [pc, #1040]	; 554 <_DrawBitmapEx+0x554>
 140:	0a00000f 	beq	184 <_DrawBitmapEx+0x184>
 144:	e59d0020 	ldr	r0, [sp, #32]
 148:	e0010799 	mul	r1, r9, r7
 14c:	e0000094 	mul	r0, r4, r0
 150:	e58d1040 	str	r1, [sp, #64]	; 0x40
 154:	e58d0044 	str	r0, [sp, #68]	; 0x44
 158:	e08004c1 	add	r0, r0, r1, asr #9
 15c:	e59d1018 	ldr	r1, [sp, #24]
 160:	ebfffffe 	bl	0 <__aeabi_idivmod>
 164:	e1a0b000 	mov	fp, r0
 168:	e59d0044 	ldr	r0, [sp, #68]	; 0x44
 16c:	e59d1040 	ldr	r1, [sp, #64]	; 0x40
 170:	e04004c1 	sub	r0, r0, r1, asr #9
 174:	e59d1018 	ldr	r1, [sp, #24]
 178:	ebfffffe 	bl	0 <__aeabi_idivmod>
 17c:	e15b0000 	cmp	fp, r0
 180:	c1a0000b 	movgt	r0, fp
 184:	e15a0000 	cmp	sl, r0
 188:	aa00000d 	bge	1c4 <_DrawBitmapEx+0x1c4>
 18c:	e3580000 	cmp	r8, #0
 190:	0a00000e 	beq	1d0 <_DrawBitmapEx+0x1d0>
 194:	e59d101c 	ldr	r1, [sp, #28]
 198:	e00a0699 	mul	sl, r9, r6
 19c:	e0000194 	mul	r0, r4, r1
 1a0:	e1a01008 	mov	r1, r8
 1a4:	e58d003c 	str	r0, [sp, #60]	; 0x3c
 1a8:	e08004ca 	add	r0, r0, sl, asr #9
 1ac:	ebfffffe 	bl	0 <__aeabi_idivmod>
 1b0:	e1a0b000 	mov	fp, r0
 1b4:	e59d003c 	ldr	r0, [sp, #60]	; 0x3c
 1b8:	e1a01008 	mov	r1, r8
 1bc:	e04004ca 	sub	r0, r0, sl, asr #9
 1c0:	ea00000f 	b	204 <_DrawBitmapEx+0x204>
 1c4:	e59d1018 	ldr	r1, [sp, #24]
 1c8:	e3510000 	cmp	r1, #0
 1cc:	1a000001 	bne	1d8 <_DrawBitmapEx+0x1d8>
 1d0:	e59f037c 	ldr	r0, [pc, #892]	; 554 <_DrawBitmapEx+0x554>
 1d4:	ea00000d 	b	210 <_DrawBitmapEx+0x210>
 1d8:	e59d0020 	ldr	r0, [sp, #32]
 1dc:	e00a0799 	mul	sl, r9, r7
 1e0:	e0000094 	mul	r0, r4, r0
 1e4:	e59d1018 	ldr	r1, [sp, #24]
 1e8:	e58d0038 	str	r0, [sp, #56]	; 0x38
 1ec:	e08004ca 	add	r0, r0, sl, asr #9
 1f0:	ebfffffe 	bl	0 <__aeabi_idivmod>
 1f4:	e1a0b000 	mov	fp, r0
 1f8:	e59d0038 	ldr	r0, [sp, #56]	; 0x38
 1fc:	e59d1018 	ldr	r1, [sp, #24]
 200:	e04004ca 	sub	r0, r0, sl, asr #9
 204:	ebfffffe 	bl	0 <__aeabi_idivmod>
 208:	e15b0000 	cmp	fp, r0
 20c:	c1a0000b 	movgt	r0, fp
 210:	e1a02800 	lsl	r2, r0, #16
 214:	e3580000 	cmp	r8, #0
 218:	e1a02842 	asr	r2, r2, #16
 21c:	059fa334 	ldreq	sl, [pc, #820]	; 558 <_DrawBitmapEx+0x558>
 220:	e58d2008 	str	r2, [sp, #8]
 224:	0a00000e 	beq	264 <_DrawBitmapEx+0x264>
 228:	e59d101c 	ldr	r1, [sp, #28]
 22c:	e00a0699 	mul	sl, r9, r6
 230:	e0000194 	mul	r0, r4, r1
 234:	e1a01008 	mov	r1, r8
 238:	e58d0034 	str	r0, [sp, #52]	; 0x34
 23c:	e04004ca 	sub	r0, r0, sl, asr #9
 240:	ebfffffe 	bl	0 <__aeabi_idivmod>
 244:	e1a0b000 	mov	fp, r0
 248:	e59d0034 	ldr	r0, [sp, #52]	; 0x34
 24c:	e1a01008 	mov	r1, r8
 250:	e08004ca 	add	r0, r0, sl, asr #9
 254:	ebfffffe 	bl	0 <__aeabi_idivmod>
 258:	e15b0000 	cmp	fp, r0
 25c:	b1a0000b 	movlt	r0, fp
 260:	e1a0a000 	mov	sl, r0
 264:	e59d1018 	ldr	r1, [sp, #24]
 268:	e3510000 	cmp	r1, #0
 26c:	059f02e4 	ldreq	r0, [pc, #740]	; 558 <_DrawBitmapEx+0x558>
 270:	0a00000f 	beq	2b4 <_DrawBitmapEx+0x2b4>
 274:	e59d0020 	ldr	r0, [sp, #32]
 278:	e0010799 	mul	r1, r9, r7
 27c:	e0000094 	mul	r0, r4, r0
 280:	e58d102c 	str	r1, [sp, #44]	; 0x2c
 284:	e58d0030 	str	r0, [sp, #48]	; 0x30
 288:	e04004c1 	sub	r0, r0, r1, asr #9
 28c:	e59d1018 	ldr	r1, [sp, #24]
 290:	ebfffffe 	bl	0 <__aeabi_idivmod>
 294:	e1a0b000 	mov	fp, r0
 298:	e59d0030 	ldr	r0, [sp, #48]	; 0x30
 29c:	e59d102c 	ldr	r1, [sp, #44]	; 0x2c
 2a0:	e08004c1 	add	r0, r0, r1, asr #9
 2a4:	e59d1018 	ldr	r1, [sp, #24]
 2a8:	ebfffffe 	bl	0 <__aeabi_idivmod>
 2ac:	e15b0000 	cmp	fp, r0
 2b0:	b1a0000b 	movlt	r0, fp
 2b4:	e15a0000 	cmp	sl, r0
 2b8:	da00000d 	ble	2f4 <_DrawBitmapEx+0x2f4>
 2bc:	e3580000 	cmp	r8, #0
 2c0:	0a00000e 	beq	300 <_DrawBitmapEx+0x300>
 2c4:	e59d101c 	ldr	r1, [sp, #28]
 2c8:	e00a0699 	mul	sl, r9, r6
 2cc:	e0000194 	mul	r0, r4, r1
 2d0:	e1a01008 	mov	r1, r8
 2d4:	e58d0028 	str	r0, [sp, #40]	; 0x28
 2d8:	e04004ca 	sub	r0, r0, sl, asr #9
 2dc:	ebfffffe 	bl	0 <__aeabi_idivmod>
 2e0:	e1a0b000 	mov	fp, r0
 2e4:	e59d0028 	ldr	r0, [sp, #40]	; 0x28
 2e8:	e1a01008 	mov	r1, r8
 2ec:	e08004ca 	add	r0, r0, sl, asr #9
 2f0:	ea00000f 	b	334 <_DrawBitmapEx+0x334>
 2f4:	e59d1018 	ldr	r1, [sp, #24]
 2f8:	e3510000 	cmp	r1, #0
 2fc:	1a000001 	bne	308 <_DrawBitmapEx+0x308>
 300:	e59f0250 	ldr	r0, [pc, #592]	; 558 <_DrawBitmapEx+0x558>
 304:	ea00000d 	b	340 <_DrawBitmapEx+0x340>
 308:	e59d0020 	ldr	r0, [sp, #32]
 30c:	e00a0799 	mul	sl, r9, r7
 310:	e0000094 	mul	r0, r4, r0
 314:	e59d1018 	ldr	r1, [sp, #24]
 318:	e58d0024 	str	r0, [sp, #36]	; 0x24
 31c:	e04004ca 	sub	r0, r0, sl, asr #9
 320:	ebfffffe 	bl	0 <__aeabi_idivmod>
 324:	e1a0b000 	mov	fp, r0
 328:	e59d0024 	ldr	r0, [sp, #36]	; 0x24
 32c:	e59d1018 	ldr	r1, [sp, #24]
 330:	e08004ca 	add	r0, r0, sl, asr #9
 334:	ebfffffe 	bl	0 <__aeabi_idivmod>
 338:	e15b0000 	cmp	fp, r0
 33c:	b1a0000b 	movlt	r0, fp
 340:	e59d1050 	ldr	r1, [sp, #80]	; 0x50
 344:	e59d2014 	ldr	r2, [sp, #20]
 348:	e1d110b4 	ldrh	r1, [r1, #4]
 34c:	e59d3008 	ldr	r3, [sp, #8]
 350:	e1a00800 	lsl	r0, r0, #16
 354:	e0412002 	sub	r2, r1, r2
 358:	e1520003 	cmp	r2, r3
 35c:	c59d2008 	ldrgt	r2, [sp, #8]
 360:	e1a00840 	asr	r0, r0, #16
 364:	e1a02802 	lsl	r2, r2, #16
 368:	e1a02842 	asr	r2, r2, #16
 36c:	e58d2008 	str	r2, [sp, #8]
 370:	e59d2014 	ldr	r2, [sp, #20]
 374:	e2622000 	rsb	r2, r2, #0
 378:	e1500002 	cmp	r0, r2
 37c:	d1a00002 	movle	r0, r2
 380:	e1a0b800 	lsl	fp, r0, #16
 384:	e59d0010 	ldr	r0, [sp, #16]
 388:	e59d2014 	ldr	r2, [sp, #20]
 38c:	e0840000 	add	r0, r4, r0
 390:	e0000091 	mul	r0, r1, r0
 394:	e59d1050 	ldr	r1, [sp, #80]	; 0x50
 398:	e1a0b84b 	asr	fp, fp, #16
 39c:	e5911000 	ldr	r1, [r1]
 3a0:	e0810080 	add	r0, r1, r0, lsl #1
 3a4:	e08b1002 	add	r1, fp, r2
 3a8:	e080a081 	add	sl, r0, r1, lsl #1
 3ac:	e59d0080 	ldr	r0, [sp, #128]	; 0x80
 3b0:	e1d000b8 	ldrh	r0, [r0, #8]
 3b4:	e3500002 	cmp	r0, #2
 3b8:	0a00005c 	beq	530 <_DrawBitmapEx+0x530>
 3bc:	e3500006 	cmp	r0, #6
 3c0:	1a00005d 	bne	53c <_DrawBitmapEx+0x53c>
 3c4:	ea00002b 	b	478 <_DrawBitmapEx+0x478>
 3c8:	e59d0020 	ldr	r0, [sp, #32]
 3cc:	e59d1018 	ldr	r1, [sp, #24]
 3d0:	e0000094 	mul	r0, r4, r0
 3d4:	e001019b 	mul	r1, fp, r1
 3d8:	e0400001 	sub	r0, r0, r1
 3dc:	e1a00400 	lsl	r0, r0, #8
 3e0:	e1a01009 	mov	r1, r9
 3e4:	ebfffffe 	bl	0 <__aeabi_idivmod>
 3e8:	e08010a7 	add	r1, r0, r7, lsr #1
 3ec:	e58d1004 	str	r1, [sp, #4]
 3f0:	e59d101c 	ldr	r1, [sp, #28]
 3f4:	e000089b 	mul	r0, fp, r8
 3f8:	e0010194 	mul	r1, r4, r1
 3fc:	e0400001 	sub	r0, r0, r1
 400:	e1a00400 	lsl	r0, r0, #8
 404:	e1a01009 	mov	r1, r9
 408:	ebfffffe 	bl	0 <__aeabi_idivmod>
 40c:	e59d1004 	ldr	r1, [sp, #4]
 410:	e08000a6 	add	r0, r0, r6, lsr #1
 414:	e1510007 	cmp	r1, r7
 418:	aa000014 	bge	470 <_DrawBitmapEx+0x470>
 41c:	e59d1004 	ldr	r1, [sp, #4]
 420:	e3510000 	cmp	r1, #0
 424:	ba000011 	blt	470 <_DrawBitmapEx+0x470>
 428:	e1500006 	cmp	r0, r6
 42c:	aa00000f 	bge	470 <_DrawBitmapEx+0x470>
 430:	e3500000 	cmp	r0, #0
 434:	ba00000d 	blt	470 <_DrawBitmapEx+0x470>
 438:	e1d510ba 	ldrh	r1, [r5, #10]
 43c:	e59d2004 	ldr	r2, [sp, #4]
 440:	e0811002 	add	r1, r1, r2
 444:	e1d520b4 	ldrh	r2, [r5, #4]
 448:	e0010192 	mul	r1, r2, r1
 44c:	e5952000 	ldr	r2, [r5]
 450:	e0821081 	add	r1, r2, r1, lsl #1
 454:	e1d520b8 	ldrh	r2, [r5, #8]
 458:	e0820000 	add	r0, r2, r0
 45c:	e0810080 	add	r0, r1, r0, lsl #1
 460:	e1d000b0 	ldrh	r0, [r0]
 464:	e59d1084 	ldr	r1, [sp, #132]	; 0x84
 468:	e1500001 	cmp	r0, r1
 46c:	11ca00b0 	strhne	r0, [sl]
 470:	e28aa002 	add	sl, sl, #2
 474:	e28bb001 	add	fp, fp, #1
 478:	e59d0008 	ldr	r0, [sp, #8]
 47c:	e15b0000 	cmp	fp, r0
 480:	baffffd0 	blt	3c8 <_DrawBitmapEx+0x3c8>
 484:	ea00002c 	b	53c <_DrawBitmapEx+0x53c>
 488:	e59d0020 	ldr	r0, [sp, #32]
 48c:	e59d1018 	ldr	r1, [sp, #24]
 490:	e0000094 	mul	r0, r4, r0
 494:	e001019b 	mul	r1, fp, r1
 498:	e0400001 	sub	r0, r0, r1
 49c:	e1a00400 	lsl	r0, r0, #8
 4a0:	e1a01009 	mov	r1, r9
 4a4:	ebfffffe 	bl	0 <__aeabi_idivmod>
 4a8:	e08010a7 	add	r1, r0, r7, lsr #1
 4ac:	e58d1004 	str	r1, [sp, #4]
 4b0:	e59d101c 	ldr	r1, [sp, #28]
 4b4:	e000089b 	mul	r0, fp, r8
 4b8:	e0010194 	mul	r1, r4, r1
 4bc:	e0400001 	sub	r0, r0, r1
 4c0:	e1a00400 	lsl	r0, r0, #8
 4c4:	e1a01009 	mov	r1, r9
 4c8:	ebfffffe 	bl	0 <__aeabi_idivmod>
 4cc:	e59d1004 	ldr	r1, [sp, #4]
 4d0:	e08000a6 	add	r0, r0, r6, lsr #1
 4d4:	e1510007 	cmp	r1, r7
 4d8:	aa000012 	bge	528 <_DrawBitmapEx+0x528>
 4dc:	e59d1004 	ldr	r1, [sp, #4]
 4e0:	e3510000 	cmp	r1, #0
 4e4:	ba00000f 	blt	528 <_DrawBitmapEx+0x528>
 4e8:	e1500006 	cmp	r0, r6
 4ec:	aa00000d 	bge	528 <_DrawBitmapEx+0x528>
 4f0:	e3500000 	cmp	r0, #0
 4f4:	ba00000b 	blt	528 <_DrawBitmapEx+0x528>
 4f8:	e1d510ba 	ldrh	r1, [r5, #10]
 4fc:	e59d2004 	ldr	r2, [sp, #4]
 500:	e0811002 	add	r1, r1, r2
 504:	e1d520b4 	ldrh	r2, [r5, #4]
 508:	e0010192 	mul	r1, r2, r1
 50c:	e5952000 	ldr	r2, [r5]
 510:	e0821081 	add	r1, r2, r1, lsl #1
 514:	e1d520b8 	ldrh	r2, [r5, #8]
 518:	e0820000 	add	r0, r2, r0
 51c:	e0810080 	add	r0, r1, r0, lsl #1
 520:	e1d000b0 	ldrh	r0, [r0]
 524:	e1ca00b0 	strh	r0, [sl]
 528:	e28aa002 	add	sl, sl, #2
 52c:	e28bb001 	add	fp, fp, #1
 530:	e59d0008 	ldr	r0, [sp, #8]
 534:	e15b0000 	cmp	fp, r0
 538:	baffffd2 	blt	488 <_DrawBitmapEx+0x488>
 53c:	e2844001 	add	r4, r4, #1
 540:	e59d000c 	ldr	r0, [sp, #12]
 544:	e1540000 	cmp	r4, r0
 548:	bafffee7 	blt	ec <_DrawBitmapEx+0xec>
 54c:	e28dd05c 	add	sp, sp, #92	; 0x5c
 550:	e8bd8ff0 	pop	{r4, r5, r6, r7, r8, r9, sl, fp, pc}
 554:	000003e7 	.word	0x000003e7
 558:	fffffc19 	.word	0xfffffc19

Disassembly of section i.DrawRect:

00000000 <DrawRect>:
   0:	e92d47f0 	push	{r4, r5, r6, r7, r8, r9, sl, lr}
   4:	e59f8140 	ldr	r8, [pc, #320]	; 14c <DrawRect+0x14c>
   8:	e0813003 	add	r3, r1, r3
   c:	e5984048 	ldr	r4, [r8, #72]	; 0x48
  10:	e0802002 	add	r2, r0, r2
  14:	e1530004 	cmp	r3, r4
  18:	c1a03004 	movgt	r3, r4
  1c:	e1a06003 	mov	r6, r3
  20:	e5983044 	ldr	r3, [r8, #68]	; 0x44
  24:	e59dc020 	ldr	ip, [sp, #32]
  28:	e1520003 	cmp	r2, r3
  2c:	c1a02003 	movgt	r2, r3
  30:	e3510000 	cmp	r1, #0
  34:	b3a01000 	movlt	r1, #0
  38:	e3500000 	cmp	r0, #0
  3c:	b3a00000 	movlt	r0, #0
  40:	e1a04000 	mov	r4, r0
  44:	e59de024 	ldr	lr, [sp, #36]	; 0x24
  48:	e1a001ac 	lsr	r0, ip, #3
  4c:	e59d5028 	ldr	r5, [sp, #40]	; 0x28
  50:	e1a00580 	lsl	r0, r0, #11
  54:	e1a0c12e 	lsr	ip, lr, #2
  58:	e080028c 	add	r0, r0, ip, lsl #5
  5c:	e1560001 	cmp	r6, r1
  60:	e08001a5 	add	r0, r0, r5, lsr #3
  64:	c1520004 	cmpgt	r2, r4
  68:	e3c07803 	bic	r7, r0, #196608	; 0x30000
  6c:	d8bd87f0 	pople	{r4, r5, r6, r7, r8, r9, sl, pc}
  70:	e0000193 	mul	r0, r3, r1
  74:	e5983040 	ldr	r3, [r8, #64]	; 0x40
  78:	e0830080 	add	r0, r3, r0, lsl #1
  7c:	e0800084 	add	r0, r0, r4, lsl #1
  80:	e1a03804 	lsl	r3, r4, #16
  84:	e1a03823 	lsr	r3, r3, #16
  88:	e1a05000 	mov	r5, r0
  8c:	e1530002 	cmp	r3, r2
  90:	b2833001 	addlt	r3, r3, #1
  94:	b3c33801 	biclt	r3, r3, #65536	; 0x10000
  98:	b0c070b2 	strhlt	r7, [r0], #2
  9c:	bafffffa 	blt	8c <DrawRect+0x8c>
  a0:	e3150003 	tst	r5, #3
  a4:	0a000015 	beq	100 <DrawRect+0x100>
  a8:	e285a002 	add	sl, r5, #2
  ac:	e2810001 	add	r0, r1, #1
  b0:	e1a05800 	lsl	r5, r0, #16
  b4:	e0420004 	sub	r0, r2, r4
  b8:	e2400001 	sub	r0, r0, #1
  bc:	e1a09080 	lsl	r9, r0, #1
  c0:	e1a05825 	lsr	r5, r5, #16
  c4:	ea00000a 	b	f4 <DrawRect+0xf4>
  c8:	e5980044 	ldr	r0, [r8, #68]	; 0x44
  cc:	e5981040 	ldr	r1, [r8, #64]	; 0x40
  d0:	e0000095 	mul	r0, r5, r0
  d4:	e1a02009 	mov	r2, r9
  d8:	e0810080 	add	r0, r1, r0, lsl #1
  dc:	e0800084 	add	r0, r0, r4, lsl #1
  e0:	e1a0100a 	mov	r1, sl
  e4:	e0c070b2 	strh	r7, [r0], #2
  e8:	ebfffffe 	bl	0 <__aeabi_memcpy>
  ec:	e2850001 	add	r0, r5, #1
  f0:	e3c05801 	bic	r5, r0, #65536	; 0x10000
  f4:	e1550006 	cmp	r5, r6
  f8:	bafffff2 	blt	c8 <DrawRect+0xc8>
  fc:	e8bd87f0 	pop	{r4, r5, r6, r7, r8, r9, sl, pc}
 100:	e2810001 	add	r0, r1, #1
 104:	e1a07800 	lsl	r7, r0, #16
 108:	e0420004 	sub	r0, r2, r4
 10c:	e1a09080 	lsl	r9, r0, #1
 110:	e1a07827 	lsr	r7, r7, #16
 114:	ea000009 	b	140 <DrawRect+0x140>
 118:	e5980044 	ldr	r0, [r8, #68]	; 0x44
 11c:	e5981040 	ldr	r1, [r8, #64]	; 0x40
 120:	e0000097 	mul	r0, r7, r0
 124:	e1a02009 	mov	r2, r9
 128:	e0810080 	add	r0, r1, r0, lsl #1
 12c:	e0800084 	add	r0, r0, r4, lsl #1
 130:	e1a01005 	mov	r1, r5
 134:	ebfffffe 	bl	0 <__aeabi_memcpy>
 138:	e2870001 	add	r0, r7, #1
 13c:	e3c07801 	bic	r7, r0, #65536	; 0x10000
 140:	e1570006 	cmp	r7, r6
 144:	bafffff3 	blt	118 <DrawRect+0x118>
 148:	e8bd87f0 	pop	{r4, r5, r6, r7, r8, r9, sl, pc}
 14c:	00000000 	.word	0x00000000

Disassembly of section i._DrawText:

00000000 <_DrawText>:
   0:	e92d4ffe 	push	{r1, r2, r3, r4, r5, r6, r7, r8, r9, sl, fp, lr}
   4:	e3500000 	cmp	r0, #0
   8:	e1a05001 	mov	r5, r1
   c:	e59d7038 	ldr	r7, [sp, #56]	; 0x38
  10:	01a01005 	moveq	r1, r5
  14:	028f00f4 	addeq	r0, pc, #244	; 0xf4
  18:	e1a09003 	mov	r9, r3
  1c:	e1a08002 	mov	r8, r2
  20:	e1cda3d0 	ldrd	sl, [sp, #48]	; 0x30
  24:	0a000009 	beq	50 <_DrawText+0x50>
  28:	e3570000 	cmp	r7, #0
  2c:	11a06000 	movne	r6, r0
  30:	1a000008 	bne	58 <_DrawText+0x58>
  34:	e28d2008 	add	r2, sp, #8
  38:	e3a01000 	mov	r1, #0
  3c:	ebfffffe 	bl	0 <c2u>
  40:	e1b06000 	movs	r6, r0
  44:	1a000003 	bne	58 <_DrawText+0x58>
  48:	e1a01005 	mov	r1, r5
  4c:	e28f00d8 	add	r0, pc, #216	; 0xd8
  50:	ebfffffe 	bl	0 <mr_printf>
  54:	ea00002b 	b	108 <_DrawText+0x108>
  58:	e1a001a9 	lsr	r0, r9, #3
  5c:	e1a00580 	lsl	r0, r0, #11
  60:	e1a0112a 	lsr	r1, sl, #2
  64:	e0800281 	add	r0, r0, r1, lsl #5
  68:	e5d61001 	ldrb	r1, [r6, #1]
  6c:	e5d62000 	ldrb	r2, [r6]
  70:	e08001ab 	add	r0, r0, fp, lsr #3
  74:	e1a0a800 	lsl	sl, r0, #16
  78:	e1a05805 	lsl	r5, r5, #16
  7c:	e1a08808 	lsl	r8, r8, #16
  80:	e0811402 	add	r1, r1, r2, lsl #8
  84:	e3c19801 	bic	r9, r1, #65536	; 0x10000
  88:	e1a08828 	lsr	r8, r8, #16
  8c:	e1a05825 	lsr	r5, r5, #16
  90:	e1a0a82a 	lsr	sl, sl, #16
  94:	e1a04006 	mov	r4, r6
  98:	ea000014 	b	f0 <_DrawText+0xf0>
  9c:	e59d103c 	ldr	r1, [sp, #60]	; 0x3c
  a0:	e1a0300d 	mov	r3, sp
  a4:	e28d2004 	add	r2, sp, #4
  a8:	e1a00009 	mov	r0, r9
  ac:	ebfffffe 	bl	0 <mr_getCharBitmap>
  b0:	e3500000 	cmp	r0, #0
  b4:	0a000008 	beq	dc <_DrawText+0xdc>
  b8:	e1a0300a 	mov	r3, sl
  bc:	e1a02008 	mov	r2, r8
  c0:	e1a01005 	mov	r1, r5
  c4:	e1a00009 	mov	r0, r9
  c8:	ebfffffe 	bl	0 <mr_platDrawCharReal>
  cc:	e59d0004 	ldr	r0, [sp, #4]
  d0:	e0850000 	add	r0, r5, r0
  d4:	e1a05800 	lsl	r5, r0, #16
  d8:	e1a05825 	lsr	r5, r5, #16
  dc:	e2844002 	add	r4, r4, #2
  e0:	e5d40001 	ldrb	r0, [r4, #1]
  e4:	e5d41000 	ldrb	r1, [r4]
  e8:	e0800401 	add	r0, r0, r1, lsl #8
  ec:	e3c09801 	bic	r9, r0, #65536	; 0x10000
  f0:	e3590000 	cmp	r9, #0
  f4:	1affffe8 	bne	9c <_DrawText+0x9c>
  f8:	e3570000 	cmp	r7, #0
  fc:	059d1008 	ldreq	r1, [sp, #8]
 100:	01a00006 	moveq	r0, r6
 104:	0bfffffe 	bleq	0 <_DrawText>
 108:	e3a00000 	mov	r0, #0
 10c:	e8bd8ffe 	pop	{r1, r2, r3, r4, r5, r6, r7, r8, r9, sl, fp, pc}
 110:	77617244 	.word	0x77617244
 114:	74786554 	.word	0x74786554
 118:	253d7820 	.word	0x253d7820
 11c:	74203a64 	.word	0x74203a64
 120:	69207478 	.word	0x69207478
 124:	696e2073 	.word	0x696e2073
 128:	0000216c 	.word	0x0000216c
 12c:	77617244 	.word	0x77617244
 130:	74786554 	.word	0x74786554
 134:	253d7820 	.word	0x253d7820
 138:	32633a64 	.word	0x32633a64
 13c:	72652075 	.word	0x72652075
 140:	00002172 	.word	0x00002172

Disassembly of section i.mr_wstrlen:

00000000 <mr_wstrlen>:
   0:	e1a01000 	mov	r1, r0
   4:	e3a00000 	mov	r0, #0
   8:	e5d12001 	ldrb	r2, [r1, #1]
   c:	e5d13000 	ldrb	r3, [r1]
  10:	e0922403 	adds	r2, r2, r3, lsl #8
  14:	12800002 	addne	r0, r0, #2
  18:	12811002 	addne	r1, r1, #2
  1c:	1afffff9 	bne	8 <mr_wstrlen+0x8>
  20:	e12fff1e 	bx	lr

Disassembly of section i._DrawTextEx:

00000000 <_DrawTextEx>:
   0:	e92d000f 	push	{r0, r1, r2, r3}
   4:	e92d4ff0 	push	{r4, r5, r6, r7, r8, r9, sl, fp, lr}
   8:	e3500000 	cmp	r0, #0
   c:	e1a0b002 	mov	fp, r2
  10:	e3a02000 	mov	r2, #0
  14:	e24dd01c 	sub	sp, sp, #28
  18:	e1a09001 	mov	r9, r1
  1c:	01a01009 	moveq	r1, r9
  20:	028f0c02 	addeq	r0, pc, #512	; 0x200
  24:	e58d2010 	str	r2, [sp, #16]
  28:	0a00000a 	beq	58 <_DrawTextEx+0x58>
  2c:	e59d2058 	ldr	r2, [sp, #88]	; 0x58
  30:	e3120001 	tst	r2, #1
  34:	11a08000 	movne	r8, r0
  38:	1a00000b 	bne	6c <_DrawTextEx+0x6c>
  3c:	e28d2014 	add	r2, sp, #20
  40:	e3a01000 	mov	r1, #0
  44:	ebfffffe 	bl	0 <c2u>
  48:	e1b08000 	movs	r8, r0
  4c:	1a000006 	bne	6c <_DrawTextEx+0x6c>
  50:	e1a01009 	mov	r1, r9
  54:	e28f0f7b 	add	r0, pc, #492	; 0x1ec
  58:	ebfffffe 	bl	0 <mr_printf>
  5c:	e3a00000 	mov	r0, #0
  60:	e28dd01c 	add	sp, sp, #28
  64:	e8bd0ff0 	pop	{r4, r5, r6, r7, r8, r9, sl, fp}
  68:	e49df014 	ldr	pc, [sp], #20
  6c:	e1a06809 	lsl	r6, r9, #16
  70:	e1a06826 	lsr	r6, r6, #16
  74:	e58d6018 	str	r6, [sp, #24]
  78:	e5dd0054 	ldrb	r0, [sp, #84]	; 0x54
  7c:	e5dd1055 	ldrb	r1, [sp, #85]	; 0x55
  80:	e1a0a80b 	lsl	sl, fp, #16
  84:	e1a001a0 	lsr	r0, r0, #3
  88:	e1a00580 	lsl	r0, r0, #11
  8c:	e1a01121 	lsr	r1, r1, #2
  90:	e0800281 	add	r0, r0, r1, lsl #5
  94:	e5dd1056 	ldrb	r1, [sp, #86]	; 0x56
  98:	e1a0a82a 	lsr	sl, sl, #16
  9c:	e1a04008 	mov	r4, r8
  a0:	e08001a1 	add	r0, r0, r1, lsr #3
  a4:	e3c03803 	bic	r3, r0, #196608	; 0x30000
  a8:	e58d3004 	str	r3, [sp, #4]
  ac:	e5d80001 	ldrb	r0, [r8, #1]
  b0:	e5d81000 	ldrb	r1, [r8]
  b4:	e3a07000 	mov	r7, #0
  b8:	e0800401 	add	r0, r0, r1, lsl #8
  bc:	e3c05801 	bic	r5, r0, #65536	; 0x10000
  c0:	e1dd05b2 	ldrh	r0, [sp, #82]	; 0x52
  c4:	e080b00b 	add	fp, r0, fp
  c8:	e1dd05b0 	ldrh	r0, [sp, #80]	; 0x50
  cc:	e0809009 	add	r9, r0, r9
  d0:	ea000033 	b	1a4 <_DrawTextEx+0x1a4>
  d4:	e355000a 	cmp	r5, #10
  d8:	1355000d 	cmpne	r5, #13
  dc:	e59d105c 	ldr	r1, [sp, #92]	; 0x5c
  e0:	03a00020 	moveq	r0, #32
  e4:	11a00005 	movne	r0, r5
  e8:	e28d3008 	add	r3, sp, #8
  ec:	e28d200c 	add	r2, sp, #12
  f0:	ebfffffe 	bl	0 <mr_getCharBitmap>
  f4:	e3500000 	cmp	r0, #0
  f8:	0a000024 	beq	190 <_DrawTextEx+0x190>
  fc:	e59d2058 	ldr	r2, [sp, #88]	; 0x58
 100:	e59d000c 	ldr	r0, [sp, #12]
 104:	e59d1008 	ldr	r1, [sp, #8]
 108:	e3120002 	tst	r2, #2
 10c:	0a000027 	beq	1b0 <_DrawTextEx+0x1b0>
 110:	e0860000 	add	r0, r6, r0
 114:	e1500009 	cmp	r0, r9
 118:	ca000001 	bgt	124 <_DrawTextEx+0x124>
 11c:	e355000a 	cmp	r5, #10
 120:	1a00000a 	bne	150 <_DrawTextEx+0x150>
 124:	e08a0007 	add	r0, sl, r7
 128:	e150000b 	cmp	r0, fp
 12c:	e2800002 	add	r0, r0, #2
 130:	e1a0a800 	lsl	sl, r0, #16
 134:	b0442008 	sublt	r2, r4, r8
 138:	e1a0a82a 	lsr	sl, sl, #16
 13c:	b58d2010 	strlt	r2, [sp, #16]
 140:	e59d6018 	ldr	r6, [sp, #24]
 144:	e15b000a 	cmp	fp, sl
 148:	e3a07000 	mov	r7, #0
 14c:	ba000020 	blt	1d4 <_DrawTextEx+0x1d4>
 150:	e1570001 	cmp	r7, r1
 154:	c1a01007 	movgt	r1, r7
 158:	e355000a 	cmp	r5, #10
 15c:	e1a07001 	mov	r7, r1
 160:	0a00000a 	beq	190 <_DrawTextEx+0x190>
 164:	e355000d 	cmp	r5, #13
 168:	0a000008 	beq	190 <_DrawTextEx+0x190>
 16c:	e59d3004 	ldr	r3, [sp, #4]
 170:	e1a0200a 	mov	r2, sl
 174:	e1a01006 	mov	r1, r6
 178:	e1a00005 	mov	r0, r5
 17c:	ebfffffe 	bl	0 <mr_platDrawCharReal>
 180:	e59d000c 	ldr	r0, [sp, #12]
 184:	e0860000 	add	r0, r6, r0
 188:	e1a06800 	lsl	r6, r0, #16
 18c:	e1a06826 	lsr	r6, r6, #16
 190:	e2844002 	add	r4, r4, #2
 194:	e5d40001 	ldrb	r0, [r4, #1]
 198:	e5d41000 	ldrb	r1, [r4]
 19c:	e0800401 	add	r0, r0, r1, lsl #8
 1a0:	e3c05801 	bic	r5, r0, #65536	; 0x10000
 1a4:	e3550000 	cmp	r5, #0
 1a8:	1affffc9 	bne	d4 <_DrawTextEx+0xd4>
 1ac:	ea00000a 	b	1dc <_DrawTextEx+0x1dc>
 1b0:	e1590006 	cmp	r9, r6
 1b4:	ba000006 	blt	1d4 <_DrawTextEx+0x1d4>
 1b8:	e355000a 	cmp	r5, #10
 1bc:	0a000012 	beq	20c <_DrawTextEx+0x20c>
 1c0:	e0860000 	add	r0, r6, r0
 1c4:	e1500009 	cmp	r0, r9
 1c8:	c0440008 	subgt	r0, r4, r8
 1cc:	c58d0010 	strgt	r0, [sp, #16]
 1d0:	eaffffe3 	b	164 <_DrawTextEx+0x164>
 1d4:	e3550000 	cmp	r5, #0
 1d8:	1a00000b 	bne	20c <_DrawTextEx+0x20c>
 1dc:	e59d2058 	ldr	r2, [sp, #88]	; 0x58
 1e0:	e3120002 	tst	r2, #2
 1e4:	0a000003 	beq	1f8 <_DrawTextEx+0x1f8>
 1e8:	e08a0007 	add	r0, sl, r7
 1ec:	e150000b 	cmp	r0, fp
 1f0:	aa000005 	bge	20c <_DrawTextEx+0x20c>
 1f4:	ea000001 	b	200 <_DrawTextEx+0x200>
 1f8:	e1590006 	cmp	r9, r6
 1fc:	ba000002 	blt	20c <_DrawTextEx+0x20c>
 200:	e1a00008 	mov	r0, r8
 204:	ebfffffe 	bl	0 <_DrawTextEx>
 208:	e58d0010 	str	r0, [sp, #16]
 20c:	e59d2058 	ldr	r2, [sp, #88]	; 0x58
 210:	e3120001 	tst	r2, #1
 214:	059d1014 	ldreq	r1, [sp, #20]
 218:	01a00008 	moveq	r0, r8
 21c:	0bfffffe 	bleq	0 <_DrawTextEx>
 220:	e59d0010 	ldr	r0, [sp, #16]
 224:	eaffff8d 	b	60 <_DrawTextEx+0x60>
 228:	77617244 	.word	0x77617244
 22c:	74786554 	.word	0x74786554
 230:	78207845 	.word	0x78207845
 234:	3a64253d 	.word	0x3a64253d
 238:	74787420 	.word	0x74787420
 23c:	20736920 	.word	0x20736920
 240:	216c696e 	.word	0x216c696e
 244:	00000000 	.word	0x00000000
 248:	77617244 	.word	0x77617244
 24c:	74786554 	.word	0x74786554
 250:	78207845 	.word	0x78207845
 254:	3a64253d 	.word	0x3a64253d
 258:	20753263 	.word	0x20753263
 25c:	21727265 	.word	0x21727265
 260:	00000000 	.word	0x00000000

Disassembly of section i._BitmapCheck:

00000000 <_BitmapCheck>:
   0:	e92d4fff 	push	{r0, r1, r2, r3, r4, r5, r6, r7, r8, r9, sl, fp, lr}
   4:	e59fe0e4 	ldr	lr, [pc, #228]	; f0 <_BitmapCheck+0xf0>
   8:	e28db034 	add	fp, sp, #52	; 0x34
   c:	e59e3048 	ldr	r3, [lr, #72]	; 0x48
  10:	e89b0881 	ldm	fp, {r0, r7, fp}
  14:	e0820000 	add	r0, r2, r0
  18:	e1500003 	cmp	r0, r3
  1c:	e59fe0cc 	ldr	lr, [pc, #204]	; f0 <_BitmapCheck+0xf0>
  20:	c1a00003 	movgt	r0, r3
  24:	e59d500c 	ldr	r5, [sp, #12]
  28:	e1a03800 	lsl	r3, r0, #16
  2c:	e59e9044 	ldr	r9, [lr, #68]	; 0x44
  30:	e0810005 	add	r0, r1, r5
  34:	e1500009 	cmp	r0, r9
  38:	c1a00009 	movgt	r0, r9
  3c:	e3520000 	cmp	r2, #0
  40:	a1a0c002 	movge	ip, r2
  44:	b3a0c000 	movlt	ip, #0
  48:	e3510000 	cmp	r1, #0
  4c:	e1a0a800 	lsl	sl, r0, #16
  50:	e1a0c80c 	lsl	ip, ip, #16
  54:	e1a0c82c 	lsr	ip, ip, #16
  58:	e1a0a84a 	asr	sl, sl, #16
  5c:	e3a00000 	mov	r0, #0
  60:	a1a06001 	movge	r6, r1
  64:	b3a06000 	movlt	r6, #0
  68:	e1a03843 	asr	r3, r3, #16
  6c:	ea00001b 	b	e0 <_BitmapCheck+0xe0>
  70:	e59fe078 	ldr	lr, [pc, #120]	; f0 <_BitmapCheck+0xf0>
  74:	e0040c99 	mul	r4, r9, ip
  78:	e59ee040 	ldr	lr, [lr, #64]	; 0x40
  7c:	e59d500c 	ldr	r5, [sp, #12]
  80:	e08ee084 	add	lr, lr, r4, lsl #1
  84:	e04c4002 	sub	r4, ip, r2
  88:	e0040495 	mul	r4, r5, r4
  8c:	e59d5000 	ldr	r5, [sp]
  90:	e08ee086 	add	lr, lr, r6, lsl #1
  94:	e0854084 	add	r4, r5, r4, lsl #1
  98:	e0465001 	sub	r5, r6, r1
  9c:	e0844085 	add	r4, r4, r5, lsl #1
  a0:	e1a05806 	lsl	r5, r6, #16
  a4:	e1a05825 	lsr	r5, r5, #16
  a8:	ea000008 	b	d0 <_BitmapCheck+0xd0>
  ac:	e1d480b0 	ldrh	r8, [r4]
  b0:	e2855001 	add	r5, r5, #1
  b4:	e3c55801 	bic	r5, r5, #65536	; 0x10000
  b8:	e1580007 	cmp	r8, r7
  bc:	11de80b0 	ldrhne	r8, [lr]
  c0:	e28ee002 	add	lr, lr, #2
  c4:	e2844002 	add	r4, r4, #2
  c8:	1158000b 	cmpne	r8, fp
  cc:	12800001 	addne	r0, r0, #1
  d0:	e155000a 	cmp	r5, sl
  d4:	bafffff4 	blt	ac <_BitmapCheck+0xac>
  d8:	e28cc001 	add	ip, ip, #1
  dc:	e3ccc801 	bic	ip, ip, #65536	; 0x10000
  e0:	e15c0003 	cmp	ip, r3
  e4:	baffffe1 	blt	70 <_BitmapCheck+0x70>
  e8:	e28dd010 	add	sp, sp, #16
  ec:	e8bd8ff0 	pop	{r4, r5, r6, r7, r8, r9, sl, fp, pc}
  f0:	00000000 	.word	0x00000000

Disassembly of section i.MRF_BmGetScr:

00000000 <MRF_BmGetScr>:
   0:	e92d41f0 	push	{r4, r5, r6, r7, r8, lr}
   4:	e1a07000 	mov	r7, r0
   8:	e3a02000 	mov	r2, #0
   c:	e3a01001 	mov	r1, #1
  10:	ebfffffe 	bl	0 <to_mr_tonumber>
  14:	e1a05800 	lsl	r5, r0, #16
  18:	e1a05825 	lsr	r5, r5, #16
  1c:	e355001e 	cmp	r5, #30
  20:	21a02005 	movcs	r2, r5
  24:	228f10dc 	addcs	r1, pc, #220	; 0xdc
  28:	2a000013 	bcs	7c <MRF_BmGetScr+0x7c>
  2c:	e59f00f0 	ldr	r0, [pc, #240]	; 124 <MRF_BmGetScr+0x124>
  30:	e0804205 	add	r4, r0, r5, lsl #4
  34:	e594000c 	ldr	r0, [r4, #12]
  38:	e3500000 	cmp	r0, #0
  3c:	0a000003 	beq	50 <MRF_BmGetScr+0x50>
  40:	e5941004 	ldr	r1, [r4, #4]
  44:	ebfffffe 	bl	0 <MRF_BmGetScr>
  48:	e3a00000 	mov	r0, #0
  4c:	e584000c 	str	r0, [r4, #12]
  50:	e59f60d0 	ldr	r6, [pc, #208]	; 128 <MRF_BmGetScr+0x128>
  54:	e5960044 	ldr	r0, [r6, #68]	; 0x44
  58:	e5961048 	ldr	r1, [r6, #72]	; 0x48
  5c:	e0000091 	mul	r0, r1, r0
  60:	e1a00080 	lsl	r0, r0, #1
  64:	ebfffffe 	bl	0 <MRF_BmGetScr>
  68:	e3500000 	cmp	r0, #0
  6c:	e584000c 	str	r0, [r4, #12]
  70:	1a000006 	bne	90 <MRF_BmGetScr+0x90>
  74:	e1a02005 	mov	r2, r5
  78:	e28f10ac 	add	r1, pc, #172	; 0xac
  7c:	e1a00007 	mov	r0, r7
  80:	ebfffffe 	bl	0 <mrp_pushfstring>
  84:	e1a00007 	mov	r0, r7
  88:	ebfffffe 	bl	0 <mrp_error>
  8c:	ea00001b 	b	100 <MRF_BmGetScr+0x100>
  90:	e5961044 	ldr	r1, [r6, #68]	; 0x44
  94:	e3a03000 	mov	r3, #0
  98:	e1c410b0 	strh	r1, [r4]
  9c:	e5962048 	ldr	r2, [r6, #72]	; 0x48
  a0:	e0010192 	mul	r1, r2, r1
  a4:	e1c420b2 	strh	r2, [r4, #2]
  a8:	e1a01081 	lsl	r1, r1, #1
  ac:	e1a02000 	mov	r2, r0
  b0:	e5841004 	str	r1, [r4, #4]
  b4:	ea00000d 	b	f0 <MRF_BmGetScr+0xf0>
  b8:	e59e0044 	ldr	r0, [lr, #68]	; 0x44
  bc:	e59e1040 	ldr	r1, [lr, #64]	; 0x40
  c0:	e0000093 	mul	r0, r3, r0
  c4:	e0810080 	add	r0, r1, r0, lsl #1
  c8:	e3a01000 	mov	r1, #0
  cc:	e59ec044 	ldr	ip, [lr, #68]	; 0x44
  d0:	e151000c 	cmp	r1, ip
  d4:	b0d0c0b2 	ldrhlt	ip, [r0], #2
  d8:	b2811001 	addlt	r1, r1, #1
  dc:	b3c11801 	biclt	r1, r1, #65536	; 0x10000
  e0:	b0c2c0b2 	strhlt	ip, [r2], #2
  e4:	bafffff8 	blt	cc <MRF_BmGetScr+0xcc>
  e8:	e2830001 	add	r0, r3, #1
  ec:	e3c03801 	bic	r3, r0, #65536	; 0x10000
  f0:	e5960048 	ldr	r0, [r6, #72]	; 0x48
  f4:	e1a0e006 	mov	lr, r6
  f8:	e1530000 	cmp	r3, r0
  fc:	baffffed 	blt	b8 <MRF_BmGetScr+0xb8>
 100:	e3a00000 	mov	r0, #0
 104:	e8bd81f0 	pop	{r4, r5, r6, r7, r8, pc}
 108:	65476d42 	.word	0x65476d42
 10c:	72635374 	.word	0x72635374
 110:	646e693a 	.word	0x646e693a
 114:	25207865 	.word	0x25207865
 118:	6e692064 	.word	0x6e692064
 11c:	696c6176 	.word	0x696c6176
 120:	00002164 	.word	0x00002164
 124:	000000d8 	.word	0x000000d8
 128:	00000000 	.word	0x00000000
 12c:	65476d42 	.word	0x65476d42
 130:	72635374 	.word	0x72635374
 134:	20642520 	.word	0x20642520
 138:	206f4e3a 	.word	0x206f4e3a
 13c:	6f6d656d 	.word	0x6f6d656d
 140:	00217972 	.word	0x00217972

Disassembly of section i._mr_EffSetCon:

00000000 <_mr_EffSetCon>:
   0:	e92d4ff0 	push	{r4, r5, r6, r7, r8, r9, sl, fp, lr}
   4:	e081c003 	add	ip, r1, r3
   8:	e59f30d4 	ldr	r3, [pc, #212]	; e4 <_mr_EffSetCon+0xe4>
   c:	e0802002 	add	r2, r0, r2
  10:	e593e048 	ldr	lr, [r3, #72]	; 0x48
  14:	e59f30c8 	ldr	r3, [pc, #200]	; e4 <_mr_EffSetCon+0xe4>
  18:	e15c000e 	cmp	ip, lr
  1c:	e5933044 	ldr	r3, [r3, #68]	; 0x44
  20:	c1a0c00e 	movgt	ip, lr
  24:	e1520003 	cmp	r2, r3
  28:	c1a02003 	movgt	r2, r3
  2c:	e3510000 	cmp	r1, #0
  30:	b3a01000 	movlt	r1, #0
  34:	e28db024 	add	fp, sp, #36	; 0x24
  38:	e3500000 	cmp	r0, #0
  3c:	b3a00000 	movlt	r0, #0
  40:	e1a03801 	lsl	r3, r1, #16
  44:	e89b0e00 	ldm	fp, {r9, sl, fp}
  48:	e1a03823 	lsr	r3, r3, #16
  4c:	e1a04000 	mov	r4, r0
  50:	e1a05002 	mov	r5, r2
  54:	e1a0800c 	mov	r8, ip
  58:	ea00001d 	b	d4 <_mr_EffSetCon+0xd4>
  5c:	e59f1080 	ldr	r1, [pc, #128]	; e4 <_mr_EffSetCon+0xe4>
  60:	e1a02804 	lsl	r2, r4, #16
  64:	e5910044 	ldr	r0, [r1, #68]	; 0x44
  68:	e5911040 	ldr	r1, [r1, #64]	; 0x40
  6c:	e0000093 	mul	r0, r3, r0
  70:	e1a02822 	lsr	r2, r2, #16
  74:	e0810080 	add	r0, r1, r0, lsl #1
  78:	e0800084 	add	r0, r0, r4, lsl #1
  7c:	e3a06e7e 	mov	r6, #2016	; 0x7e0
  80:	e3a07b3e 	mov	r7, #63488	; 0xf800
  84:	ea00000e 	b	c4 <_mr_EffSetCon+0xc4>
  88:	e1d010b0 	ldrh	r1, [r0]
  8c:	e201cb3e 	and	ip, r1, #63488	; 0xf800
  90:	e201ee7e 	and	lr, r1, #2016	; 0x7e0
  94:	e201101f 	and	r1, r1, #31
  98:	e00e0e9a 	mul	lr, sl, lr
  9c:	e00c0c99 	mul	ip, r9, ip
  a0:	e001019b 	mul	r1, fp, r1
  a4:	e006e42e 	and	lr, r6, lr, lsr #8
  a8:	e007c42c 	and	ip, r7, ip, lsr #8
  ac:	e18ec00c 	orr	ip, lr, ip
  b0:	e1a01981 	lsl	r1, r1, #19
  b4:	e18c1da1 	orr	r1, ip, r1, lsr #27
  b8:	e0c010b2 	strh	r1, [r0], #2
  bc:	e2821001 	add	r1, r2, #1
  c0:	e3c12801 	bic	r2, r1, #65536	; 0x10000
  c4:	e1520005 	cmp	r2, r5
  c8:	baffffee 	blt	88 <_mr_EffSetCon+0x88>
  cc:	e2830001 	add	r0, r3, #1
  d0:	e3c03801 	bic	r3, r0, #65536	; 0x10000
  d4:	e1530008 	cmp	r3, r8
  d8:	baffffdf 	blt	5c <_mr_EffSetCon+0x5c>
  dc:	e3a00000 	mov	r0, #0
  e0:	e8bd8ff0 	pop	{r4, r5, r6, r7, r8, r9, sl, fp, pc}
  e4:	00000000 	.word	0x00000000

Disassembly of section i.MRF_SpriteCheck:

00000000 <MRF_SpriteCheck>:
   0:	e92d43fe 	push	{r1, r2, r3, r4, r5, r6, r7, r8, r9, lr}
   4:	e1a08000 	mov	r8, r0
   8:	e3a02000 	mov	r2, #0
   c:	e3a01001 	mov	r1, #1
  10:	ebfffffe 	bl	0 <to_mr_tonumber>
  14:	e1a04800 	lsl	r4, r0, #16
  18:	e1a04824 	lsr	r4, r4, #16
  1c:	e1a00008 	mov	r0, r8
  20:	e3a02000 	mov	r2, #0
  24:	e3a01002 	mov	r1, #2
  28:	ebfffffe 	bl	0 <to_mr_tonumber>
  2c:	e1a05800 	lsl	r5, r0, #16
  30:	e1a05825 	lsr	r5, r5, #16
  34:	e1a00008 	mov	r0, r8
  38:	e3a02000 	mov	r2, #0
  3c:	e3a01003 	mov	r1, #3
  40:	ebfffffe 	bl	0 <to_mr_tonumber>
  44:	e1a06800 	lsl	r6, r0, #16
  48:	e1a06846 	asr	r6, r6, #16
  4c:	e1a00008 	mov	r0, r8
  50:	e3a02000 	mov	r2, #0
  54:	e3a01004 	mov	r1, #4
  58:	ebfffffe 	bl	0 <to_mr_tonumber>
  5c:	e1a07800 	lsl	r7, r0, #16
  60:	e1a07847 	asr	r7, r7, #16
  64:	e1a00008 	mov	r0, r8
  68:	e3a02000 	mov	r2, #0
  6c:	e3a01005 	mov	r1, #5
  70:	ebfffffe 	bl	0 <to_mr_tonumber>
  74:	e354000a 	cmp	r4, #10
  78:	21a02004 	movcs	r2, r4
  7c:	228f109c 	addcs	r1, pc, #156	; 0x9c
  80:	2a000006 	bcs	a0 <MRF_SpriteCheck+0xa0>
  84:	e59f10b4 	ldr	r1, [pc, #180]	; 140 <MRF_SpriteCheck+0x140>
  88:	e081e204 	add	lr, r1, r4, lsl #4
  8c:	e59ec00c 	ldr	ip, [lr, #12]
  90:	e35c0000 	cmp	ip, #0
  94:	1a000007 	bne	b8 <MRF_SpriteCheck+0xb8>
  98:	e1a02004 	mov	r2, r4
  9c:	e28f10a0 	add	r1, pc, #160	; 0xa0
  a0:	e1a00008 	mov	r0, r8
  a4:	ebfffffe 	bl	0 <mrp_pushfstring>
  a8:	e1a00008 	mov	r0, r8
  ac:	ebfffffe 	bl	0 <mrp_error>
  b0:	e3a00000 	mov	r0, #0
  b4:	e8bd83fe 	pop	{r1, r2, r3, r4, r5, r6, r7, r8, r9, pc}
  b8:	e20018ff 	and	r1, r0, #16711680	; 0xff0000
  bc:	e2002cff 	and	r2, r0, #65280	; 0xff00
  c0:	e1a019a1 	lsr	r1, r1, #19
  c4:	e1a01581 	lsl	r1, r1, #11
  c8:	e1a02522 	lsr	r2, r2, #10
  cc:	e0811282 	add	r1, r1, r2, lsl #5
  d0:	e20000ff 	and	r0, r0, #255	; 0xff
  d4:	e08101a0 	add	r0, r1, r0, lsr #3
  d8:	e3c03803 	bic	r3, r0, #196608	; 0x30000
  dc:	e59f0080 	ldr	r0, [pc, #128]	; 164 <MRF_SpriteCheck+0x164>
  e0:	e1dc20b0 	ldrh	r2, [ip]
  e4:	e0800084 	add	r0, r0, r4, lsl #1
  e8:	e1d000b0 	ldrh	r0, [r0]
  ec:	e88d000d 	stm	sp, {r0, r2, r3}
  f0:	e1de30b0 	ldrh	r3, [lr]
  f4:	e1a02007 	mov	r2, r7
  f8:	e0010395 	mul	r1, r5, r3
  fc:	e0000091 	mul	r0, r1, r0
 100:	e1a01006 	mov	r1, r6
 104:	e08c0080 	add	r0, ip, r0, lsl #1
 108:	ebfffffe 	bl	0 <MRF_SpriteCheck>
 10c:	e1a01000 	mov	r1, r0
 110:	e1a00008 	mov	r0, r8
 114:	ebfffffe 	bl	0 <to_mr_pushnumber>
 118:	e3a00001 	mov	r0, #1
 11c:	e8bd83fe 	pop	{r1, r2, r3, r4, r5, r6, r7, r8, r9, pc}
 120:	69727053 	.word	0x69727053
 124:	68436574 	.word	0x68436574
 128:	3a6b6365 	.word	0x3a6b6365
 12c:	65646e69 	.word	0x65646e69
 130:	64252078 	.word	0x64252078
 134:	766e6920 	.word	0x766e6920
 138:	64696c61 	.word	0x64696c61
 13c:	00000021 	.word	0x00000021
 140:	000000d8 	.word	0x000000d8
 144:	69727053 	.word	0x69727053
 148:	68436574 	.word	0x68436574
 14c:	3a6b6365 	.word	0x3a6b6365
 150:	69727053 	.word	0x69727053
 154:	25206574 	.word	0x25206574
 158:	73692064 	.word	0x73692064
 15c:	6c696e20 	.word	0x6c696e20
 160:	00000021 	.word	0x00000021
 164:	0000034c 	.word	0x0000034c

Disassembly of section i._mr_showErrorInfo:

00000000 <_mr_showErrorInfo>:
   0:	e92d40f0 	push	{r4, r5, r6, r7, lr}
   4:	e24dd024 	sub	sp, sp, #36	; 0x24
   8:	e1a06000 	mov	r6, r0
   c:	ebfffffe 	bl	0 <strlen>
  10:	e1a05000 	mov	r5, r0
  14:	e1a00006 	mov	r0, r6
  18:	ebfffffe 	bl	0 <mr_printf>
  1c:	e3a020ff 	mov	r2, #255	; 0xff
  20:	e3a030ff 	mov	r3, #255	; 0xff
  24:	e58d2000 	str	r2, [sp]
  28:	e59f70e0 	ldr	r7, [pc, #224]	; 110 <_mr_showErrorInfo+0x110>
  2c:	e98d000c 	stmib	sp, {r2, r3}
  30:	e5970048 	ldr	r0, [r7, #72]	; 0x48
  34:	e3550060 	cmp	r5, #96	; 0x60
  38:	e1a03800 	lsl	r3, r0, #16
  3c:	e5970044 	ldr	r0, [r7, #68]	; 0x44
  40:	e1a03843 	asr	r3, r3, #16
  44:	e1a02800 	lsl	r2, r0, #16
  48:	e1a02842 	asr	r2, r2, #16
  4c:	e3a00000 	mov	r0, #0
  50:	a3a05060 	movge	r5, #96	; 0x60
  54:	e3a01000 	mov	r1, #0
  58:	ebfffffe 	bl	0 <_mr_showErrorInfo>
  5c:	e3a04000 	mov	r4, #0
  60:	ea00001b 	b	d4 <_mr_showErrorInfo+0xd4>
  64:	e28d0014 	add	r0, sp, #20
  68:	e3a01000 	mov	r1, #0
  6c:	e3a02000 	mov	r2, #0
  70:	e8a00006 	stmia	r0!, {r1, r2}
  74:	e8800006 	stm	r0, {r1, r2}
  78:	e0452004 	sub	r2, r5, r4
  7c:	e352000c 	cmp	r2, #12
  80:	c3a0200c 	movgt	r2, #12
  84:	e0861004 	add	r1, r6, r4
  88:	e28d0014 	add	r0, sp, #20
  8c:	ebfffffe 	bl	0 <__aeabi_memcpy>
  90:	e3a0100c 	mov	r1, #12
  94:	e1a00004 	mov	r0, r4
  98:	ebfffffe 	bl	0 <__aeabi_idivmod>
  9c:	e3a01012 	mov	r1, #18
  a0:	e0000091 	mul	r0, r1, r0
  a4:	e3a01000 	mov	r1, #0
  a8:	e3a03001 	mov	r3, #1
  ac:	e3a02000 	mov	r2, #0
  b0:	e58d1000 	str	r1, [sp]
  b4:	e98d000e 	stmib	sp, {r1, r2, r3}
  b8:	e1a0c800 	lsl	ip, r0, #16
  bc:	e1a0c84c 	asr	ip, ip, #16
  c0:	e1a0200c 	mov	r2, ip
  c4:	e28d0014 	add	r0, sp, #20
  c8:	e3a03000 	mov	r3, #0
  cc:	ebfffffe 	bl	0 <_mr_showErrorInfo>
  d0:	e284400c 	add	r4, r4, #12
  d4:	e1540005 	cmp	r4, r5
  d8:	baffffe1 	blt	64 <_mr_showErrorInfo+0x64>
  dc:	e5970048 	ldr	r0, [r7, #72]	; 0x48
  e0:	e3a02000 	mov	r2, #0
  e4:	e1a03800 	lsl	r3, r0, #16
  e8:	e1a03823 	lsr	r3, r3, #16
  ec:	e58d3000 	str	r3, [sp]
  f0:	e5970044 	ldr	r0, [r7, #68]	; 0x44
  f4:	e3a01000 	mov	r1, #0
  f8:	e1a03800 	lsl	r3, r0, #16
  fc:	e5970040 	ldr	r0, [r7, #64]	; 0x40
 100:	e1a03823 	lsr	r3, r3, #16
 104:	ebfffffe 	bl	0 <mr_drawBitmap>
 108:	e28dd024 	add	sp, sp, #36	; 0x24
 10c:	e8bd80f0 	pop	{r4, r5, r6, r7, pc}
 110:	00000000 	.word	0x00000000

Disassembly of section i._mr_isMr:

00000000 <_mr_isMr>:
   0:	e92d40f0 	push	{r4, r5, r6, r7, lr}
   4:	e24dd054 	sub	sp, sp, #84	; 0x54
   8:	e1a05000 	mov	r5, r0
   c:	e28d0014 	add	r0, sp, #20
  10:	e3e06000 	mvn	r6, #0
  14:	ebfffffe 	bl	0 <mr_getUserInfo>
  18:	e3500000 	cmp	r0, #0
  1c:	1a00006a 	bne	1cc <_mr_isMr+0x1cc>
  20:	e5950010 	ldr	r0, [r5, #16]
  24:	e1a01c20 	lsr	r1, r0, #24
  28:	e20028ff 	and	r2, r0, #16711680	; 0xff0000
  2c:	e1811422 	orr	r1, r1, r2, lsr #8
  30:	e2002cff 	and	r2, r0, #65280	; 0xff00
  34:	e1811402 	orr	r1, r1, r2, lsl #8
  38:	e1810c00 	orr	r0, r1, r0, lsl #24
  3c:	e5951014 	ldr	r1, [r5, #20]
  40:	e1a02c21 	lsr	r2, r1, #24
  44:	e20138ff 	and	r3, r1, #16711680	; 0xff0000
  48:	e1822423 	orr	r2, r2, r3, lsr #8
  4c:	e2013cff 	and	r3, r1, #65280	; 0xff00
  50:	e1822403 	orr	r2, r2, r3, lsl #8
  54:	e1824c01 	orr	r4, r2, r1, lsl #24
  58:	e5dd1015 	ldrb	r1, [sp, #21]
  5c:	e5cd1004 	strb	r1, [sp, #4]
  60:	e5dd1016 	ldrb	r1, [sp, #22]
  64:	e5cd1005 	strb	r1, [sp, #5]
  68:	e5dd1017 	ldrb	r1, [sp, #23]
  6c:	e5cd1006 	strb	r1, [sp, #6]
  70:	e5dd1018 	ldrb	r1, [sp, #24]
  74:	e5cd1007 	strb	r1, [sp, #7]
  78:	e5dd1019 	ldrb	r1, [sp, #25]
  7c:	e5cd1008 	strb	r1, [sp, #8]
  80:	e5dd101b 	ldrb	r1, [sp, #27]
  84:	e5cd1009 	strb	r1, [sp, #9]
  88:	e5dd101c 	ldrb	r1, [sp, #28]
  8c:	e5cd100a 	strb	r1, [sp, #10]
  90:	e3a010ef 	mov	r1, #239	; 0xef
  94:	ebfffffe 	bl	0 <__aeabi_idivmod>
  98:	e5cd100b 	strb	r1, [sp, #11]
  9c:	e3a010ed 	mov	r1, #237	; 0xed
  a0:	e1a00004 	mov	r0, r4
  a4:	ebfffffe 	bl	0 <__aeabi_idivmod>
  a8:	e5cd100c 	strb	r1, [sp, #12]
  ac:	e5dd0034 	ldrb	r0, [sp, #52]	; 0x34
  b0:	e5cd000d 	strb	r0, [sp, #13]
  b4:	e5dd003c 	ldrb	r0, [sp, #60]	; 0x3c
  b8:	e5cd000e 	strb	r0, [sp, #14]
  bc:	e28d0034 	add	r0, sp, #52	; 0x34
  c0:	ebfffffe 	bl	0 <strlen>
  c4:	e5cd000f 	strb	r0, [sp, #15]
  c8:	e3a000d3 	mov	r0, #211	; 0xd3
  cc:	e5cd0010 	strb	r0, [sp, #16]
  d0:	e3a000ef 	mov	r0, #239	; 0xef
  d4:	e5cd0011 	strb	r0, [sp, #17]
  d8:	e59d0044 	ldr	r0, [sp, #68]	; 0x44
  dc:	e3a010fd 	mov	r1, #253	; 0xfd
  e0:	ebfffffe 	bl	0 <__aeabi_uidivmod>
  e4:	e5cd1012 	strb	r1, [sp, #18]
  e8:	e59d0044 	ldr	r0, [sp, #68]	; 0x44
  ec:	e3a010f1 	mov	r1, #241	; 0xf1
  f0:	ebfffffe 	bl	0 <__aeabi_uidivmod>
  f4:	e5cd1013 	strb	r1, [sp, #19]
  f8:	e5dd0014 	ldrb	r0, [sp, #20]
  fc:	e3a0100a 	mov	r1, #10
 100:	ebfffffe 	bl	0 <__aeabi_uidivmod>
 104:	e3a07015 	mov	r7, #21
 108:	e0000197 	mul	r0, r7, r1
 10c:	e5dd101a 	ldrb	r1, [sp, #26]
 110:	e0800001 	add	r0, r0, r1
 114:	e20040ff 	and	r4, r0, #255	; 0xff
 118:	e5dd001f 	ldrb	r0, [sp, #31]
 11c:	e5dd1020 	ldrb	r1, [sp, #32]
 120:	e0800001 	add	r0, r0, r1
 124:	e3a0100a 	mov	r1, #10
 128:	ebfffffe 	bl	0 <__aeabi_uidivmod>
 12c:	e0000197 	mul	r0, r7, r1
 130:	e5dd1022 	ldrb	r1, [sp, #34]	; 0x22
 134:	e28d3004 	add	r3, sp, #4
 138:	e0800001 	add	r0, r0, r1
 13c:	e200c0ff 	and	ip, r0, #255	; 0xff
 140:	e3a00000 	mov	r0, #0
 144:	e3500000 	cmp	r0, #0
 148:	05dd1004 	ldrbeq	r1, [sp, #4]
 14c:	00211004 	eoreq	r1, r1, r4
 150:	05cd1004 	strbeq	r1, [sp, #4]
 154:	0a000005 	beq	170 <_mr_isMr+0x170>
 158:	e0832000 	add	r2, r3, r0
 15c:	e5522001 	ldrb	r2, [r2, #-1]
 160:	e7d31000 	ldrb	r1, [r3, r0]
 164:	e1510002 	cmp	r1, r2
 168:	10211002 	eorne	r1, r1, r2
 16c:	17c31000 	strbne	r1, [r3, r0]
 170:	e2800001 	add	r0, r0, #1
 174:	e3500010 	cmp	r0, #16
 178:	bafffff1 	blt	144 <_mr_isMr+0x144>
 17c:	e3a0000f 	mov	r0, #15
 180:	e350000f 	cmp	r0, #15
 184:	05dd1013 	ldrbeq	r1, [sp, #19]
 188:	0021100c 	eoreq	r1, r1, ip
 18c:	05cd1013 	strbeq	r1, [sp, #19]
 190:	0a000005 	beq	1ac <_mr_isMr+0x1ac>
 194:	e0832000 	add	r2, r3, r0
 198:	e5d22001 	ldrb	r2, [r2, #1]
 19c:	e7d31000 	ldrb	r1, [r3, r0]
 1a0:	e1510002 	cmp	r1, r2
 1a4:	10211002 	eorne	r1, r1, r2
 1a8:	17c31000 	strbne	r1, [r3, r0]
 1ac:	e2500001 	subs	r0, r0, #1
 1b0:	5afffff2 	bpl	180 <_mr_isMr+0x180>
 1b4:	e3a02010 	mov	r2, #16
 1b8:	e1a01005 	mov	r1, r5
 1bc:	e28d0004 	add	r0, sp, #4
 1c0:	ebfffffe 	bl	0 <memcmp>
 1c4:	e3500000 	cmp	r0, #0
 1c8:	03a06000 	moveq	r6, #0
 1cc:	e1a00006 	mov	r0, r6
 1d0:	e28dd054 	add	sp, sp, #84	; 0x54
 1d4:	e8bd80f0 	pop	{r4, r5, r6, r7, pc}

Disassembly of section i._mr_readFile:

00000000 <_mr_readFile>:
   0:	e92d4ff7 	push	{r0, r1, r2, r4, r5, r6, r7, r8, r9, sl, fp, lr}
   4:	e59f039c 	ldr	r0, [pc, #924]	; 3a8 <_mr_readFile+0x3a8>
   8:	e24dd0a0 	sub	sp, sp, #160	; 0xa0
   c:	e5d06000 	ldrb	r6, [r0]
  10:	e1a0a002 	mov	sl, r2
  14:	e3a09000 	mov	r9, #0
  18:	e356002a 	cmp	r6, #42	; 0x2a
  1c:	13560024 	cmpne	r6, #36	; 0x24
  20:	e3a07000 	mov	r7, #0
  24:	e1a04001 	mov	r4, r1
  28:	1a000072 	bne	1f8 <_mr_readFile+0x1f8>
  2c:	e356002a 	cmp	r6, #42	; 0x2a
  30:	159f1374 	ldrne	r1, [pc, #884]	; 3ac <_mr_readFile+0x3ac>
  34:	05d00001 	ldrbeq	r0, [r0, #1]
  38:	15915018 	ldrne	r5, [r1, #24]
  3c:	059f136c 	ldreq	r1, [pc, #876]	; 3b0 <_mr_readFile+0x3b0>
  40:	00810100 	addeq	r0, r1, r0, lsl #2
  44:	05105104 	ldreq	r5, [r0, #-260]	; 0xfffffefc
  48:	e3550000 	cmp	r5, #0
  4c:	059f2360 	ldreq	r2, [pc, #864]	; 3b4 <_mr_readFile+0x3b4>
  50:	0a0001ca 	beq	780 <_mr_readFile+0x780>
  54:	e2851004 	add	r1, r5, #4
  58:	e3a02004 	mov	r2, #4
  5c:	e28d009c 	add	r0, sp, #156	; 0x9c
  60:	ebfffffe 	bl	0 <__aeabi_memcpy>
  64:	e3560024 	cmp	r6, #36	; 0x24
  68:	1a00000e 	bne	a8 <_mr_readFile+0xa8>
  6c:	e59f1338 	ldr	r1, [pc, #824]	; 3ac <_mr_readFile+0x3ac>
  70:	e5910054 	ldr	r0, [r1, #84]	; 0x54
  74:	e58d0014 	str	r0, [sp, #20]
  78:	e5910008 	ldr	r0, [r1, #8]
  7c:	e3100002 	tst	r0, #2
  80:	0a00000c 	beq	b8 <_mr_readFile+0xb8>
  84:	e2850034 	add	r0, r5, #52	; 0x34
  88:	ebfffffe 	bl	0 <_mr_readFile>
  8c:	e3500000 	cmp	r0, #0
  90:	0a000008 	beq	b8 <_mr_readFile+0xb8>
  94:	e28f1fc7 	add	r1, pc, #796	; 0x31c
  98:	e3a02003 	mov	r2, #3
  9c:	e59f0324 	ldr	r0, [pc, #804]	; 3c8 <_mr_readFile+0x3c8>
  a0:	ebfffffe 	bl	0 <mr_printf>
  a4:	ea0001bc 	b	79c <_mr_readFile+0x79c>
  a8:	e2851008 	add	r1, r5, #8
  ac:	e3a02004 	mov	r2, #4
  b0:	e28d0014 	add	r0, sp, #20
  b4:	ebfffffe 	bl	0 <__aeabi_memcpy>
  b8:	e59d009c 	ldr	r0, [sp, #156]	; 0x9c
  bc:	e2806008 	add	r6, r0, #8
  c0:	e59d9014 	ldr	r9, [sp, #20]
  c4:	e2860004 	add	r0, r6, #4
  c8:	e1500009 	cmp	r0, r9
  cc:	2a000004 	bcs	e4 <_mr_readFile+0xe4>
  d0:	e59d009c 	ldr	r0, [sp, #156]	; 0x9c
  d4:	e3500001 	cmp	r0, #1
  d8:	3a000001 	bcc	e4 <_mr_readFile+0xe4>
  dc:	e3700106 	cmn	r0, #-2147483647	; 0x80000001
  e0:	3a000001 	bcc	ec <_mr_readFile+0xec>
  e4:	e3a02ffb 	mov	r2, #1004	; 0x3ec
  e8:	ea0001a4 	b	780 <_mr_readFile+0x780>
  ec:	e0851006 	add	r1, r5, r6
  f0:	e3a02004 	mov	r2, #4
  f4:	e28d009c 	add	r0, sp, #156	; 0x9c
  f8:	ebfffffe 	bl	0 <__aeabi_memcpy>
  fc:	e2868004 	add	r8, r6, #4
 100:	e59d609c 	ldr	r6, [sp, #156]	; 0x9c
 104:	e0860008 	add	r0, r6, r8
 108:	e1500009 	cmp	r0, r9
 10c:	2a000003 	bcs	120 <_mr_readFile+0x120>
 110:	e3560001 	cmp	r6, #1
 114:	3a000001 	bcc	120 <_mr_readFile+0x120>
 118:	e3560080 	cmp	r6, #128	; 0x80
 11c:	3a000001 	bcc	128 <_mr_readFile+0x128>
 120:	e59f22a4 	ldr	r2, [pc, #676]	; 3cc <_mr_readFile+0x3cc>
 124:	ea000195 	b	780 <_mr_readFile+0x780>
 128:	e3a01080 	mov	r1, #128	; 0x80
 12c:	e28d0018 	add	r0, sp, #24
 130:	ebfffffe 	bl	0 <__aeabi_memclr4>
 134:	e0851008 	add	r1, r5, r8
 138:	e1a02006 	mov	r2, r6
 13c:	e28d0018 	add	r0, sp, #24
 140:	ebfffffe 	bl	0 <__aeabi_memcpy>
 144:	e59d009c 	ldr	r0, [sp, #156]	; 0x9c
 148:	e28d1018 	add	r1, sp, #24
 14c:	e0886000 	add	r6, r8, r0
 150:	e59d00a0 	ldr	r0, [sp, #160]	; 0xa0
 154:	ebfffffe 	bl	0 <strcmp>
 158:	e3500000 	cmp	r0, #0
 15c:	1a000011 	bne	1a8 <_mr_readFile+0x1a8>
 160:	e35a0001 	cmp	sl, #1
 164:	0a00013f 	beq	668 <_mr_readFile+0x668>
 168:	e0851006 	add	r1, r5, r6
 16c:	e3a02004 	mov	r2, #4
 170:	e28d009c 	add	r0, sp, #156	; 0x9c
 174:	ebfffffe 	bl	0 <__aeabi_memcpy>
 178:	e59d009c 	ldr	r0, [sp, #156]	; 0x9c
 17c:	e59d2014 	ldr	r2, [sp, #20]
 180:	e2866004 	add	r6, r6, #4
 184:	e0801006 	add	r1, r0, r6
 188:	e1510002 	cmp	r1, r2
 18c:	8a000003 	bhi	1a0 <_mr_readFile+0x1a0>
 190:	e3500001 	cmp	r0, #1
 194:	3a000001 	bcc	1a0 <_mr_readFile+0x1a0>
 198:	e3700106 	cmn	r0, #-2147483647	; 0x80000001
 19c:	3a00000a 	bcc	1cc <_mr_readFile+0x1cc>
 1a0:	e59f2228 	ldr	r2, [pc, #552]	; 3d0 <_mr_readFile+0x3d0>
 1a4:	ea000175 	b	780 <_mr_readFile+0x780>
 1a8:	e0851006 	add	r1, r5, r6
 1ac:	e3a02004 	mov	r2, #4
 1b0:	e28d009c 	add	r0, sp, #156	; 0x9c
 1b4:	ebfffffe 	bl	0 <__aeabi_memcpy>
 1b8:	e59d009c 	ldr	r0, [sp, #156]	; 0x9c
 1bc:	e3570000 	cmp	r7, #0
 1c0:	e0860000 	add	r0, r6, r0
 1c4:	e2806004 	add	r6, r0, #4
 1c8:	0affffbc 	beq	c0 <_mr_readFile+0xc0>
 1cc:	e59d009c 	ldr	r0, [sp, #156]	; 0x9c
 1d0:	e3500000 	cmp	r0, #0
 1d4:	d59f21f8 	ldrle	r2, [pc, #504]	; 3d4 <_mr_readFile+0x3d4>
 1d8:	e5840000 	str	r0, [r4]
 1dc:	da000167 	ble	780 <_mr_readFile+0x780>
 1e0:	e35a0002 	cmp	sl, #2
 1e4:	00850006 	addeq	r0, r5, r6
 1e8:	0a00011f 	beq	66c <_mr_readFile+0x66c>
 1ec:	e0856006 	add	r6, r5, r6
 1f0:	e3a09001 	mov	r9, #1
 1f4:	ea0000cb 	b	528 <_mr_readFile+0x528>
 1f8:	e59f01a8 	ldr	r0, [pc, #424]	; 3a8 <_mr_readFile+0x3a8>
 1fc:	e3a01001 	mov	r1, #1
 200:	ebfffffe 	bl	0 <mr_open>
 204:	e3500000 	cmp	r0, #0
 208:	059f21c8 	ldreq	r2, [pc, #456]	; 3d8 <_mr_readFile+0x3d8>
 20c:	e58d0098 	str	r0, [sp, #152]	; 0x98
 210:	0a00015a 	beq	780 <_mr_readFile+0x780>
 214:	e28d0008 	add	r0, sp, #8
 218:	e3a01000 	mov	r1, #0
 21c:	e3a02000 	mov	r2, #0
 220:	e8a00006 	stmia	r0!, {r1, r2}
 224:	e8800006 	stm	r0, {r1, r2}
 228:	e59d0098 	ldr	r0, [sp, #152]	; 0x98
 22c:	e3a02010 	mov	r2, #16
 230:	e28d1008 	add	r1, sp, #8
 234:	ebfffffe 	bl	0 <mr_read>
 238:	e3500010 	cmp	r0, #16
 23c:	059d0008 	ldreq	r0, [sp, #8]
 240:	059f1194 	ldreq	r1, [pc, #404]	; 3dc <_mr_readFile+0x3dc>
 244:	01500001 	cmpeq	r0, r1
 248:	0a000003 	beq	25c <_mr_readFile+0x25c>
 24c:	e59d0098 	ldr	r0, [sp, #152]	; 0x98
 250:	ebfffffe 	bl	0 <mr_close>
 254:	e59f2184 	ldr	r2, [pc, #388]	; 3e0 <_mr_readFile+0x3e0>
 258:	ea000148 	b	780 <_mr_readFile+0x780>
 25c:	e59d000c 	ldr	r0, [sp, #12]
 260:	e35000e8 	cmp	r0, #232	; 0xe8
 264:	9a0000cf 	bls	5a8 <_mr_readFile+0x5a8>
 268:	e59d1014 	ldr	r1, [sp, #20]
 26c:	e0400001 	sub	r0, r0, r1
 270:	e2808008 	add	r8, r0, #8
 274:	e1a00008 	mov	r0, r8
 278:	ebfffffe 	bl	0 <_mr_readFile>
 27c:	e59fb160 	ldr	fp, [pc, #352]	; 3e4 <_mr_readFile+0x3e4>
 280:	e1b06000 	movs	r6, r0
 284:	e3a05000 	mov	r5, #0
 288:	1a000002 	bne	298 <_mr_readFile+0x298>
 28c:	e59d0098 	ldr	r0, [sp, #152]	; 0x98
 290:	ebfffffe 	bl	0 <mr_close>
 294:	ea000017 	b	2f8 <_mr_readFile+0x2f8>
 298:	e59d0014 	ldr	r0, [sp, #20]
 29c:	e3a02001 	mov	r2, #1
 2a0:	e2401010 	sub	r1, r0, #16
 2a4:	e59d0098 	ldr	r0, [sp, #152]	; 0x98
 2a8:	ebfffffe 	bl	0 <mr_seek>
 2ac:	e3500000 	cmp	r0, #0
 2b0:	aa000005 	bge	2cc <_mr_readFile+0x2cc>
 2b4:	e59d0098 	ldr	r0, [sp, #152]	; 0x98
 2b8:	ebfffffe 	bl	0 <mr_close>
 2bc:	e1a01008 	mov	r1, r8
 2c0:	e1a00006 	mov	r0, r6
 2c4:	ebfffffe 	bl	0 <_mr_readFile>
 2c8:	ea0000be 	b	5c8 <_mr_readFile+0x5c8>
 2cc:	e59d0098 	ldr	r0, [sp, #152]	; 0x98
 2d0:	e1a02008 	mov	r2, r8
 2d4:	e1a01006 	mov	r1, r6
 2d8:	ebfffffe 	bl	0 <mr_read>
 2dc:	e1500008 	cmp	r0, r8
 2e0:	0a000006 	beq	300 <_mr_readFile+0x300>
 2e4:	e59d0098 	ldr	r0, [sp, #152]	; 0x98
 2e8:	ebfffffe 	bl	0 <mr_close>
 2ec:	e1a01008 	mov	r1, r8
 2f0:	e1a00006 	mov	r0, r6
 2f4:	ebfffffe 	bl	0 <_mr_readFile>
 2f8:	e1a0200b 	mov	r2, fp
 2fc:	ea00011f 	b	780 <_mr_readFile+0x780>
 300:	e0861005 	add	r1, r6, r5
 304:	e3a02004 	mov	r2, #4
 308:	e28d009c 	add	r0, sp, #156	; 0x9c
 30c:	ebfffffe 	bl	0 <__aeabi_memcpy>
 310:	e285b004 	add	fp, r5, #4
 314:	e59d509c 	ldr	r5, [sp, #156]	; 0x9c
 318:	e085000b 	add	r0, r5, fp
 31c:	e1500008 	cmp	r0, r8
 320:	8a000003 	bhi	334 <_mr_readFile+0x334>
 324:	e3550001 	cmp	r5, #1
 328:	3a000001 	bcc	334 <_mr_readFile+0x334>
 32c:	e3550080 	cmp	r5, #128	; 0x80
 330:	3a000006 	bcc	350 <_mr_readFile+0x350>
 334:	e59d0098 	ldr	r0, [sp, #152]	; 0x98
 338:	ebfffffe 	bl	0 <mr_close>
 33c:	e1a01008 	mov	r1, r8
 340:	e1a00006 	mov	r0, r6
 344:	ebfffffe 	bl	0 <_mr_readFile>
 348:	e59f2098 	ldr	r2, [pc, #152]	; 3e8 <_mr_readFile+0x3e8>
 34c:	ea00010b 	b	780 <_mr_readFile+0x780>
 350:	e3a01080 	mov	r1, #128	; 0x80
 354:	e28d0018 	add	r0, sp, #24
 358:	ebfffffe 	bl	0 <__aeabi_memclr4>
 35c:	e086100b 	add	r1, r6, fp
 360:	e1a02005 	mov	r2, r5
 364:	e28d0018 	add	r0, sp, #24
 368:	ebfffffe 	bl	0 <__aeabi_memcpy>
 36c:	e59d009c 	ldr	r0, [sp, #156]	; 0x9c
 370:	e28d1018 	add	r1, sp, #24
 374:	e08b5000 	add	r5, fp, r0
 378:	e59d00a0 	ldr	r0, [sp, #160]	; 0xa0
 37c:	ebfffffe 	bl	0 <strcmp>
 380:	e3500000 	cmp	r0, #0
 384:	1a00002e 	bne	444 <_mr_readFile+0x444>
 388:	e35a0001 	cmp	sl, #1
 38c:	1a000016 	bne	3ec <_mr_readFile+0x3ec>
 390:	e59d0098 	ldr	r0, [sp, #152]	; 0x98
 394:	ebfffffe 	bl	0 <mr_close>
 398:	e1a01008 	mov	r1, r8
 39c:	e1a00006 	mov	r0, r6
 3a0:	ebfffffe 	bl	0 <_mr_readFile>
 3a4:	ea0000af 	b	668 <_mr_readFile+0x668>
 3a8:	00000360 	.word	0x00000360
	...
 3b4:	000003e9 	.word	0x000003e9
 3b8:	75616e75 	.word	0x75616e75
 3bc:	726f6874 	.word	0x726f6874
 3c0:	64657a69 	.word	0x64657a69
 3c4:	00000000 	.word	0x00000000
 3c8:	00000068 	.word	0x00000068
 3cc:	000003ea 	.word	0x000003ea
 3d0:	000003eb 	.word	0x000003eb
 3d4:	000003ed 	.word	0x000003ed
 3d8:	000007d2 	.word	0x000007d2
 3dc:	4750524d 	.word	0x4750524d
 3e0:	00000bb9 	.word	0x00000bb9
 3e4:	00000bbb 	.word	0x00000bbb
 3e8:	00000bbc 	.word	0x00000bbc
 3ec:	e0861005 	add	r1, r6, r5
 3f0:	e3a02004 	mov	r2, #4
 3f4:	e28d0004 	add	r0, sp, #4
 3f8:	ebfffffe 	bl	0 <__aeabi_memcpy>
 3fc:	e2850004 	add	r0, r5, #4
 400:	e0861000 	add	r1, r6, r0
 404:	e1a0000d 	mov	r0, sp
 408:	e3a02004 	mov	r2, #4
 40c:	ebfffffe 	bl	0 <__aeabi_memcpy>
 410:	e59d0004 	ldr	r0, [sp, #4]
 414:	e59d1000 	ldr	r1, [sp]
 418:	e0800001 	add	r0, r0, r1
 41c:	e59d1010 	ldr	r1, [sp, #16]
 420:	e1500001 	cmp	r0, r1
 424:	9a000012 	bls	474 <_mr_readFile+0x474>
 428:	e59d0098 	ldr	r0, [sp, #152]	; 0x98
 42c:	ebfffffe 	bl	0 <mr_close>
 430:	e1a01008 	mov	r1, r8
 434:	e1a00006 	mov	r0, r6
 438:	ebfffffe 	bl	0 <_mr_readFile>
 43c:	e59f23b0 	ldr	r2, [pc, #944]	; 7f4 <_mr_readFile+0x7f4>
 440:	ea0000ce 	b	780 <_mr_readFile+0x780>
 444:	e285500c 	add	r5, r5, #12
 448:	e1550008 	cmp	r5, r8
 44c:	3a000006 	bcc	46c <_mr_readFile+0x46c>
 450:	e59d0098 	ldr	r0, [sp, #152]	; 0x98
 454:	ebfffffe 	bl	0 <mr_close>
 458:	e1a01008 	mov	r1, r8
 45c:	e1a00006 	mov	r0, r6
 460:	ebfffffe 	bl	0 <_mr_readFile>
 464:	e59f238c 	ldr	r2, [pc, #908]	; 7f8 <_mr_readFile+0x7f8>
 468:	ea0000c4 	b	780 <_mr_readFile+0x780>
 46c:	e3570000 	cmp	r7, #0
 470:	0affffa2 	beq	300 <_mr_readFile+0x300>
 474:	e1a01008 	mov	r1, r8
 478:	e1a00006 	mov	r0, r6
 47c:	ebfffffe 	bl	0 <_mr_readFile>
 480:	e59d0000 	ldr	r0, [sp]
 484:	e5840000 	str	r0, [r4]
 488:	ebfffffe 	bl	0 <_mr_readFile>
 48c:	e1b06000 	movs	r6, r0
 490:	1a000003 	bne	4a4 <_mr_readFile+0x4a4>
 494:	e59d0098 	ldr	r0, [sp, #152]	; 0x98
 498:	ebfffffe 	bl	0 <mr_close>
 49c:	e59f2358 	ldr	r2, [pc, #856]	; 7fc <_mr_readFile+0x7fc>
 4a0:	ea0000b6 	b	780 <_mr_readFile+0x780>
 4a4:	e59d0098 	ldr	r0, [sp, #152]	; 0x98
 4a8:	e59d1004 	ldr	r1, [sp, #4]
 4ac:	e3a02000 	mov	r2, #0
 4b0:	ebfffffe 	bl	0 <mr_seek>
 4b4:	e3500000 	cmp	r0, #0
 4b8:	a3a05000 	movge	r5, #0
 4bc:	aa000014 	bge	514 <_mr_readFile+0x514>
 4c0:	e5941000 	ldr	r1, [r4]
 4c4:	e1a00006 	mov	r0, r6
 4c8:	ebfffffe 	bl	0 <_mr_readFile>
 4cc:	e59d0098 	ldr	r0, [sp, #152]	; 0x98
 4d0:	ebfffffe 	bl	0 <mr_close>
 4d4:	e3a02d2f 	mov	r2, #3008	; 0xbc0
 4d8:	ea0000a8 	b	780 <_mr_readFile+0x780>
 4dc:	e0402005 	sub	r2, r0, r5
 4e0:	e59d0098 	ldr	r0, [sp, #152]	; 0x98
 4e4:	e0861005 	add	r1, r6, r5
 4e8:	ebfffffe 	bl	0 <mr_read>
 4ec:	e3500000 	cmp	r0, #0
 4f0:	ca000006 	bgt	510 <_mr_readFile+0x510>
 4f4:	e5941000 	ldr	r1, [r4]
 4f8:	e1a00006 	mov	r0, r6
 4fc:	ebfffffe 	bl	0 <_mr_readFile>
 500:	e59d0098 	ldr	r0, [sp, #152]	; 0x98
 504:	ebfffffe 	bl	0 <mr_close>
 508:	e59f22f0 	ldr	r2, [pc, #752]	; 800 <_mr_readFile+0x800>
 50c:	ea00009b 	b	780 <_mr_readFile+0x780>
 510:	e0855000 	add	r5, r5, r0
 514:	e5940000 	ldr	r0, [r4]
 518:	e1500005 	cmp	r0, r5
 51c:	caffffee 	bgt	4dc <_mr_readFile+0x4dc>
 520:	e59d0098 	ldr	r0, [sp, #152]	; 0x98
 524:	ebfffffe 	bl	0 <mr_close>
 528:	e51f5184 	ldr	r5, [pc, #-388]	; 3ac <_mr_readFile+0x3ac>
 52c:	e3a00000 	mov	r0, #0
 530:	e5850064 	str	r0, [r5, #100]	; 0x64
 534:	e5856058 	str	r6, [r5, #88]	; 0x58
 538:	e5850060 	str	r0, [r5, #96]	; 0x60
 53c:	e5940000 	ldr	r0, [r4]
 540:	ebfffffe 	bl	0 <mr_get_method>
 544:	e3500000 	cmp	r0, #0
 548:	b1a00006 	movlt	r0, r6
 54c:	ba000046 	blt	66c <_mr_readFile+0x66c>
 550:	e5940000 	ldr	r0, [r4]
 554:	e0800006 	add	r0, r0, r6
 558:	e5501004 	ldrb	r1, [r0, #-4]
 55c:	e5502003 	ldrb	r2, [r0, #-3]
 560:	e1811402 	orr	r1, r1, r2, lsl #8
 564:	e5502002 	ldrb	r2, [r0, #-2]
 568:	e5500001 	ldrb	r0, [r0, #-1]
 56c:	e1811802 	orr	r1, r1, r2, lsl #16
 570:	e1817c00 	orr	r7, r1, r0, lsl #24
 574:	e1a00007 	mov	r0, r7
 578:	ebfffffe 	bl	0 <_mr_readFile>
 57c:	e585005c 	str	r0, [r5, #92]	; 0x5c
 580:	e5946000 	ldr	r6, [r4]
 584:	e5847000 	str	r7, [r4]
 588:	e595005c 	ldr	r0, [r5, #92]	; 0x5c
 58c:	e3500000 	cmp	r0, #0
 590:	1a000083 	bne	7a4 <_mr_readFile+0x7a4>
 594:	e3590000 	cmp	r9, #0
 598:	05950058 	ldreq	r0, [r5, #88]	; 0x58
 59c:	01a01006 	moveq	r1, r6
 5a0:	0bfffffe 	bleq	0 <_mr_readFile>
 5a4:	ea00007c 	b	79c <_mr_readFile+0x79c>
 5a8:	e2401008 	sub	r1, r0, #8
 5ac:	e59d0098 	ldr	r0, [sp, #152]	; 0x98
 5b0:	e3a02001 	mov	r2, #1
 5b4:	ebfffffe 	bl	0 <mr_seek>
 5b8:	e3500000 	cmp	r0, #0
 5bc:	aa000003 	bge	5d0 <_mr_readFile+0x5d0>
 5c0:	e59d0098 	ldr	r0, [sp, #152]	; 0x98
 5c4:	ebfffffe 	bl	0 <mr_close>
 5c8:	e59f2234 	ldr	r2, [pc, #564]	; 804 <_mr_readFile+0x804>
 5cc:	ea00006b 	b	780 <_mr_readFile+0x780>
 5d0:	e59d0098 	ldr	r0, [sp, #152]	; 0x98
 5d4:	e3a02004 	mov	r2, #4
 5d8:	e28d109c 	add	r1, sp, #156	; 0x9c
 5dc:	ebfffffe 	bl	0 <mr_read>
 5e0:	e3500004 	cmp	r0, #4
 5e4:	1a000004 	bne	5fc <_mr_readFile+0x5fc>
 5e8:	e59d509c 	ldr	r5, [sp, #156]	; 0x9c
 5ec:	e3550001 	cmp	r5, #1
 5f0:	3a000001 	bcc	5fc <_mr_readFile+0x5fc>
 5f4:	e3550080 	cmp	r5, #128	; 0x80
 5f8:	3a000003 	bcc	60c <_mr_readFile+0x60c>
 5fc:	e59d0098 	ldr	r0, [sp, #152]	; 0x98
 600:	ebfffffe 	bl	0 <mr_close>
 604:	e59f21fc 	ldr	r2, [pc, #508]	; 808 <_mr_readFile+0x808>
 608:	ea00005c 	b	780 <_mr_readFile+0x780>
 60c:	e3a01080 	mov	r1, #128	; 0x80
 610:	e28d0018 	add	r0, sp, #24
 614:	ebfffffe 	bl	0 <__aeabi_memclr4>
 618:	e59d0098 	ldr	r0, [sp, #152]	; 0x98
 61c:	e1a02005 	mov	r2, r5
 620:	e28d1018 	add	r1, sp, #24
 624:	ebfffffe 	bl	0 <mr_read>
 628:	e59d109c 	ldr	r1, [sp, #156]	; 0x9c
 62c:	e1500001 	cmp	r0, r1
 630:	0a000003 	beq	644 <_mr_readFile+0x644>
 634:	e59d0098 	ldr	r0, [sp, #152]	; 0x98
 638:	ebfffffe 	bl	0 <mr_close>
 63c:	e59f21c8 	ldr	r2, [pc, #456]	; 80c <_mr_readFile+0x80c>
 640:	ea00004e 	b	780 <_mr_readFile+0x780>
 644:	e59d00a0 	ldr	r0, [sp, #160]	; 0xa0
 648:	e28d1018 	add	r1, sp, #24
 64c:	ebfffffe 	bl	0 <strcmp>
 650:	e3500000 	cmp	r0, #0
 654:	1a000013 	bne	6a8 <_mr_readFile+0x6a8>
 658:	e35a0001 	cmp	sl, #1
 65c:	1a000004 	bne	674 <_mr_readFile+0x674>
 660:	e59d0098 	ldr	r0, [sp, #152]	; 0x98
 664:	ebfffffe 	bl	0 <mr_close>
 668:	e3a00001 	mov	r0, #1
 66c:	e28dd0ac 	add	sp, sp, #172	; 0xac
 670:	e8bd8ff0 	pop	{r4, r5, r6, r7, r8, r9, sl, fp, pc}
 674:	e59d0098 	ldr	r0, [sp, #152]	; 0x98
 678:	e3a02004 	mov	r2, #4
 67c:	e28d109c 	add	r1, sp, #156	; 0x9c
 680:	ebfffffe 	bl	0 <mr_read>
 684:	e3500004 	cmp	r0, #4
 688:	1a000004 	bne	6a0 <_mr_readFile+0x6a0>
 68c:	e59d009c 	ldr	r0, [sp, #156]	; 0x9c
 690:	e3500001 	cmp	r0, #1
 694:	3a000001 	bcc	6a0 <_mr_readFile+0x6a0>
 698:	e3700106 	cmn	r0, #-2147483647	; 0x80000001
 69c:	9a00001b 	bls	710 <_mr_readFile+0x710>
 6a0:	e59f2168 	ldr	r2, [pc, #360]	; 810 <_mr_readFile+0x810>
 6a4:	ea00000b 	b	6d8 <_mr_readFile+0x6d8>
 6a8:	e59d0098 	ldr	r0, [sp, #152]	; 0x98
 6ac:	e3a02004 	mov	r2, #4
 6b0:	e28d109c 	add	r1, sp, #156	; 0x9c
 6b4:	ebfffffe 	bl	0 <mr_read>
 6b8:	e3500004 	cmp	r0, #4
 6bc:	1a000004 	bne	6d4 <_mr_readFile+0x6d4>
 6c0:	e59d109c 	ldr	r1, [sp, #156]	; 0x9c
 6c4:	e3510001 	cmp	r1, #1
 6c8:	3a000001 	bcc	6d4 <_mr_readFile+0x6d4>
 6cc:	e3710106 	cmn	r1, #-2147483647	; 0x80000001
 6d0:	9a000006 	bls	6f0 <_mr_readFile+0x6f0>
 6d4:	e59f2138 	ldr	r2, [pc, #312]	; 814 <_mr_readFile+0x814>
 6d8:	e51f0318 	ldr	r0, [pc, #-792]	; 3c8 <_mr_readFile+0x3c8>
 6dc:	e59d10a0 	ldr	r1, [sp, #160]	; 0xa0
 6e0:	ebfffffe 	bl	0 <mr_printf>
 6e4:	e59d0098 	ldr	r0, [sp, #152]	; 0x98
 6e8:	ebfffffe 	bl	0 <mr_close>
 6ec:	ea00002a 	b	79c <_mr_readFile+0x79c>
 6f0:	e59d0098 	ldr	r0, [sp, #152]	; 0x98
 6f4:	e3a02001 	mov	r2, #1
 6f8:	ebfffffe 	bl	0 <mr_seek>
 6fc:	e3500000 	cmp	r0, #0
 700:	b59f2110 	ldrlt	r2, [pc, #272]	; 818 <_mr_readFile+0x818>
 704:	bafffff3 	blt	6d8 <_mr_readFile+0x6d8>
 708:	e3570000 	cmp	r7, #0
 70c:	0affffaf 	beq	5d0 <_mr_readFile+0x5d0>
 710:	e59d009c 	ldr	r0, [sp, #156]	; 0x9c
 714:	e3500000 	cmp	r0, #0
 718:	e5840000 	str	r0, [r4]
 71c:	ca000003 	bgt	730 <_mr_readFile+0x730>
 720:	e59d0098 	ldr	r0, [sp, #152]	; 0x98
 724:	ebfffffe 	bl	0 <mr_close>
 728:	e59f20ec 	ldr	r2, [pc, #236]	; 81c <_mr_readFile+0x81c>
 72c:	ea000013 	b	780 <_mr_readFile+0x780>
 730:	ebfffffe 	bl	0 <_mr_readFile>
 734:	e1b06000 	movs	r6, r0
 738:	13a05000 	movne	r5, #0
 73c:	1a000012 	bne	78c <_mr_readFile+0x78c>
 740:	e59d0098 	ldr	r0, [sp, #152]	; 0x98
 744:	ebfffffe 	bl	0 <mr_close>
 748:	e59f20d0 	ldr	r2, [pc, #208]	; 820 <_mr_readFile+0x820>
 74c:	ea00000b 	b	780 <_mr_readFile+0x780>
 750:	e0402005 	sub	r2, r0, r5
 754:	e59d0098 	ldr	r0, [sp, #152]	; 0x98
 758:	e0861005 	add	r1, r6, r5
 75c:	ebfffffe 	bl	0 <mr_read>
 760:	e3500000 	cmp	r0, #0
 764:	ca000007 	bgt	788 <_mr_readFile+0x788>
 768:	e5941000 	ldr	r1, [r4]
 76c:	e1a00006 	mov	r0, r6
 770:	ebfffffe 	bl	0 <_mr_readFile>
 774:	e59d0098 	ldr	r0, [sp, #152]	; 0x98
 778:	ebfffffe 	bl	0 <mr_close>
 77c:	e59f20a0 	ldr	r2, [pc, #160]	; 824 <_mr_readFile+0x824>
 780:	e59d10a0 	ldr	r1, [sp, #160]	; 0xa0
 784:	eafffe44 	b	9c <_mr_readFile+0x9c>
 788:	e0855000 	add	r5, r5, r0
 78c:	e5940000 	ldr	r0, [r4]
 790:	e1500005 	cmp	r0, r5
 794:	caffffed 	bgt	750 <_mr_readFile+0x750>
 798:	eaffff60 	b	520 <_mr_readFile+0x520>
 79c:	e3a00000 	mov	r0, #0
 7a0:	eaffffb1 	b	66c <_mr_readFile+0x66c>
 7a4:	ebfffffe 	bl	0 <mr_unzip>
 7a8:	e3500000 	cmp	r0, #0
 7ac:	0a00000a 	beq	7dc <_mr_readFile+0x7dc>
 7b0:	e3590000 	cmp	r9, #0
 7b4:	05950058 	ldreq	r0, [r5, #88]	; 0x58
 7b8:	01a01006 	moveq	r1, r6
 7bc:	0bfffffe 	bleq	0 <_mr_readFile>
 7c0:	e595005c 	ldr	r0, [r5, #92]	; 0x5c
 7c4:	e1a01007 	mov	r1, r7
 7c8:	ebfffffe 	bl	0 <_mr_readFile>
 7cc:	e59d10a0 	ldr	r1, [sp, #160]	; 0xa0
 7d0:	e28f0050 	add	r0, pc, #80	; 0x50
 7d4:	ebfffffe 	bl	0 <mr_printf>
 7d8:	eaffffef 	b	79c <_mr_readFile+0x79c>
 7dc:	e3590000 	cmp	r9, #0
 7e0:	05950058 	ldreq	r0, [r5, #88]	; 0x58
 7e4:	01a01006 	moveq	r1, r6
 7e8:	0bfffffe 	bleq	0 <_mr_readFile>
 7ec:	e595005c 	ldr	r0, [r5, #92]	; 0x5c
 7f0:	eaffff9d 	b	66c <_mr_readFile+0x66c>
 7f4:	00000bbd 	.word	0x00000bbd
 7f8:	00000bbe 	.word	0x00000bbe
 7fc:	00000bbf 	.word	0x00000bbf
 800:	00000bc1 	.word	0x00000bc1
 804:	00000bba 	.word	0x00000bba
 808:	000007d7 	.word	0x000007d7
 80c:	000007d8 	.word	0x000007d8
 810:	000007d9 	.word	0x000007d9
 814:	000007da 	.word	0x000007da
 818:	000007db 	.word	0x000007db
 81c:	000007dc 	.word	0x000007dc
 820:	000007dd 	.word	0x000007dd
 824:	000007de 	.word	0x000007de
 828:	5f726d5f 	.word	0x5f726d5f
 82c:	64616572 	.word	0x64616572
 830:	656c6946 	.word	0x656c6946
 834:	2522203a 	.word	0x2522203a
 838:	55202273 	.word	0x55202273
 83c:	70697a6e 	.word	0x70697a6e
 840:	72726520 	.word	0x72726520
 844:	00000021 	.word	0x00000021

Disassembly of section i.mr_checkMrp:

00000000 <mr_checkMrp>:
   0:	e92d4070 	push	{r4, r5, r6, lr}
   4:	e1a05000 	mov	r5, r0
   8:	e3a00b0a 	mov	r0, #10240	; 0x2800
   c:	e24dd018 	sub	sp, sp, #24
  10:	ebfffffe 	bl	0 <mr_checkMrp>
  14:	e1b04000 	movs	r4, r0
  18:	1a000005 	bne	34 <mr_checkMrp+0x34>
  1c:	e3a01000 	mov	r1, #0
  20:	e28f0e1d 	add	r0, pc, #464	; 0x1d0
  24:	ebfffffe 	bl	0 <mr_printf>
  28:	e3e00001 	mvn	r0, #1
  2c:	e28dd018 	add	sp, sp, #24
  30:	e8bd8070 	pop	{r4, r5, r6, pc}
  34:	e3a01001 	mov	r1, #1
  38:	e1a00005 	mov	r0, r5
  3c:	ebfffffe 	bl	0 <mr_open>
  40:	e1b06000 	movs	r6, r0
  44:	1a000007 	bne	68 <mr_checkMrp+0x68>
  48:	e3a01b0a 	mov	r1, #10240	; 0x2800
  4c:	e1a00004 	mov	r0, r4
  50:	ebfffffe 	bl	0 <mr_checkMrp>
  54:	e3a01001 	mov	r1, #1
  58:	e28f0f66 	add	r0, pc, #408	; 0x198
  5c:	ebfffffe 	bl	0 <mr_printf>
  60:	e3e00002 	mvn	r0, #2
  64:	eafffff0 	b	2c <mr_checkMrp+0x2c>
  68:	e28d0008 	add	r0, sp, #8
  6c:	e3a01000 	mov	r1, #0
  70:	e3a02000 	mov	r2, #0
  74:	e8a00006 	stmia	r0!, {r1, r2}
  78:	e8800006 	stm	r0, {r1, r2}
  7c:	e3a02010 	mov	r2, #16
  80:	e28d1008 	add	r1, sp, #8
  84:	e1a00006 	mov	r0, r6
  88:	ebfffffe 	bl	0 <mr_read>
  8c:	e1a05000 	mov	r5, r0
  90:	e3a00000 	mov	r0, #0
  94:	e3a01000 	mov	r1, #0
  98:	ebfffffe 	bl	0 <mr_updcrc>
  9c:	e3a01010 	mov	r1, #16
  a0:	e28d0008 	add	r0, sp, #8
  a4:	ebfffffe 	bl	0 <mr_updcrc>
  a8:	e3550010 	cmp	r5, #16
  ac:	059d0008 	ldreq	r0, [sp, #8]
  b0:	059f1154 	ldreq	r1, [pc, #340]	; 20c <mr_checkMrp+0x20c>
  b4:	01500001 	cmpeq	r0, r1
  b8:	1a000002 	bne	c8 <mr_checkMrp+0xc8>
  bc:	e59d000c 	ldr	r0, [sp, #12]
  c0:	e35000e8 	cmp	r0, #232	; 0xe8
  c4:	8a000009 	bhi	f0 <mr_checkMrp+0xf0>
  c8:	e1a00006 	mov	r0, r6
  cc:	ebfffffe 	bl	0 <mr_close>
  d0:	e3a01b0a 	mov	r1, #10240	; 0x2800
  d4:	e1a00004 	mov	r0, r4
  d8:	ebfffffe 	bl	0 <mr_checkMrp>
  dc:	e3a01002 	mov	r1, #2
  e0:	e28f0e11 	add	r0, pc, #272	; 0x110
  e4:	ebfffffe 	bl	0 <mr_printf>
  e8:	e3e00003 	mvn	r0, #3
  ec:	eaffffce 	b	2c <mr_checkMrp+0x2c>
  f0:	e3a020e0 	mov	r2, #224	; 0xe0
  f4:	e1a01004 	mov	r1, r4
  f8:	e1a00006 	mov	r0, r6
  fc:	ebfffffe 	bl	0 <mr_read>
 100:	e35000e0 	cmp	r0, #224	; 0xe0
 104:	0a000009 	beq	130 <mr_checkMrp+0x130>
 108:	e1a00006 	mov	r0, r6
 10c:	ebfffffe 	bl	0 <mr_close>
 110:	e3a01b0a 	mov	r1, #10240	; 0x2800
 114:	e1a00004 	mov	r0, r4
 118:	ebfffffe 	bl	0 <mr_checkMrp>
 11c:	e3a01003 	mov	r1, #3
 120:	e28f00d0 	add	r0, pc, #208	; 0xd0
 124:	ebfffffe 	bl	0 <mr_printf>
 128:	e3e00004 	mvn	r0, #4
 12c:	eaffffbe 	b	2c <mr_checkMrp+0x2c>
 130:	e5d400c0 	ldrb	r0, [r4, #192]	; 0xc0
 134:	e3500001 	cmp	r0, #1
 138:	0a000009 	beq	164 <mr_checkMrp+0x164>
 13c:	e1a00006 	mov	r0, r6
 140:	ebfffffe 	bl	0 <mr_close>
 144:	e3a01b0a 	mov	r1, #10240	; 0x2800
 148:	e1a00004 	mov	r0, r4
 14c:	ebfffffe 	bl	0 <mr_checkMrp>
 150:	e3a0101f 	mov	r1, #31
 154:	e28f009c 	add	r0, pc, #156	; 0x9c
 158:	ebfffffe 	bl	0 <mr_printf>
 15c:	e3e00005 	mvn	r0, #5
 160:	eaffffb1 	b	2c <mr_checkMrp+0x2c>
 164:	e3a02004 	mov	r2, #4
 168:	e2841044 	add	r1, r4, #68	; 0x44
 16c:	e28d0004 	add	r0, sp, #4
 170:	ebfffffe 	bl	0 <__aeabi_memcpy>
 174:	e3a01004 	mov	r1, #4
 178:	e2840044 	add	r0, r4, #68	; 0x44
 17c:	ebfffffe 	bl	0 <__aeabi_memclr>
 180:	e3a010e0 	mov	r1, #224	; 0xe0
 184:	ea000006 	b	1a4 <mr_checkMrp+0x1a4>
 188:	e3a02b0a 	mov	r2, #10240	; 0x2800
 18c:	e1a01004 	mov	r1, r4
 190:	e1a00006 	mov	r0, r6
 194:	ebfffffe 	bl	0 <mr_read>
 198:	e3500000 	cmp	r0, #0
 19c:	da000003 	ble	1b0 <mr_checkMrp+0x1b0>
 1a0:	e1a01000 	mov	r1, r0
 1a4:	e1a00004 	mov	r0, r4
 1a8:	ebfffffe 	bl	0 <mr_updcrc>
 1ac:	eafffff5 	b	188 <mr_checkMrp+0x188>
 1b0:	e3a01000 	mov	r1, #0
 1b4:	e1a00004 	mov	r0, r4
 1b8:	ebfffffe 	bl	0 <mr_updcrc>
 1bc:	e59d1004 	ldr	r1, [sp, #4]
 1c0:	e1500001 	cmp	r0, r1
 1c4:	03a05000 	moveq	r5, #0
 1c8:	0a000003 	beq	1dc <mr_checkMrp+0x1dc>
 1cc:	e3a01004 	mov	r1, #4
 1d0:	e28f0020 	add	r0, pc, #32
 1d4:	ebfffffe 	bl	0 <mr_printf>
 1d8:	e3e05006 	mvn	r5, #6
 1dc:	e1a00006 	mov	r0, r6
 1e0:	ebfffffe 	bl	0 <mr_close>
 1e4:	e3a01b0a 	mov	r1, #10240	; 0x2800
 1e8:	e1a00004 	mov	r0, r4
 1ec:	ebfffffe 	bl	0 <mr_checkMrp>
 1f0:	e1a00005 	mov	r0, r5
 1f4:	eaffff8c 	b	2c <mr_checkMrp+0x2c>
 1f8:	5f63726d 	.word	0x5f63726d
 1fc:	63656863 	.word	0x63656863
 200:	70724d6b 	.word	0x70724d6b
 204:	72726520 	.word	0x72726520
 208:	00642520 	.word	0x00642520
 20c:	4750524d 	.word	0x4750524d

Disassembly of section i._DispUpEx:

00000000 <_DispUpEx>:
   0:	e59fc028 	ldr	ip, [pc, #40]	; 30 <_DispUpEx+0x30>
   4:	e92d4008 	push	{r3, lr}
   8:	e59ce004 	ldr	lr, [ip, #4]
   c:	e35e0001 	cmp	lr, #1
  10:	058d3000 	streq	r3, [sp]
  14:	01a03002 	moveq	r3, r2
  18:	01a02001 	moveq	r2, r1
  1c:	01a01000 	moveq	r1, r0
  20:	059c0040 	ldreq	r0, [ip, #64]	; 0x40
  24:	0bfffffe 	bleq	0 <mr_drawBitmap>
  28:	e3a00000 	mov	r0, #0
  2c:	e8bd9000 	pop	{ip, pc}
  30:	00000000 	.word	0x00000000

Disassembly of section i.MRF_DispUpEx:

00000000 <MRF_DispUpEx>:
   0:	e92d41f0 	push	{r4, r5, r6, r7, r8, lr}
   4:	e1a07000 	mov	r7, r0
   8:	e3a01001 	mov	r1, #1
   c:	ebfffffe 	bl	0 <mrp_tonumber>
  10:	e1a04800 	lsl	r4, r0, #16
  14:	e1a04844 	asr	r4, r4, #16
  18:	e1a00007 	mov	r0, r7
  1c:	e3a01002 	mov	r1, #2
  20:	ebfffffe 	bl	0 <mrp_tonumber>
  24:	e1a05800 	lsl	r5, r0, #16
  28:	e1a05845 	asr	r5, r5, #16
  2c:	e1a00007 	mov	r0, r7
  30:	e3a01003 	mov	r1, #3
  34:	ebfffffe 	bl	0 <mrp_tonumber>
  38:	e1a06800 	lsl	r6, r0, #16
  3c:	e1a06826 	lsr	r6, r6, #16
  40:	e1a00007 	mov	r0, r7
  44:	e3a01004 	mov	r1, #4
  48:	ebfffffe 	bl	0 <mrp_tonumber>
  4c:	e1a03800 	lsl	r3, r0, #16
  50:	e1a00004 	mov	r0, r4
  54:	e1a02006 	mov	r2, r6
  58:	e1a01005 	mov	r1, r5
  5c:	e8bd41f0 	pop	{r4, r5, r6, r7, r8, lr}
  60:	e1a03823 	lsr	r3, r3, #16
  64:	eafffffe 	b	0 <MRF_DispUpEx>

Disassembly of section i.MRF_DispUp:

00000000 <MRF_DispUp>:
   0:	e92d43f8 	push	{r3, r4, r5, r6, r7, r8, r9, lr}
   4:	e1a08000 	mov	r8, r0
   8:	e3a01001 	mov	r1, #1
   c:	ebfffffe 	bl	0 <mrp_tonumber>
  10:	e1a04800 	lsl	r4, r0, #16
  14:	e1a04844 	asr	r4, r4, #16
  18:	e1a00008 	mov	r0, r8
  1c:	e3a01002 	mov	r1, #2
  20:	ebfffffe 	bl	0 <mrp_tonumber>
  24:	e1a05800 	lsl	r5, r0, #16
  28:	e1a05845 	asr	r5, r5, #16
  2c:	e1a00008 	mov	r0, r8
  30:	e3a01003 	mov	r1, #3
  34:	ebfffffe 	bl	0 <mrp_tonumber>
  38:	e1a06800 	lsl	r6, r0, #16
  3c:	e1a06826 	lsr	r6, r6, #16
  40:	e1a00008 	mov	r0, r8
  44:	e3a01004 	mov	r1, #4
  48:	ebfffffe 	bl	0 <mrp_tonumber>
  4c:	e1a07800 	lsl	r7, r0, #16
  50:	e1a07827 	lsr	r7, r7, #16
  54:	e1a00008 	mov	r0, r8
  58:	e3a0201e 	mov	r2, #30
  5c:	e3a01005 	mov	r1, #5
  60:	ebfffffe 	bl	0 <mr_L_optnumber>
  64:	e59f1038 	ldr	r1, [pc, #56]	; a4 <MRF_DispUp+0xa4>
  68:	e1a00800 	lsl	r0, r0, #16
  6c:	e1a00820 	lsr	r0, r0, #16
  70:	e0810200 	add	r0, r1, r0, lsl #4
  74:	e58d7000 	str	r7, [sp]
  78:	e590100c 	ldr	r1, [r0, #12]
  7c:	e1d000b2 	ldrh	r0, [r0, #2]
  80:	e1a03006 	mov	r3, r6
  84:	e1a02005 	mov	r2, r5
  88:	e0000095 	mul	r0, r5, r0
  8c:	e0810080 	add	r0, r1, r0, lsl #1
  90:	e0800084 	add	r0, r0, r4, lsl #1
  94:	e1a01004 	mov	r1, r4
  98:	ebfffffe 	bl	0 <mr_drawBitmap>
  9c:	e3a00000 	mov	r0, #0
  a0:	e8bd83f8 	pop	{r3, r4, r5, r6, r7, r8, r9, pc}
  a4:	000000d8 	.word	0x000000d8

Disassembly of section i.MRF_TimerStart:

00000000 <MRF_TimerStart>:
   0:	e92d4070 	push	{r4, r5, r6, lr}
   4:	e1a04000 	mov	r4, r0
   8:	e3a02000 	mov	r2, #0
   c:	e3a01001 	mov	r1, #1
  10:	ebfffffe 	bl	0 <to_mr_tonumber>
  14:	e3a02000 	mov	r2, #0
  18:	e3a01002 	mov	r1, #2
  1c:	e1a00004 	mov	r0, r4
  20:	ebfffffe 	bl	0 <to_mr_tonumber>
  24:	e1a05800 	lsl	r5, r0, #16
  28:	e1a05825 	lsr	r5, r5, #16
  2c:	e1a00004 	mov	r0, r4
  30:	e3a02000 	mov	r2, #0
  34:	e3a01003 	mov	r1, #3
  38:	ebfffffe 	bl	0 <to_mr_tostring>
  3c:	e59f4038 	ldr	r4, [pc, #56]	; 7c <MRF_TimerStart+0x7c>
  40:	e5941004 	ldr	r1, [r4, #4]
  44:	e3510001 	cmp	r1, #1
  48:	0a000004 	beq	60 <MRF_TimerStart+0x60>
  4c:	e5942010 	ldr	r2, [r4, #16]
  50:	e3520000 	cmp	r2, #0
  54:	0a000006 	beq	74 <MRF_TimerStart+0x74>
  58:	e3510002 	cmp	r1, #2
  5c:	1a000004 	bne	74 <MRF_TimerStart+0x74>
  60:	e5840050 	str	r0, [r4, #80]	; 0x50
  64:	e1a00005 	mov	r0, r5
  68:	ebfffffe 	bl	0 <mr_timerStart>
  6c:	e3a00001 	mov	r0, #1
  70:	e584000c 	str	r0, [r4, #12]
  74:	e3a00000 	mov	r0, #0
  78:	e8bd8070 	pop	{r4, r5, r6, pc}
  7c:	00000000 	.word	0x00000000

Disassembly of section i.MRF_TimerStop:

00000000 <MRF_TimerStop>:
   0:	e92d4010 	push	{r4, lr}
   4:	e3a02000 	mov	r2, #0
   8:	e3a01001 	mov	r1, #1
   c:	ebfffffe 	bl	0 <to_mr_tonumber>
  10:	ebfffffe 	bl	0 <mr_timerStop>
  14:	e59f1008 	ldr	r1, [pc, #8]	; 24 <MRF_TimerStop+0x24>
  18:	e3a00000 	mov	r0, #0
  1c:	e581000c 	str	r0, [r1, #12]
  20:	e8bd8010 	pop	{r4, pc}
  24:	00000000 	.word	0x00000000

Disassembly of section i.MRF_DrawText:

00000000 <MRF_DrawText>:
   0:	e92d4ff0 	push	{r4, r5, r6, r7, r8, r9, sl, fp, lr}
   4:	e24dd014 	sub	sp, sp, #20
   8:	e1a0b000 	mov	fp, r0
   c:	e3a02000 	mov	r2, #0
  10:	e3a01001 	mov	r1, #1
  14:	ebfffffe 	bl	0 <to_mr_tostring>
  18:	e1a09000 	mov	r9, r0
  1c:	e1a0000b 	mov	r0, fp
  20:	e3a02000 	mov	r2, #0
  24:	e3a01002 	mov	r1, #2
  28:	ebfffffe 	bl	0 <to_mr_tonumber>
  2c:	e1a04800 	lsl	r4, r0, #16
  30:	e1a04844 	asr	r4, r4, #16
  34:	e1a0000b 	mov	r0, fp
  38:	e3a02000 	mov	r2, #0
  3c:	e3a01003 	mov	r1, #3
  40:	ebfffffe 	bl	0 <to_mr_tonumber>
  44:	e1a05800 	lsl	r5, r0, #16
  48:	e1a05845 	asr	r5, r5, #16
  4c:	e1a0000b 	mov	r0, fp
  50:	e3a02000 	mov	r2, #0
  54:	e3a01004 	mov	r1, #4
  58:	ebfffffe 	bl	0 <to_mr_tonumber>
  5c:	e20060ff 	and	r6, r0, #255	; 0xff
  60:	e1a0000b 	mov	r0, fp
  64:	e3a02000 	mov	r2, #0
  68:	e3a01005 	mov	r1, #5
  6c:	ebfffffe 	bl	0 <to_mr_tonumber>
  70:	e20070ff 	and	r7, r0, #255	; 0xff
  74:	e1a0000b 	mov	r0, fp
  78:	e3a02000 	mov	r2, #0
  7c:	e3a01006 	mov	r1, #6
  80:	ebfffffe 	bl	0 <to_mr_tonumber>
  84:	e20080ff 	and	r8, r0, #255	; 0xff
  88:	e1a0000b 	mov	r0, fp
  8c:	e3a02000 	mov	r2, #0
  90:	e3a01007 	mov	r1, #7
  94:	ebfffffe 	bl	0 <to_mr_toboolean>
  98:	e1a0a000 	mov	sl, r0
  9c:	e1a0000b 	mov	r0, fp
  a0:	e3a02001 	mov	r2, #1
  a4:	e3a01008 	mov	r1, #8
  a8:	ebfffffe 	bl	0 <mr_L_optnumber>
  ac:	e1a03800 	lsl	r3, r0, #16
  b0:	e1a03823 	lsr	r3, r3, #16
  b4:	e58d300c 	str	r3, [sp, #12]
  b8:	e1a03006 	mov	r3, r6
  bc:	e1a00009 	mov	r0, r9
  c0:	e1a02005 	mov	r2, r5
  c4:	e1a01004 	mov	r1, r4
  c8:	e88d0580 	stm	sp, {r7, r8, sl}
  cc:	ebfffffe 	bl	0 <MRF_DrawText>
  d0:	e28dd014 	add	sp, sp, #20
  d4:	e8bd8ff0 	pop	{r4, r5, r6, r7, r8, r9, sl, fp, pc}

Disassembly of section i.MRF_DrawTextEx:

00000000 <MRF_DrawTextEx>:
   0:	e92d43f0 	push	{r4, r5, r6, r7, r8, r9, lr}
   4:	e24dd01c 	sub	sp, sp, #28
   8:	e1a09000 	mov	r9, r0
   c:	e3a02000 	mov	r2, #0
  10:	e3a01001 	mov	r1, #1
  14:	ebfffffe 	bl	0 <to_mr_tostring>
  18:	e1a07000 	mov	r7, r0
  1c:	e1a00009 	mov	r0, r9
  20:	e3a02003 	mov	r2, #3
  24:	e3a0100b 	mov	r1, #11
  28:	ebfffffe 	bl	0 <mr_L_optnumber>
  2c:	e1a08000 	mov	r8, r0
  30:	e1a00009 	mov	r0, r9
  34:	e3a02001 	mov	r2, #1
  38:	e3a0100c 	mov	r1, #12
  3c:	ebfffffe 	bl	0 <mr_L_optnumber>
  40:	e1a06800 	lsl	r6, r0, #16
  44:	e1a06826 	lsr	r6, r6, #16
  48:	e1a00009 	mov	r0, r9
  4c:	e3a02000 	mov	r2, #0
  50:	e3a01002 	mov	r1, #2
  54:	ebfffffe 	bl	0 <to_mr_tonumber>
  58:	e1a04800 	lsl	r4, r0, #16
  5c:	e1a04844 	asr	r4, r4, #16
  60:	e1a00009 	mov	r0, r9
  64:	e3a02000 	mov	r2, #0
  68:	e3a01003 	mov	r1, #3
  6c:	ebfffffe 	bl	0 <to_mr_tonumber>
  70:	e1a05800 	lsl	r5, r0, #16
  74:	e1a05845 	asr	r5, r5, #16
  78:	e1a00009 	mov	r0, r9
  7c:	e3a02000 	mov	r2, #0
  80:	e3a01004 	mov	r1, #4
  84:	ebfffffe 	bl	0 <to_mr_tonumber>
  88:	e1a00800 	lsl	r0, r0, #16
  8c:	e1a00820 	lsr	r0, r0, #16
  90:	e1cd01b4 	strh	r0, [sp, #20]
  94:	e1a00009 	mov	r0, r9
  98:	e3a02000 	mov	r2, #0
  9c:	e3a01005 	mov	r1, #5
  a0:	ebfffffe 	bl	0 <to_mr_tonumber>
  a4:	e1a00800 	lsl	r0, r0, #16
  a8:	e1a00820 	lsr	r0, r0, #16
  ac:	e1cd01b6 	strh	r0, [sp, #22]
  b0:	e1a00009 	mov	r0, r9
  b4:	e3a02000 	mov	r2, #0
  b8:	e3a01006 	mov	r1, #6
  bc:	ebfffffe 	bl	0 <to_mr_tonumber>
  c0:	e1a00800 	lsl	r0, r0, #16
  c4:	e1a00820 	lsr	r0, r0, #16
  c8:	e1cd01b8 	strh	r0, [sp, #24]
  cc:	e1a00009 	mov	r0, r9
  d0:	e3a02000 	mov	r2, #0
  d4:	e3a01007 	mov	r1, #7
  d8:	ebfffffe 	bl	0 <to_mr_tonumber>
  dc:	e1a00800 	lsl	r0, r0, #16
  e0:	e1a00820 	lsr	r0, r0, #16
  e4:	e1cd01ba 	strh	r0, [sp, #26]
  e8:	e1a00009 	mov	r0, r9
  ec:	e3a02000 	mov	r2, #0
  f0:	e3a01008 	mov	r1, #8
  f4:	ebfffffe 	bl	0 <to_mr_tonumber>
  f8:	e5cd0010 	strb	r0, [sp, #16]
  fc:	e1a00009 	mov	r0, r9
 100:	e3a02000 	mov	r2, #0
 104:	e3a01009 	mov	r1, #9
 108:	ebfffffe 	bl	0 <to_mr_tonumber>
 10c:	e5cd0011 	strb	r0, [sp, #17]
 110:	e1a00009 	mov	r0, r9
 114:	e3a02000 	mov	r2, #0
 118:	e3a0100a 	mov	r1, #10
 11c:	ebfffffe 	bl	0 <to_mr_tonumber>
 120:	e5cd0012 	strb	r0, [sp, #18]
 124:	e59d0010 	ldr	r0, [sp, #16]
 128:	e1a02005 	mov	r2, r5
 12c:	e58d0004 	str	r0, [sp, #4]
 130:	e59d0018 	ldr	r0, [sp, #24]
 134:	e1a01004 	mov	r1, r4
 138:	e58d0000 	str	r0, [sp]
 13c:	e59d3014 	ldr	r3, [sp, #20]
 140:	e1a00007 	mov	r0, r7
 144:	e58d600c 	str	r6, [sp, #12]
 148:	e58d8008 	str	r8, [sp, #8]
 14c:	ebfffffe 	bl	0 <MRF_DrawTextEx>
 150:	e1a01000 	mov	r1, r0
 154:	e1a00009 	mov	r0, r9
 158:	ebfffffe 	bl	0 <mrp_pushnumber>
 15c:	e3a00001 	mov	r0, #1
 160:	e28dd01c 	add	sp, sp, #28
 164:	e8bd83f0 	pop	{r4, r5, r6, r7, r8, r9, pc}

Disassembly of section i.MRF_TextWidth:

00000000 <MRF_TextWidth>:
   0:	e92d47ff 	push	{r0, r1, r2, r3, r4, r5, r6, r7, r8, r9, sl, lr}
   4:	e1a0a000 	mov	sl, r0
   8:	e3a06000 	mov	r6, #0
   c:	e3a05000 	mov	r5, #0
  10:	e3a01001 	mov	r1, #1
  14:	ebfffffe 	bl	0 <mrp_type>
  18:	e59f41ec 	ldr	r4, [pc, #492]	; 20c <MRF_TextWidth+0x20c>
  1c:	e3500004 	cmp	r0, #4
  20:	1a000038 	bne	108 <MRF_TextWidth+0x108>
  24:	e3a02000 	mov	r2, #0
  28:	e3a01001 	mov	r1, #1
  2c:	e1a0000a 	mov	r0, sl
  30:	ebfffffe 	bl	0 <to_mr_tostring>
  34:	e1a07000 	mov	r7, r0
  38:	e1a0000a 	mov	r0, sl
  3c:	e3a02000 	mov	r2, #0
  40:	e3a01002 	mov	r1, #2
  44:	ebfffffe 	bl	0 <to_mr_toboolean>
  48:	e1a08000 	mov	r8, r0
  4c:	e1a0000a 	mov	r0, sl
  50:	e3a02001 	mov	r2, #1
  54:	e3a01003 	mov	r1, #3
  58:	ebfffffe 	bl	0 <mr_L_optnumber>
  5c:	e3570000 	cmp	r7, #0
  60:	e1a09800 	lsl	r9, r0, #16
  64:	e1a09829 	lsr	r9, r9, #16
  68:	028f1e1a 	addeq	r1, pc, #416	; 0x1a0
  6c:	0a00004b 	beq	1a0 <MRF_TextWidth+0x1a0>
  70:	e3580000 	cmp	r8, #0
  74:	1a000005 	bne	90 <MRF_TextWidth+0x90>
  78:	e28d200c 	add	r2, sp, #12
  7c:	e3a01000 	mov	r1, #0
  80:	e1a00007 	mov	r0, r7
  84:	ebfffffe 	bl	0 <c2u>
  88:	e1b07000 	movs	r7, r0
  8c:	0a000042 	beq	19c <MRF_TextWidth+0x19c>
  90:	e1a04007 	mov	r4, r7
  94:	ea00000d 	b	d0 <MRF_TextWidth+0xd0>
  98:	e28d3004 	add	r3, sp, #4
  9c:	e28d2008 	add	r2, sp, #8
  a0:	e1a01009 	mov	r1, r9
  a4:	ebfffffe 	bl	0 <mr_getCharBitmap>
  a8:	e59d0008 	ldr	r0, [sp, #8]
  ac:	e2844002 	add	r4, r4, #2
  b0:	e0860000 	add	r0, r6, r0
  b4:	e1a06800 	lsl	r6, r0, #16
  b8:	e59d0004 	ldr	r0, [sp, #4]
  bc:	e1a06826 	lsr	r6, r6, #16
  c0:	e1500005 	cmp	r0, r5
  c4:	d1a00005 	movle	r0, r5
  c8:	e1a05800 	lsl	r5, r0, #16
  cc:	e1a05825 	lsr	r5, r5, #16
  d0:	e5d40001 	ldrb	r0, [r4, #1]
  d4:	e5d41000 	ldrb	r1, [r4]
  d8:	e0800401 	add	r0, r0, r1, lsl #8
  dc:	e3d00801 	bics	r0, r0, #65536	; 0x10000
  e0:	1affffec 	bne	98 <MRF_TextWidth+0x98>
  e4:	e3580000 	cmp	r8, #0
  e8:	059d100c 	ldreq	r1, [sp, #12]
  ec:	01a00007 	moveq	r0, r7
  f0:	0bfffffe 	bleq	0 <MRF_TextWidth>
  f4:	e1a01006 	mov	r1, r6
  f8:	e1a0000a 	mov	r0, sl
  fc:	ebfffffe 	bl	0 <mrp_pushnumber>
 100:	e1a01005 	mov	r1, r5
 104:	ea00003c 	b	1fc <MRF_TextWidth+0x1fc>
 108:	e3a01001 	mov	r1, #1
 10c:	e1a0000a 	mov	r0, sl
 110:	ebfffffe 	bl	0 <mrp_tonumber>
 114:	e1a05800 	lsl	r5, r0, #16
 118:	e1a05825 	lsr	r5, r5, #16
 11c:	e1a0000a 	mov	r0, sl
 120:	e3a02000 	mov	r2, #0
 124:	e3a01002 	mov	r1, #2
 128:	ebfffffe 	bl	0 <to_mr_toboolean>
 12c:	e1a07000 	mov	r7, r0
 130:	e1a0000a 	mov	r0, sl
 134:	e3a02001 	mov	r2, #1
 138:	e3a01003 	mov	r1, #3
 13c:	ebfffffe 	bl	0 <mr_L_optnumber>
 140:	e1a06800 	lsl	r6, r0, #16
 144:	e3570000 	cmp	r7, #0
 148:	e1a06826 	lsr	r6, r6, #16
 14c:	1a000001 	bne	158 <MRF_TextWidth+0x158>
 150:	e3550080 	cmp	r5, #128	; 0x80
 154:	2a000005 	bcs	170 <MRF_TextWidth+0x170>
 158:	e1a0300d 	mov	r3, sp
 15c:	e28d2004 	add	r2, sp, #4
 160:	e1a01006 	mov	r1, r6
 164:	e1a00005 	mov	r0, r5
 168:	ebfffffe 	bl	0 <mr_getCharBitmap>
 16c:	ea00001e 	b	1ec <MRF_TextWidth+0x1ec>
 170:	e1a00425 	lsr	r0, r5, #8
 174:	e5cd0008 	strb	r0, [sp, #8]
 178:	e3a00000 	mov	r0, #0
 17c:	e5cd5009 	strb	r5, [sp, #9]
 180:	e5cd000b 	strb	r0, [sp, #11]
 184:	e28d0008 	add	r0, sp, #8
 188:	e28d200c 	add	r2, sp, #12
 18c:	e3a01000 	mov	r1, #0
 190:	ebfffffe 	bl	0 <c2u>
 194:	e1b05000 	movs	r5, r0
 198:	1a000007 	bne	1bc <MRF_TextWidth+0x1bc>
 19c:	e28f1084 	add	r1, pc, #132	; 0x84
 1a0:	e594003c 	ldr	r0, [r4, #60]	; 0x3c
 1a4:	ebfffffe 	bl	0 <mrp_pushfstring>
 1a8:	e594003c 	ldr	r0, [r4, #60]	; 0x3c
 1ac:	ebfffffe 	bl	0 <mrp_error>
 1b0:	e3a00000 	mov	r0, #0
 1b4:	e28dd010 	add	sp, sp, #16
 1b8:	e8bd87f0 	pop	{r4, r5, r6, r7, r8, r9, sl, pc}
 1bc:	e1d500b2 	ldrh	r0, [r5, #2]
 1c0:	e1d510b0 	ldrh	r1, [r5]
 1c4:	e1a0300d 	mov	r3, sp
 1c8:	e28d2004 	add	r2, sp, #4
 1cc:	e0800401 	add	r0, r0, r1, lsl #8
 1d0:	e1a00800 	lsl	r0, r0, #16
 1d4:	e1a00820 	lsr	r0, r0, #16
 1d8:	e1a01006 	mov	r1, r6
 1dc:	ebfffffe 	bl	0 <mr_getCharBitmap>
 1e0:	e59d100c 	ldr	r1, [sp, #12]
 1e4:	e1a00005 	mov	r0, r5
 1e8:	ebfffffe 	bl	0 <MRF_TextWidth>
 1ec:	e59d1004 	ldr	r1, [sp, #4]
 1f0:	e1a0000a 	mov	r0, sl
 1f4:	ebfffffe 	bl	0 <mrp_pushnumber>
 1f8:	e59d1000 	ldr	r1, [sp]
 1fc:	e1a0000a 	mov	r0, sl
 200:	ebfffffe 	bl	0 <mrp_pushnumber>
 204:	e3a00002 	mov	r0, #2
 208:	eaffffe9 	b	1b4 <MRF_TextWidth+0x1b4>
 20c:	00000000 	.word	0x00000000
 210:	74786554 	.word	0x74786554
 214:	74646957 	.word	0x74646957
 218:	74203a68 	.word	0x74203a68
 21c:	69207478 	.word	0x69207478
 220:	696e2073 	.word	0x696e2073
 224:	0000216c 	.word	0x0000216c
 228:	74786554 	.word	0x74786554
 22c:	74646957 	.word	0x74646957
 230:	32633a68 	.word	0x32633a68
 234:	72652075 	.word	0x72652075
 238:	00002172 	.word	0x00002172

Disassembly of section i.MRF_DrawRect:

00000000 <MRF_DrawRect>:
   0:	e92d4ffe 	push	{r1, r2, r3, r4, r5, r6, r7, r8, r9, sl, fp, lr}
   4:	e1a0a000 	mov	sl, r0
   8:	e3a02000 	mov	r2, #0
   c:	e3a01001 	mov	r1, #1
  10:	ebfffffe 	bl	0 <to_mr_tonumber>
  14:	e1a04800 	lsl	r4, r0, #16
  18:	e1a04844 	asr	r4, r4, #16
  1c:	e1a0000a 	mov	r0, sl
  20:	e3a02000 	mov	r2, #0
  24:	e3a01002 	mov	r1, #2
  28:	ebfffffe 	bl	0 <to_mr_tonumber>
  2c:	e1a05800 	lsl	r5, r0, #16
  30:	e1a05845 	asr	r5, r5, #16
  34:	e1a0000a 	mov	r0, sl
  38:	e3a02000 	mov	r2, #0
  3c:	e3a01003 	mov	r1, #3
  40:	ebfffffe 	bl	0 <to_mr_tonumber>
  44:	e1a06800 	lsl	r6, r0, #16
  48:	e1a06846 	asr	r6, r6, #16
  4c:	e1a0000a 	mov	r0, sl
  50:	e3a02000 	mov	r2, #0
  54:	e3a01004 	mov	r1, #4
  58:	ebfffffe 	bl	0 <to_mr_tonumber>
  5c:	e1a07800 	lsl	r7, r0, #16
  60:	e1a07847 	asr	r7, r7, #16
  64:	e1a0000a 	mov	r0, sl
  68:	e3a02000 	mov	r2, #0
  6c:	e3a01005 	mov	r1, #5
  70:	ebfffffe 	bl	0 <to_mr_tonumber>
  74:	e20080ff 	and	r8, r0, #255	; 0xff
  78:	e1a0000a 	mov	r0, sl
  7c:	e3a02000 	mov	r2, #0
  80:	e3a01006 	mov	r1, #6
  84:	ebfffffe 	bl	0 <to_mr_tonumber>
  88:	e20090ff 	and	r9, r0, #255	; 0xff
  8c:	e1a0000a 	mov	r0, sl
  90:	e3a02000 	mov	r2, #0
  94:	e3a01007 	mov	r1, #7
  98:	ebfffffe 	bl	0 <to_mr_tonumber>
  9c:	e20030ff 	and	r3, r0, #255	; 0xff
  a0:	e58d3008 	str	r3, [sp, #8]
  a4:	e1a03007 	mov	r3, r7
  a8:	e1a00004 	mov	r0, r4
  ac:	e1a02006 	mov	r2, r6
  b0:	e1a01005 	mov	r1, r5
  b4:	e1cd80f0 	strd	r8, [sp]
  b8:	ebfffffe 	bl	0 <MRF_DrawRect>
  bc:	e3a00000 	mov	r0, #0
  c0:	e8bd8ffe 	pop	{r1, r2, r3, r4, r5, r6, r7, r8, r9, sl, fp, pc}

Disassembly of section i.MRF_DrawPoint:

00000000 <MRF_DrawPoint>:
   0:	e92d41f0 	push	{r4, r5, r6, r7, r8, lr}
   4:	e1a08000 	mov	r8, r0
   8:	e3a02000 	mov	r2, #0
   c:	e3a01001 	mov	r1, #1
  10:	ebfffffe 	bl	0 <to_mr_tonumber>
  14:	e1a04800 	lsl	r4, r0, #16
  18:	e1a04844 	asr	r4, r4, #16
  1c:	e1a00008 	mov	r0, r8
  20:	e3a02000 	mov	r2, #0
  24:	e3a01002 	mov	r1, #2
  28:	ebfffffe 	bl	0 <to_mr_tonumber>
  2c:	e1a05800 	lsl	r5, r0, #16
  30:	e1a05845 	asr	r5, r5, #16
  34:	e1a00008 	mov	r0, r8
  38:	e3a02000 	mov	r2, #0
  3c:	e3a01003 	mov	r1, #3
  40:	ebfffffe 	bl	0 <to_mr_tonumber>
  44:	e20060ff 	and	r6, r0, #255	; 0xff
  48:	e1a00008 	mov	r0, r8
  4c:	e3a02000 	mov	r2, #0
  50:	e3a01004 	mov	r1, #4
  54:	ebfffffe 	bl	0 <to_mr_tonumber>
  58:	e20070ff 	and	r7, r0, #255	; 0xff
  5c:	e1a00008 	mov	r0, r8
  60:	e3a02000 	mov	r2, #0
  64:	e3a01005 	mov	r1, #5
  68:	ebfffffe 	bl	0 <to_mr_tonumber>
  6c:	e1a011a6 	lsr	r1, r6, #3
  70:	e1a01581 	lsl	r1, r1, #11
  74:	e1a02127 	lsr	r2, r7, #2
  78:	e0811282 	add	r1, r1, r2, lsl #5
  7c:	e20000ff 	and	r0, r0, #255	; 0xff
  80:	e08101a0 	add	r0, r1, r0, lsr #3
  84:	e3c02803 	bic	r2, r0, #196608	; 0x30000
  88:	e1a00004 	mov	r0, r4
  8c:	e1a01005 	mov	r1, r5
  90:	ebfffffe 	bl	0 <MRF_DrawPoint>
  94:	e3a00000 	mov	r0, #0
  98:	e8bd81f0 	pop	{r4, r5, r6, r7, r8, pc}

Disassembly of section i.MRF_DrawLine:

00000000 <MRF_DrawLine>:
   0:	e92d4ff8 	push	{r3, r4, r5, r6, r7, r8, r9, sl, fp, lr}
   4:	e1a09000 	mov	r9, r0
   8:	e3a02000 	mov	r2, #0
   c:	e3a01001 	mov	r1, #1
  10:	ebfffffe 	bl	0 <to_mr_tonumber>
  14:	e1a05800 	lsl	r5, r0, #16
  18:	e1a05845 	asr	r5, r5, #16
  1c:	e1a00009 	mov	r0, r9
  20:	e3a02000 	mov	r2, #0
  24:	e3a01002 	mov	r1, #2
  28:	ebfffffe 	bl	0 <to_mr_tonumber>
  2c:	e1a07800 	lsl	r7, r0, #16
  30:	e1a07847 	asr	r7, r7, #16
  34:	e1a00009 	mov	r0, r9
  38:	e3a02000 	mov	r2, #0
  3c:	e3a01003 	mov	r1, #3
  40:	ebfffffe 	bl	0 <to_mr_tonumber>
  44:	e1a06800 	lsl	r6, r0, #16
  48:	e1a06846 	asr	r6, r6, #16
  4c:	e1a00009 	mov	r0, r9
  50:	e3a02000 	mov	r2, #0
  54:	e3a01004 	mov	r1, #4
  58:	ebfffffe 	bl	0 <to_mr_tonumber>
  5c:	e1a04800 	lsl	r4, r0, #16
  60:	e1a04844 	asr	r4, r4, #16
  64:	e1a00009 	mov	r0, r9
  68:	e3a02000 	mov	r2, #0
  6c:	e3a01005 	mov	r1, #5
  70:	ebfffffe 	bl	0 <to_mr_tonumber>
  74:	e20080ff 	and	r8, r0, #255	; 0xff
  78:	e1a00009 	mov	r0, r9
  7c:	e3a02000 	mov	r2, #0
  80:	e3a01006 	mov	r1, #6
  84:	ebfffffe 	bl	0 <to_mr_tonumber>
  88:	e200a0ff 	and	sl, r0, #255	; 0xff
  8c:	e1a00009 	mov	r0, r9
  90:	e3a02000 	mov	r2, #0
  94:	e3a01007 	mov	r1, #7
  98:	ebfffffe 	bl	0 <to_mr_tonumber>
  9c:	e1a011a8 	lsr	r1, r8, #3
  a0:	e1a01581 	lsl	r1, r1, #11
  a4:	e1a0212a 	lsr	r2, sl, #2
  a8:	e0811282 	add	r1, r1, r2, lsl #5
  ac:	e20000ff 	and	r0, r0, #255	; 0xff
  b0:	e08101a0 	add	r0, r1, r0, lsr #3
  b4:	e3c00803 	bic	r0, r0, #196608	; 0x30000
  b8:	e58d0000 	str	r0, [sp]
  bc:	e0560005 	subs	r0, r6, r5
  c0:	42600000 	rsbmi	r0, r0, #0
  c4:	e0441007 	sub	r1, r4, r7
  c8:	e3510000 	cmp	r1, #0
  cc:	b2611000 	rsblt	r1, r1, #0
  d0:	e1500001 	cmp	r0, r1
  d4:	e3a09000 	mov	r9, #0
  d8:	aa000006 	bge	f8 <MRF_DrawLine+0xf8>
  dc:	e1a00005 	mov	r0, r5
  e0:	e1a05007 	mov	r5, r7
  e4:	e1a07000 	mov	r7, r0
  e8:	e1a00006 	mov	r0, r6
  ec:	e1a06004 	mov	r6, r4
  f0:	e1a04000 	mov	r4, r0
  f4:	e3a09001 	mov	r9, #1
  f8:	e1550006 	cmp	r5, r6
  fc:	c1a00005 	movgt	r0, r5
 100:	c1a05006 	movgt	r5, r6
 104:	c1a06000 	movgt	r6, r0
 108:	c1a00007 	movgt	r0, r7
 10c:	c1a07004 	movgt	r7, r4
 110:	c1a04000 	movgt	r4, r0
 114:	e0441007 	sub	r1, r4, r7
 118:	e1b08081 	lsls	r8, r1, #1
 11c:	42688000 	rsbmi	r8, r8, #0
 120:	e0460005 	sub	r0, r6, r5
 124:	e0484000 	sub	r4, r8, r0
 128:	e3a0a001 	mov	sl, #1
 12c:	43e0a000 	mvnmi	sl, #0
 130:	e044b000 	sub	fp, r4, r0
 134:	ea00000f 	b	178 <MRF_DrawLine+0x178>
 138:	e3590000 	cmp	r9, #0
 13c:	01a00007 	moveq	r0, r7
 140:	11a00005 	movne	r0, r5
 144:	e1a01800 	lsl	r1, r0, #16
 148:	11a00007 	movne	r0, r7
 14c:	01a00005 	moveq	r0, r5
 150:	e1a00800 	lsl	r0, r0, #16
 154:	e59d2000 	ldr	r2, [sp]
 158:	e1a00840 	asr	r0, r0, #16
 15c:	e1a01841 	asr	r1, r1, #16
 160:	ebfffffe 	bl	0 <MRF_DrawLine>
 164:	e3540000 	cmp	r4, #0
 168:	a084400b 	addge	r4, r4, fp
 16c:	b0844008 	addlt	r4, r4, r8
 170:	a087700a 	addge	r7, r7, sl
 174:	e2855001 	add	r5, r5, #1
 178:	e1550006 	cmp	r5, r6
 17c:	daffffed 	ble	138 <MRF_DrawLine+0x138>
 180:	e3a00000 	mov	r0, #0
 184:	e8bd8ff8 	pop	{r3, r4, r5, r6, r7, r8, r9, sl, fp, pc}

Disassembly of section i.MRF_BitmapLoad:

00000000 <MRF_BitmapLoad>:
   0:	e92d4ff1 	push	{r0, r4, r5, r6, r7, r8, r9, sl, fp, lr}
   4:	e24dd010 	sub	sp, sp, #16
   8:	e59d0010 	ldr	r0, [sp, #16]
   c:	e3a02000 	mov	r2, #0
  10:	e3a01001 	mov	r1, #1
  14:	ebfffffe 	bl	0 <to_mr_tonumber>
  18:	e1a01800 	lsl	r1, r0, #16
  1c:	e1a01821 	lsr	r1, r1, #16
  20:	e58d100c 	str	r1, [sp, #12]
  24:	e59d0010 	ldr	r0, [sp, #16]
  28:	e3a01002 	mov	r1, #2
  2c:	e3a02000 	mov	r2, #0
  30:	ebfffffe 	bl	0 <to_mr_tostring>
  34:	e58d0008 	str	r0, [sp, #8]
  38:	e59d0010 	ldr	r0, [sp, #16]
  3c:	e3a02000 	mov	r2, #0
  40:	e3a01003 	mov	r1, #3
  44:	ebfffffe 	bl	0 <to_mr_tonumber>
  48:	e1a09800 	lsl	r9, r0, #16
  4c:	e59d0010 	ldr	r0, [sp, #16]
  50:	e1a09849 	asr	r9, r9, #16
  54:	e3a02000 	mov	r2, #0
  58:	e3a01004 	mov	r1, #4
  5c:	ebfffffe 	bl	0 <to_mr_tonumber>
  60:	e1a07800 	lsl	r7, r0, #16
  64:	e59d0010 	ldr	r0, [sp, #16]
  68:	e1a07847 	asr	r7, r7, #16
  6c:	e3a02000 	mov	r2, #0
  70:	e3a01005 	mov	r1, #5
  74:	ebfffffe 	bl	0 <to_mr_tonumber>
  78:	e1a05800 	lsl	r5, r0, #16
  7c:	e59d0010 	ldr	r0, [sp, #16]
  80:	e1a05825 	lsr	r5, r5, #16
  84:	e3a02000 	mov	r2, #0
  88:	e3a01006 	mov	r1, #6
  8c:	ebfffffe 	bl	0 <to_mr_tonumber>
  90:	e1a08800 	lsl	r8, r0, #16
  94:	e59d0010 	ldr	r0, [sp, #16]
  98:	e1a08828 	lsr	r8, r8, #16
  9c:	e3a02000 	mov	r2, #0
  a0:	e3a01007 	mov	r1, #7
  a4:	ebfffffe 	bl	0 <to_mr_tonumber>
  a8:	e1a0a800 	lsl	sl, r0, #16
  ac:	e0870008 	add	r0, r7, r8
  b0:	e1a0b800 	lsl	fp, r0, #16
  b4:	e59f017c 	ldr	r0, [pc, #380]	; 238 <MRF_BitmapLoad+0x238>
  b8:	e1a0b82b 	lsr	fp, fp, #16
  bc:	e5900008 	ldr	r0, [r0, #8]
  c0:	e1a0a82a 	lsr	sl, sl, #16
  c4:	e3100001 	tst	r0, #1
  c8:	059d2008 	ldreq	r2, [sp, #8]
  cc:	028f1f5a 	addeq	r1, pc, #360	; 0x168
  d0:	0a000004 	beq	e8 <MRF_BitmapLoad+0xe8>
  d4:	e59d100c 	ldr	r1, [sp, #12]
  d8:	e351001e 	cmp	r1, #30
  dc:	9a000006 	bls	fc <MRF_BitmapLoad+0xfc>
  e0:	e59d200c 	ldr	r2, [sp, #12]
  e4:	e28f1f5d 	add	r1, pc, #372	; 0x174
  e8:	e59d0010 	ldr	r0, [sp, #16]
  ec:	ebfffffe 	bl	0 <mrp_pushfstring>
  f0:	e59d0010 	ldr	r0, [sp, #16]
  f4:	ebfffffe 	bl	0 <mrp_error>
  f8:	ea000045 	b	214 <MRF_BitmapLoad+0x214>
  fc:	e59f017c 	ldr	r0, [pc, #380]	; 280 <MRF_BitmapLoad+0x280>
 100:	e59d100c 	ldr	r1, [sp, #12]
 104:	e0804201 	add	r4, r0, r1, lsl #4
 108:	e594000c 	ldr	r0, [r4, #12]
 10c:	e3500000 	cmp	r0, #0
 110:	0a000003 	beq	124 <MRF_BitmapLoad+0x124>
 114:	e5941004 	ldr	r1, [r4, #4]
 118:	ebfffffe 	bl	0 <MRF_BitmapLoad>
 11c:	e3a00000 	mov	r0, #0
 120:	e584000c 	str	r0, [r4, #12]
 124:	e59d0008 	ldr	r0, [sp, #8]
 128:	e5d00000 	ldrb	r0, [r0]
 12c:	e350002a 	cmp	r0, #42	; 0x2a
 130:	0a000037 	beq	214 <MRF_BitmapLoad+0x214>
 134:	e59d0008 	ldr	r0, [sp, #8]
 138:	e3a02000 	mov	r2, #0
 13c:	e28d1004 	add	r1, sp, #4
 140:	ebfffffe 	bl	0 <MRF_BitmapLoad>
 144:	e1b06000 	movs	r6, r0
 148:	059d200c 	ldreq	r2, [sp, #12]
 14c:	059d3008 	ldreq	r3, [sp, #8]
 150:	028f1f4b 	addeq	r1, pc, #300	; 0x12c
 154:	0a00001a 	beq	1c4 <MRF_BitmapLoad+0x1c4>
 158:	e1990007 	orrs	r0, r9, r7
 15c:	e1c450b0 	strh	r5, [r4]
 160:	0155000a 	cmpeq	r5, sl
 164:	e1c480b2 	strh	r8, [r4, #2]
 168:	0584600c 	streq	r6, [r4, #12]
 16c:	059d0004 	ldreq	r0, [sp, #4]
 170:	05840004 	streq	r0, [r4, #4]
 174:	0a000026 	beq	214 <MRF_BitmapLoad+0x214>
 178:	e59d1004 	ldr	r1, [sp, #4]
 17c:	e0000598 	mul	r0, r8, r5
 180:	e1510080 	cmp	r1, r0, lsl #1
 184:	da000025 	ble	220 <MRF_BitmapLoad+0x220>
 188:	e1a08080 	lsl	r8, r0, #1
 18c:	e1a00008 	mov	r0, r8
 190:	ebfffffe 	bl	0 <MRF_BitmapLoad>
 194:	e3500000 	cmp	r0, #0
 198:	11a03807 	lslne	r3, r7, #16
 19c:	e584000c 	str	r0, [r4, #12]
 1a0:	11a03823 	lsrne	r3, r3, #16
 1a4:	15848004 	strne	r8, [r4, #4]
 1a8:	1a000014 	bne	200 <MRF_BitmapLoad+0x200>
 1ac:	e59d1004 	ldr	r1, [sp, #4]
 1b0:	e1a00006 	mov	r0, r6
 1b4:	ebfffffe 	bl	0 <MRF_BitmapLoad>
 1b8:	e59d200c 	ldr	r2, [sp, #12]
 1bc:	e59d3008 	ldr	r3, [sp, #8]
 1c0:	e28f10dc 	add	r1, pc, #220	; 0xdc
 1c4:	e59d0010 	ldr	r0, [sp, #16]
 1c8:	ebfffffe 	bl	0 <mrp_pushfstring>
 1cc:	eaffffc7 	b	f0 <MRF_BitmapLoad+0xf0>
 1d0:	e001039a 	mul	r1, sl, r3
 1d4:	e3a02000 	mov	r2, #0
 1d8:	e0861081 	add	r1, r6, r1, lsl #1
 1dc:	e0811089 	add	r1, r1, r9, lsl #1
 1e0:	e1520005 	cmp	r2, r5
 1e4:	30d1c0b2 	ldrhcc	ip, [r1], #2
 1e8:	32822001 	addcc	r2, r2, #1
 1ec:	33c22801 	biccc	r2, r2, #65536	; 0x10000
 1f0:	30c0c0b2 	strhcc	ip, [r0], #2
 1f4:	3afffff9 	bcc	1e0 <MRF_BitmapLoad+0x1e0>
 1f8:	e2831001 	add	r1, r3, #1
 1fc:	e3c13801 	bic	r3, r1, #65536	; 0x10000
 200:	e153000b 	cmp	r3, fp
 204:	3afffff1 	bcc	1d0 <MRF_BitmapLoad+0x1d0>
 208:	e59d1004 	ldr	r1, [sp, #4]
 20c:	e1a00006 	mov	r0, r6
 210:	ebfffffe 	bl	0 <MRF_BitmapLoad>
 214:	e3a00000 	mov	r0, #0
 218:	e28dd014 	add	sp, sp, #20
 21c:	e8bd8ff0 	pop	{r4, r5, r6, r7, r8, r9, sl, fp, pc}
 220:	e1a00006 	mov	r0, r6
 224:	ebfffffe 	bl	0 <MRF_BitmapLoad>
 228:	e59d200c 	ldr	r2, [sp, #12]
 22c:	e59d3008 	ldr	r3, [sp, #8]
 230:	e28f108c 	add	r1, pc, #140	; 0x8c
 234:	eaffffe2 	b	1c4 <MRF_BitmapLoad+0x1c4>
 238:	00000000 	.word	0x00000000
 23c:	6d746942 	.word	0x6d746942
 240:	6f4c7061 	.word	0x6f4c7061
 244:	633a6461 	.word	0x633a6461
 248:	6f6e6e61 	.word	0x6f6e6e61
 24c:	65722074 	.word	0x65722074
 250:	46206461 	.word	0x46206461
 254:	20656c69 	.word	0x20656c69
 258:	22732522 	.word	0x22732522
 25c:	00000021 	.word	0x00000021
 260:	6d746942 	.word	0x6d746942
 264:	6f4c7061 	.word	0x6f4c7061
 268:	693a6461 	.word	0x693a6461
 26c:	7865646e 	.word	0x7865646e
 270:	20642520 	.word	0x20642520
 274:	61766e69 	.word	0x61766e69
 278:	2164696c 	.word	0x2164696c
 27c:	00000000 	.word	0x00000000
 280:	000000d8 	.word	0x000000d8
 284:	6d746942 	.word	0x6d746942
 288:	6f4c7061 	.word	0x6f4c7061
 28c:	25206461 	.word	0x25206461
 290:	61633a64 	.word	0x61633a64
 294:	746f6e6e 	.word	0x746f6e6e
 298:	61657220 	.word	0x61657220
 29c:	25222064 	.word	0x25222064
 2a0:	00212273 	.word	0x00212273
 2a4:	6d746942 	.word	0x6d746942
 2a8:	6f4c7061 	.word	0x6f4c7061
 2ac:	25206461 	.word	0x25206461
 2b0:	25222064 	.word	0x25222064
 2b4:	4e3a2273 	.word	0x4e3a2273
 2b8:	656d206f 	.word	0x656d206f
 2bc:	79726f6d 	.word	0x79726f6d
 2c0:	00000021 	.word	0x00000021
 2c4:	6d746942 	.word	0x6d746942
 2c8:	6f4c7061 	.word	0x6f4c7061
 2cc:	25206461 	.word	0x25206461
 2d0:	25222064 	.word	0x25222064
 2d4:	6c3a2273 	.word	0x6c3a2273
 2d8:	65206e65 	.word	0x65206e65
 2dc:	00217272 	.word	0x00217272

Disassembly of section i.MRF_BitmapShow:

00000000 <MRF_BitmapShow>:
   0:	e92d4ff0 	push	{r4, r5, r6, r7, r8, r9, sl, fp, lr}
   4:	e24dd01c 	sub	sp, sp, #28
   8:	e1a0b000 	mov	fp, r0
   c:	e3a02000 	mov	r2, #0
  10:	e3a01001 	mov	r1, #1
  14:	ebfffffe 	bl	0 <to_mr_tonumber>
  18:	e1a04800 	lsl	r4, r0, #16
  1c:	e1a04824 	lsr	r4, r4, #16
  20:	e1a0000b 	mov	r0, fp
  24:	e3a02000 	mov	r2, #0
  28:	e3a01002 	mov	r1, #2
  2c:	ebfffffe 	bl	0 <to_mr_tonumber>
  30:	e1a06800 	lsl	r6, r0, #16
  34:	e1a06846 	asr	r6, r6, #16
  38:	e1a0000b 	mov	r0, fp
  3c:	e3a02000 	mov	r2, #0
  40:	e3a01003 	mov	r1, #3
  44:	ebfffffe 	bl	0 <to_mr_tonumber>
  48:	e1a07800 	lsl	r7, r0, #16
  4c:	e1a07847 	asr	r7, r7, #16
  50:	e1a0000b 	mov	r0, fp
  54:	e3a02002 	mov	r2, #2
  58:	e3a01004 	mov	r1, #4
  5c:	ebfffffe 	bl	0 <mr_L_optnumber>
  60:	e1a08800 	lsl	r8, r0, #16
  64:	e1a08828 	lsr	r8, r8, #16
  68:	e1a0000b 	mov	r0, fp
  6c:	e3a02000 	mov	r2, #0
  70:	e3a01005 	mov	r1, #5
  74:	ebfffffe 	bl	0 <mr_L_optnumber>
  78:	e1a09800 	lsl	r9, r0, #16
  7c:	e1a09849 	asr	r9, r9, #16
  80:	e1a0000b 	mov	r0, fp
  84:	e3a02000 	mov	r2, #0
  88:	e3a01006 	mov	r1, #6
  8c:	ebfffffe 	bl	0 <mr_L_optnumber>
  90:	e1a0a800 	lsl	sl, r0, #16
  94:	e1a0a84a 	asr	sl, sl, #16
  98:	e1a0000b 	mov	r0, fp
  9c:	e3e02000 	mvn	r2, #0
  a0:	e3a01007 	mov	r1, #7
  a4:	ebfffffe 	bl	0 <mr_L_optnumber>
  a8:	e1a05800 	lsl	r5, r0, #16
  ac:	e1a05845 	asr	r5, r5, #16
  b0:	e1a0000b 	mov	r0, fp
  b4:	e3e02000 	mvn	r2, #0
  b8:	e3a01008 	mov	r1, #8
  bc:	ebfffffe 	bl	0 <mr_L_optnumber>
  c0:	e354001e 	cmp	r4, #30
  c4:	e1a0e800 	lsl	lr, r0, #16
  c8:	e1a0e84e 	asr	lr, lr, #16
  cc:	81a02004 	movhi	r2, r4
  d0:	828f108c 	addhi	r1, pc, #140	; 0x8c
  d4:	8a000006 	bhi	f4 <MRF_BitmapShow+0xf4>
  d8:	e59f00a4 	ldr	r0, [pc, #164]	; 184 <MRF_BitmapShow+0x184>
  dc:	e0800204 	add	r0, r0, r4, lsl #4
  e0:	e590c00c 	ldr	ip, [r0, #12]
  e4:	e35c0000 	cmp	ip, #0
  e8:	1a000006 	bne	108 <MRF_BitmapShow+0x108>
  ec:	e1a02004 	mov	r2, r4
  f0:	e28f1090 	add	r1, pc, #144	; 0x90
  f4:	e1a0000b 	mov	r0, fp
  f8:	ebfffffe 	bl	0 <mrp_pushfstring>
  fc:	e1a0000b 	mov	r0, fp
 100:	ebfffffe 	bl	0 <mrp_error>
 104:	ea000013 	b	158 <MRF_BitmapShow+0x158>
 108:	e3750001 	cmn	r5, #1
 10c:	01d050b0 	ldrheq	r5, [r0]
 110:	e37e0001 	cmn	lr, #1
 114:	01d0e0b2 	ldrheq	lr, [r0, #2]
 118:	e1d030f0 	ldrsh	r3, [r0]
 11c:	e1dc00b0 	ldrh	r0, [ip]
 120:	e1a04805 	lsl	r4, r5, #16
 124:	e58d3014 	str	r3, [sp, #20]
 128:	e1a0280e 	lsl	r2, lr, #16
 12c:	e1a02822 	lsr	r2, r2, #16
 130:	e1a04844 	asr	r4, r4, #16
 134:	e1a03804 	lsl	r3, r4, #16
 138:	e88d0104 	stm	sp, {r2, r8}
 13c:	e28d4008 	add	r4, sp, #8
 140:	e8840601 	stm	r4, {r0, r9, sl}
 144:	e1a0000c 	mov	r0, ip
 148:	e1a02007 	mov	r2, r7
 14c:	e1a03823 	lsr	r3, r3, #16
 150:	e1a01006 	mov	r1, r6
 154:	ebfffffe 	bl	0 <MRF_BitmapShow>
 158:	e3a00000 	mov	r0, #0
 15c:	e28dd01c 	add	sp, sp, #28
 160:	e8bd8ff0 	pop	{r4, r5, r6, r7, r8, r9, sl, fp, pc}
 164:	6d746942 	.word	0x6d746942
 168:	68537061 	.word	0x68537061
 16c:	693a776f 	.word	0x693a776f
 170:	7865646e 	.word	0x7865646e
 174:	20642520 	.word	0x20642520
 178:	61766e69 	.word	0x61766e69
 17c:	2164696c 	.word	0x2164696c
 180:	00000000 	.word	0x00000000
 184:	000000d8 	.word	0x000000d8
 188:	6d746942 	.word	0x6d746942
 18c:	68537061 	.word	0x68537061
 190:	2520776f 	.word	0x2520776f
 194:	69623a64 	.word	0x69623a64
 198:	70616d74 	.word	0x70616d74
 19c:	20736920 	.word	0x20736920
 1a0:	216c696e 	.word	0x216c696e
 1a4:	00000000 	.word	0x00000000

Disassembly of section i.MRF_BitmapShowEx:

00000000 <MRF_BitmapShowEx>:
   0:	e92d4ff1 	push	{r0, r4, r5, r6, r7, r8, r9, sl, fp, lr}
   4:	e24dd018 	sub	sp, sp, #24
   8:	e59d0018 	ldr	r0, [sp, #24]
   c:	e3a01001 	mov	r1, #1
  10:	ebfffffe 	bl	0 <mrp_tonumber>
  14:	e1a04000 	mov	r4, r0
  18:	e59d0018 	ldr	r0, [sp, #24]
  1c:	e3a01002 	mov	r1, #2
  20:	ebfffffe 	bl	0 <mrp_tonumber>
  24:	e1a05800 	lsl	r5, r0, #16
  28:	e59d0018 	ldr	r0, [sp, #24]
  2c:	e1a05845 	asr	r5, r5, #16
  30:	e3a01003 	mov	r1, #3
  34:	ebfffffe 	bl	0 <mrp_tonumber>
  38:	e1a06800 	lsl	r6, r0, #16
  3c:	e59d0018 	ldr	r0, [sp, #24]
  40:	e1a06846 	asr	r6, r6, #16
  44:	e3a01004 	mov	r1, #4
  48:	ebfffffe 	bl	0 <mrp_tonumber>
  4c:	e1a07800 	lsl	r7, r0, #16
  50:	e59d0018 	ldr	r0, [sp, #24]
  54:	e1a07847 	asr	r7, r7, #16
  58:	e3a01005 	mov	r1, #5
  5c:	ebfffffe 	bl	0 <mrp_tonumber>
  60:	e1a0a000 	mov	sl, r0
  64:	e59d0018 	ldr	r0, [sp, #24]
  68:	e3a01006 	mov	r1, #6
  6c:	ebfffffe 	bl	0 <mrp_tonumber>
  70:	e1a0b000 	mov	fp, r0
  74:	e59d0018 	ldr	r0, [sp, #24]
  78:	e3a02002 	mov	r2, #2
  7c:	e3a01007 	mov	r1, #7
  80:	ebfffffe 	bl	0 <mr_L_optnumber>
  84:	e1a08800 	lsl	r8, r0, #16
  88:	e59d0018 	ldr	r0, [sp, #24]
  8c:	e1a08828 	lsr	r8, r8, #16
  90:	e3a02000 	mov	r2, #0
  94:	e3a01008 	mov	r1, #8
  98:	ebfffffe 	bl	0 <mr_L_optnumber>
  9c:	e1a09800 	lsl	r9, r0, #16
  a0:	e59d0018 	ldr	r0, [sp, #24]
  a4:	e1a09849 	asr	r9, r9, #16
  a8:	e3a02000 	mov	r2, #0
  ac:	e3a01009 	mov	r1, #9
  b0:	ebfffffe 	bl	0 <mr_L_optnumber>
  b4:	e1a02800 	lsl	r2, r0, #16
  b8:	e1d400b0 	ldrh	r0, [r4]
  bc:	e1a02842 	asr	r2, r2, #16
  c0:	e58d2010 	str	r2, [sp, #16]
  c4:	e1a0280b 	lsl	r2, fp, #16
  c8:	e1a02822 	lsr	r2, r2, #16
  cc:	e58d7014 	str	r7, [sp, #20]
  d0:	e88d0104 	stm	sp, {r2, r8}
  d4:	e1a0380a 	lsl	r3, sl, #16
  d8:	e58d0008 	str	r0, [sp, #8]
  dc:	e1a00004 	mov	r0, r4
  e0:	e1a03823 	lsr	r3, r3, #16
  e4:	e1a02006 	mov	r2, r6
  e8:	e1a01005 	mov	r1, r5
  ec:	e58d900c 	str	r9, [sp, #12]
  f0:	ebfffffe 	bl	0 <MRF_BitmapShowEx>
  f4:	e3a00000 	mov	r0, #0
  f8:	e28dd01c 	add	sp, sp, #28
  fc:	e8bd8ff0 	pop	{r4, r5, r6, r7, r8, r9, sl, fp, pc}

Disassembly of section i.MRF_BitmapNew:

00000000 <MRF_BitmapNew>:
   0:	e92d47f0 	push	{r4, r5, r6, r7, r8, r9, sl, lr}
   4:	e1a0a000 	mov	sl, r0
   8:	e3a02000 	mov	r2, #0
   c:	e3a01001 	mov	r1, #1
  10:	ebfffffe 	bl	0 <to_mr_tonumber>
  14:	e1a05800 	lsl	r5, r0, #16
  18:	e1a05825 	lsr	r5, r5, #16
  1c:	e1a0000a 	mov	r0, sl
  20:	e3a02000 	mov	r2, #0
  24:	e3a01002 	mov	r1, #2
  28:	ebfffffe 	bl	0 <to_mr_tonumber>
  2c:	e1a06800 	lsl	r6, r0, #16
  30:	e1a06826 	lsr	r6, r6, #16
  34:	e1a0000a 	mov	r0, sl
  38:	e3a02000 	mov	r2, #0
  3c:	e3a01003 	mov	r1, #3
  40:	ebfffffe 	bl	0 <to_mr_tonumber>
  44:	e355001e 	cmp	r5, #30
  48:	e1a07800 	lsl	r7, r0, #16
  4c:	e1a07827 	lsr	r7, r7, #16
  50:	81a02005 	movhi	r2, r5
  54:	828f1084 	addhi	r1, pc, #132	; 0x84
  58:	8a000013 	bhi	ac <MRF_BitmapNew+0xac>
  5c:	e59f0098 	ldr	r0, [pc, #152]	; fc <MRF_BitmapNew+0xfc>
  60:	e0080697 	mul	r8, r7, r6
  64:	e0804205 	add	r4, r0, r5, lsl #4
  68:	e5941004 	ldr	r1, [r4, #4]
  6c:	e1510088 	cmp	r1, r8, lsl #1
  70:	0a000015 	beq	cc <MRF_BitmapNew+0xcc>
  74:	e594000c 	ldr	r0, [r4, #12]
  78:	e3500000 	cmp	r0, #0
  7c:	0a000002 	beq	8c <MRF_BitmapNew+0x8c>
  80:	ebfffffe 	bl	0 <MRF_BitmapNew>
  84:	e3a00000 	mov	r0, #0
  88:	e584000c 	str	r0, [r4, #12]
  8c:	e1a09088 	lsl	r9, r8, #1
  90:	e1a00009 	mov	r0, r9
  94:	ebfffffe 	bl	0 <MRF_BitmapNew>
  98:	e3500000 	cmp	r0, #0
  9c:	e584000c 	str	r0, [r4, #12]
  a0:	1a000007 	bne	c4 <MRF_BitmapNew+0xc4>
  a4:	e1a02005 	mov	r2, r5
  a8:	e28f1050 	add	r1, pc, #80	; 0x50
  ac:	e1a0000a 	mov	r0, sl
  b0:	ebfffffe 	bl	0 <mrp_pushfstring>
  b4:	e1a0000a 	mov	r0, sl
  b8:	ebfffffe 	bl	0 <mrp_error>
  bc:	e3a00000 	mov	r0, #0
  c0:	e8bd87f0 	pop	{r4, r5, r6, r7, r8, r9, sl, pc}
  c4:	e1a01009 	mov	r1, r9
  c8:	ebfffffe 	bl	0 <__aeabi_memclr>
  cc:	e1a00088 	lsl	r0, r8, #1
  d0:	e5840004 	str	r0, [r4, #4]
  d4:	e1c460b0 	strh	r6, [r4]
  d8:	e1c470b2 	strh	r7, [r4, #2]
  dc:	eafffff6 	b	bc <MRF_BitmapNew+0xbc>
  e0:	6d746942 	.word	0x6d746942
  e4:	654e7061 	.word	0x654e7061
  e8:	6e693a77 	.word	0x6e693a77
  ec:	20786564 	.word	0x20786564
  f0:	69206425 	.word	0x69206425
  f4:	6c61766e 	.word	0x6c61766e
  f8:	00216469 	.word	0x00216469
  fc:	000000d8 	.word	0x000000d8
 100:	6d746942 	.word	0x6d746942
 104:	654e7061 	.word	0x654e7061
 108:	64252077 	.word	0x64252077
 10c:	6f4e3a20 	.word	0x6f4e3a20
 110:	6d656d20 	.word	0x6d656d20
 114:	2179726f 	.word	0x2179726f
 118:	00000000 	.word	0x00000000

Disassembly of section i.MRF_BitmapDraw:

00000000 <MRF_BitmapDraw>:
   0:	e92d4ff1 	push	{r0, r4, r5, r6, r7, r8, r9, sl, fp, lr}
   4:	e24dd040 	sub	sp, sp, #64	; 0x40
   8:	e59d0040 	ldr	r0, [sp, #64]	; 0x40
   c:	e3a02000 	mov	r2, #0
  10:	e3a01001 	mov	r1, #1
  14:	ebfffffe 	bl	0 <to_mr_tonumber>
  18:	e1a04800 	lsl	r4, r0, #16
  1c:	e59d0040 	ldr	r0, [sp, #64]	; 0x40
  20:	e1a04824 	lsr	r4, r4, #16
  24:	e3a02000 	mov	r2, #0
  28:	e3a01002 	mov	r1, #2
  2c:	ebfffffe 	bl	0 <to_mr_tonumber>
  30:	e1a02800 	lsl	r2, r0, #16
  34:	e1a02842 	asr	r2, r2, #16
  38:	e58d203c 	str	r2, [sp, #60]	; 0x3c
  3c:	e59d0040 	ldr	r0, [sp, #64]	; 0x40
  40:	e3a02000 	mov	r2, #0
  44:	e3a01003 	mov	r1, #3
  48:	ebfffffe 	bl	0 <to_mr_tonumber>
  4c:	e1a02800 	lsl	r2, r0, #16
  50:	e1a02842 	asr	r2, r2, #16
  54:	e58d2038 	str	r2, [sp, #56]	; 0x38
  58:	e59d0040 	ldr	r0, [sp, #64]	; 0x40
  5c:	e3a02000 	mov	r2, #0
  60:	e3a01004 	mov	r1, #4
  64:	ebfffffe 	bl	0 <to_mr_tonumber>
  68:	e1a05800 	lsl	r5, r0, #16
  6c:	e59d0040 	ldr	r0, [sp, #64]	; 0x40
  70:	e1a05825 	lsr	r5, r5, #16
  74:	e3a02000 	mov	r2, #0
  78:	e3a01005 	mov	r1, #5
  7c:	ebfffffe 	bl	0 <to_mr_tonumber>
  80:	e1a06800 	lsl	r6, r0, #16
  84:	e59d0040 	ldr	r0, [sp, #64]	; 0x40
  88:	e1a06846 	asr	r6, r6, #16
  8c:	e3a02000 	mov	r2, #0
  90:	e3a01006 	mov	r1, #6
  94:	ebfffffe 	bl	0 <to_mr_tonumber>
  98:	e1a07800 	lsl	r7, r0, #16
  9c:	e59d0040 	ldr	r0, [sp, #64]	; 0x40
  a0:	e1a07847 	asr	r7, r7, #16
  a4:	e3a02000 	mov	r2, #0
  a8:	e3a01007 	mov	r1, #7
  ac:	ebfffffe 	bl	0 <to_mr_tonumber>
  b0:	e1a00800 	lsl	r0, r0, #16
  b4:	e1a00820 	lsr	r0, r0, #16
  b8:	e58d0034 	str	r0, [sp, #52]	; 0x34
  bc:	e59d0040 	ldr	r0, [sp, #64]	; 0x40
  c0:	e3a02000 	mov	r2, #0
  c4:	e3a01008 	mov	r1, #8
  c8:	ebfffffe 	bl	0 <to_mr_tonumber>
  cc:	e1a00800 	lsl	r0, r0, #16
  d0:	e1a00820 	lsr	r0, r0, #16
  d4:	e58d0030 	str	r0, [sp, #48]	; 0x30
  d8:	e59d0040 	ldr	r0, [sp, #64]	; 0x40
  dc:	e3a02000 	mov	r2, #0
  e0:	e3a01009 	mov	r1, #9
  e4:	ebfffffe 	bl	0 <to_mr_tonumber>
  e8:	e1a08800 	lsl	r8, r0, #16
  ec:	e59d0040 	ldr	r0, [sp, #64]	; 0x40
  f0:	e1a08848 	asr	r8, r8, #16
  f4:	e3a02000 	mov	r2, #0
  f8:	e3a0100a 	mov	r1, #10
  fc:	ebfffffe 	bl	0 <to_mr_tonumber>
 100:	e1a09800 	lsl	r9, r0, #16
 104:	e59d0040 	ldr	r0, [sp, #64]	; 0x40
 108:	e1a09849 	asr	r9, r9, #16
 10c:	e3a02000 	mov	r2, #0
 110:	e3a0100b 	mov	r1, #11
 114:	ebfffffe 	bl	0 <to_mr_tonumber>
 118:	e1a0a800 	lsl	sl, r0, #16
 11c:	e59d0040 	ldr	r0, [sp, #64]	; 0x40
 120:	e1a0a84a 	asr	sl, sl, #16
 124:	e3a02000 	mov	r2, #0
 128:	e3a0100c 	mov	r1, #12
 12c:	ebfffffe 	bl	0 <to_mr_tonumber>
 130:	e1a0b800 	lsl	fp, r0, #16
 134:	e59d0040 	ldr	r0, [sp, #64]	; 0x40
 138:	e1a0b84b 	asr	fp, fp, #16
 13c:	e3a02002 	mov	r2, #2
 140:	e3a0100d 	mov	r1, #13
 144:	ebfffffe 	bl	0 <to_mr_tonumber>
 148:	e355001e 	cmp	r5, #30
 14c:	e1a0c800 	lsl	ip, r0, #16
 150:	9354001e 	cmpls	r4, #30
 154:	e1a0c82c 	lsr	ip, ip, #16
 158:	9a000007 	bls	17c <MRF_BitmapDraw+0x17c>
 15c:	e59d0040 	ldr	r0, [sp, #64]	; 0x40
 160:	e1a03005 	mov	r3, r5
 164:	e1a02004 	mov	r2, r4
 168:	e28f10ac 	add	r1, pc, #172	; 0xac
 16c:	ebfffffe 	bl	0 <mrp_pushfstring>
 170:	e59d0040 	ldr	r0, [sp, #64]	; 0x40
 174:	ebfffffe 	bl	0 <mrp_error>
 178:	ea000024 	b	210 <MRF_BitmapDraw+0x210>
 17c:	e59f20bc 	ldr	r2, [pc, #188]	; 240 <MRF_BitmapDraw+0x240>
 180:	e0820205 	add	r0, r2, r5, lsl #4
 184:	e590100c 	ldr	r1, [r0, #12]
 188:	e3510000 	cmp	r1, #0
 18c:	10822204 	addne	r2, r2, r4, lsl #4
 190:	1592300c 	ldrne	r3, [r2, #12]
 194:	13530000 	cmpne	r3, #0
 198:	0affffef 	beq	15c <MRF_BitmapDraw+0x15c>
 19c:	e1cd82b4 	strh	r8, [sp, #36]	; 0x24
 1a0:	e1cda2b8 	strh	sl, [sp, #40]	; 0x28
 1a4:	e1cdb2ba 	strh	fp, [sp, #42]	; 0x2a
 1a8:	e1cd92b6 	strh	r9, [sp, #38]	; 0x26
 1ac:	e1cdc2bc 	strh	ip, [sp, #44]	; 0x2c
 1b0:	e1d2c0b0 	ldrh	ip, [r2]
 1b4:	e1cdc1b0 	strh	ip, [sp, #16]
 1b8:	e1d220b2 	ldrh	r2, [r2, #2]
 1bc:	e58d300c 	str	r3, [sp, #12]
 1c0:	e1cd21b2 	strh	r2, [sp, #18]
 1c4:	e59d203c 	ldr	r2, [sp, #60]	; 0x3c
 1c8:	e1cd21b4 	strh	r2, [sp, #20]
 1cc:	e59d2038 	ldr	r2, [sp, #56]	; 0x38
 1d0:	e1cd21b6 	strh	r2, [sp, #22]
 1d4:	e1d020b0 	ldrh	r2, [r0]
 1d8:	e1cd21bc 	strh	r2, [sp, #28]
 1dc:	e1d000b2 	ldrh	r0, [r0, #2]
 1e0:	e1cd62b0 	strh	r6, [sp, #32]
 1e4:	e1cd72b2 	strh	r7, [sp, #34]	; 0x22
 1e8:	e1cd01be 	strh	r0, [sp, #30]
 1ec:	e58d1018 	str	r1, [sp, #24]
 1f0:	e1d130b0 	ldrh	r3, [r1]
 1f4:	e28d2024 	add	r2, sp, #36	; 0x24
 1f8:	e1cd20f0 	strd	r2, [sp]
 1fc:	e59d3030 	ldr	r3, [sp, #48]	; 0x30
 200:	e59d2034 	ldr	r2, [sp, #52]	; 0x34
 204:	e28d100c 	add	r1, sp, #12
 208:	e28d0018 	add	r0, sp, #24
 20c:	ebfffffe 	bl	0 <MRF_BitmapDraw>
 210:	e3a00000 	mov	r0, #0
 214:	e28dd044 	add	sp, sp, #68	; 0x44
 218:	e8bd8ff0 	pop	{r4, r5, r6, r7, r8, r9, sl, fp, pc}
 21c:	6d746942 	.word	0x6d746942
 220:	72447061 	.word	0x72447061
 224:	693a7761 	.word	0x693a7761
 228:	7865646e 	.word	0x7865646e
 22c:	20642520 	.word	0x20642520
 230:	2520726f 	.word	0x2520726f
 234:	6e692064 	.word	0x6e692064
 238:	696c6176 	.word	0x696c6176
 23c:	00002164 	.word	0x00002164
 240:	000000d8 	.word	0x000000d8

Disassembly of section i.MRF_BitmapInfo:

00000000 <MRF_BitmapInfo>:
   0:	e92d4070 	push	{r4, r5, r6, lr}
   4:	e1a05000 	mov	r5, r0
   8:	e3a02000 	mov	r2, #0
   c:	e3a01001 	mov	r1, #1
  10:	ebfffffe 	bl	0 <to_mr_tonumber>
  14:	e1a02800 	lsl	r2, r0, #16
  18:	e1a02822 	lsr	r2, r2, #16
  1c:	e352001e 	cmp	r2, #30
  20:	9a000006 	bls	40 <MRF_BitmapInfo+0x40>
  24:	e28f1060 	add	r1, pc, #96	; 0x60
  28:	e1a00005 	mov	r0, r5
  2c:	ebfffffe 	bl	0 <mrp_pushfstring>
  30:	e1a00005 	mov	r0, r5
  34:	ebfffffe 	bl	0 <mrp_error>
  38:	e3a00000 	mov	r0, #0
  3c:	e8bd8070 	pop	{r4, r5, r6, pc}
  40:	e59f0068 	ldr	r0, [pc, #104]	; b0 <MRF_BitmapInfo+0xb0>
  44:	e0804202 	add	r4, r0, r2, lsl #4
  48:	e594100c 	ldr	r1, [r4, #12]
  4c:	e1a00005 	mov	r0, r5
  50:	ebfffffe 	bl	0 <mrp_pushnumber>
  54:	e5941004 	ldr	r1, [r4, #4]
  58:	e1a00005 	mov	r0, r5
  5c:	ebfffffe 	bl	0 <mrp_pushnumber>
  60:	e1d410b0 	ldrh	r1, [r4]
  64:	e1a00005 	mov	r0, r5
  68:	ebfffffe 	bl	0 <mrp_pushnumber>
  6c:	e1d410b2 	ldrh	r1, [r4, #2]
  70:	e1a00005 	mov	r0, r5
  74:	ebfffffe 	bl	0 <mrp_pushnumber>
  78:	e5941008 	ldr	r1, [r4, #8]
  7c:	e1a00005 	mov	r0, r5
  80:	ebfffffe 	bl	0 <mrp_pushnumber>
  84:	e3a00005 	mov	r0, #5
  88:	e8bd8070 	pop	{r4, r5, r6, pc}
  8c:	5f46524d 	.word	0x5f46524d
  90:	6d746942 	.word	0x6d746942
  94:	6e497061 	.word	0x6e497061
  98:	693a6f66 	.word	0x693a6f66
  9c:	7865646e 	.word	0x7865646e
  a0:	20642520 	.word	0x20642520
  a4:	61766e69 	.word	0x61766e69
  a8:	2164696c 	.word	0x2164696c
  ac:	00000000 	.word	0x00000000
  b0:	000000d8 	.word	0x000000d8

Disassembly of section i.MRF_SpriteSet:

00000000 <MRF_SpriteSet>:
   0:	e92d4070 	push	{r4, r5, r6, lr}
   4:	e1a05000 	mov	r5, r0
   8:	e3a02000 	mov	r2, #0
   c:	e3a01001 	mov	r1, #1
  10:	ebfffffe 	bl	0 <to_mr_tonumber>
  14:	e1a04800 	lsl	r4, r0, #16
  18:	e1a04824 	lsr	r4, r4, #16
  1c:	e1a00005 	mov	r0, r5
  20:	e3a02000 	mov	r2, #0
  24:	e3a01002 	mov	r1, #2
  28:	ebfffffe 	bl	0 <to_mr_tonumber>
  2c:	e354000a 	cmp	r4, #10
  30:	359f1030 	ldrcc	r1, [pc, #48]	; 68 <MRF_SpriteSet+0x68>
  34:	e1a00800 	lsl	r0, r0, #16
  38:	e1a00820 	lsr	r0, r0, #16
  3c:	30811084 	addcc	r1, r1, r4, lsl #1
  40:	31c100b0 	strhcc	r0, [r1]
  44:	3a000005 	bcc	60 <MRF_SpriteSet+0x60>
  48:	e1a02004 	mov	r2, r4
  4c:	e28f1018 	add	r1, pc, #24
  50:	e1a00005 	mov	r0, r5
  54:	ebfffffe 	bl	0 <mrp_pushfstring>
  58:	e1a00005 	mov	r0, r5
  5c:	ebfffffe 	bl	0 <mrp_error>
  60:	e3a00000 	mov	r0, #0
  64:	e8bd8070 	pop	{r4, r5, r6, pc}
  68:	0000034c 	.word	0x0000034c
  6c:	69727053 	.word	0x69727053
  70:	65536574 	.word	0x65536574
  74:	6e693a74 	.word	0x6e693a74
  78:	20786564 	.word	0x20786564
  7c:	69206425 	.word	0x69206425
  80:	6c61766e 	.word	0x6c61766e
  84:	00216469 	.word	0x00216469

Disassembly of section i.MRF_SpriteDraw:

00000000 <MRF_SpriteDraw>:
   0:	e92d43f0 	push	{r4, r5, r6, r7, r8, r9, lr}
   4:	e24dd01c 	sub	sp, sp, #28
   8:	e1a08000 	mov	r8, r0
   c:	e3a02000 	mov	r2, #0
  10:	e3a01001 	mov	r1, #1
  14:	ebfffffe 	bl	0 <to_mr_tonumber>
  18:	e1a04800 	lsl	r4, r0, #16
  1c:	e1a04824 	lsr	r4, r4, #16
  20:	e1a00008 	mov	r0, r8
  24:	e3a02000 	mov	r2, #0
  28:	e3a01002 	mov	r1, #2
  2c:	ebfffffe 	bl	0 <to_mr_tonumber>
  30:	e1a05800 	lsl	r5, r0, #16
  34:	e1a05825 	lsr	r5, r5, #16
  38:	e1a00008 	mov	r0, r8
  3c:	e3a02000 	mov	r2, #0
  40:	e3a01003 	mov	r1, #3
  44:	ebfffffe 	bl	0 <to_mr_tonumber>
  48:	e1a06800 	lsl	r6, r0, #16
  4c:	e1a06846 	asr	r6, r6, #16
  50:	e1a00008 	mov	r0, r8
  54:	e3a02000 	mov	r2, #0
  58:	e3a01004 	mov	r1, #4
  5c:	ebfffffe 	bl	0 <to_mr_tonumber>
  60:	e1a07800 	lsl	r7, r0, #16
  64:	e1a07847 	asr	r7, r7, #16
  68:	e1a00008 	mov	r0, r8
  6c:	e3a02006 	mov	r2, #6
  70:	e3a01005 	mov	r1, #5
  74:	ebfffffe 	bl	0 <to_mr_tonumber>
  78:	e354000a 	cmp	r4, #10
  7c:	e1a09800 	lsl	r9, r0, #16
  80:	e1a09829 	lsr	r9, r9, #16
  84:	21a02004 	movcs	r2, r4
  88:	228f1080 	addcs	r1, pc, #128	; 0x80
  8c:	2a000006 	bcs	ac <MRF_SpriteDraw+0xac>
  90:	e59f0098 	ldr	r0, [pc, #152]	; 130 <MRF_SpriteDraw+0x130>
  94:	e080c204 	add	ip, r0, r4, lsl #4
  98:	e59ce00c 	ldr	lr, [ip, #12]
  9c:	e35e0000 	cmp	lr, #0
  a0:	1a000006 	bne	c0 <MRF_SpriteDraw+0xc0>
  a4:	e1a02004 	mov	r2, r4
  a8:	e28f1084 	add	r1, pc, #132	; 0x84
  ac:	e1a00008 	mov	r0, r8
  b0:	ebfffffe 	bl	0 <mrp_pushfstring>
  b4:	e1a00008 	mov	r0, r8
  b8:	ebfffffe 	bl	0 <mrp_error>
  bc:	ea000010 	b	104 <MRF_SpriteDraw+0x104>
  c0:	e1de00b0 	ldrh	r0, [lr]
  c4:	e1dc30f0 	ldrsh	r3, [ip]
  c8:	e3a02000 	mov	r2, #0
  cc:	e3a01000 	mov	r1, #0
  d0:	e28d8008 	add	r8, sp, #8
  d4:	e888000f 	stm	r8, {r0, r1, r2, r3}
  d8:	e59f0074 	ldr	r0, [pc, #116]	; 154 <MRF_SpriteDraw+0x154>
  dc:	e1a02007 	mov	r2, r7
  e0:	e0800084 	add	r0, r0, r4, lsl #1
  e4:	e1d000b0 	ldrh	r0, [r0]
  e8:	e88d0201 	stm	sp, {r0, r9}
  ec:	e1dc30b0 	ldrh	r3, [ip]
  f0:	e0010395 	mul	r1, r5, r3
  f4:	e0000091 	mul	r0, r1, r0
  f8:	e1a01006 	mov	r1, r6
  fc:	e08e0080 	add	r0, lr, r0, lsl #1
 100:	ebfffffe 	bl	0 <MRF_SpriteDraw>
 104:	e3a00000 	mov	r0, #0
 108:	e28dd01c 	add	sp, sp, #28
 10c:	e8bd83f0 	pop	{r4, r5, r6, r7, r8, r9, pc}
 110:	69727053 	.word	0x69727053
 114:	72446574 	.word	0x72446574
 118:	693a7761 	.word	0x693a7761
 11c:	7865646e 	.word	0x7865646e
 120:	20642520 	.word	0x20642520
 124:	61766e69 	.word	0x61766e69
 128:	2164696c 	.word	0x2164696c
 12c:	00000000 	.word	0x00000000
 130:	000000d8 	.word	0x000000d8
 134:	69727053 	.word	0x69727053
 138:	72446574 	.word	0x72446574
 13c:	533a7761 	.word	0x533a7761
 140:	74697270 	.word	0x74697270
 144:	64252065 	.word	0x64252065
 148:	20736920 	.word	0x20736920
 14c:	216c696e 	.word	0x216c696e
 150:	00000000 	.word	0x00000000
 154:	0000034c 	.word	0x0000034c

Disassembly of section i.MRF_SpriteDrawEx:

00000000 <MRF_SpriteDrawEx>:
   0:	e92d4ff0 	push	{r4, r5, r6, r7, r8, r9, sl, fp, lr}
   4:	e24dd02c 	sub	sp, sp, #44	; 0x2c
   8:	e1a0b000 	mov	fp, r0
   c:	e3a02000 	mov	r2, #0
  10:	e3a01001 	mov	r1, #1
  14:	ebfffffe 	bl	0 <to_mr_tonumber>
  18:	e1a04800 	lsl	r4, r0, #16
  1c:	e1a04824 	lsr	r4, r4, #16
  20:	e1a0000b 	mov	r0, fp
  24:	e3a02000 	mov	r2, #0
  28:	e3a01002 	mov	r1, #2
  2c:	ebfffffe 	bl	0 <to_mr_tonumber>
  30:	e1a07800 	lsl	r7, r0, #16
  34:	e1a07827 	lsr	r7, r7, #16
  38:	e1a0000b 	mov	r0, fp
  3c:	e3a02000 	mov	r2, #0
  40:	e3a01003 	mov	r1, #3
  44:	ebfffffe 	bl	0 <to_mr_tonumber>
  48:	e1a05800 	lsl	r5, r0, #16
  4c:	e1a05845 	asr	r5, r5, #16
  50:	e1a0000b 	mov	r0, fp
  54:	e3a02000 	mov	r2, #0
  58:	e3a01004 	mov	r1, #4
  5c:	ebfffffe 	bl	0 <to_mr_tonumber>
  60:	e1a06800 	lsl	r6, r0, #16
  64:	e1a06846 	asr	r6, r6, #16
  68:	e1a0000b 	mov	r0, fp
  6c:	e3a02000 	mov	r2, #0
  70:	e3a01005 	mov	r1, #5
  74:	ebfffffe 	bl	0 <to_mr_tonumber>
  78:	e1a08800 	lsl	r8, r0, #16
  7c:	e1a08848 	asr	r8, r8, #16
  80:	e1a0000b 	mov	r0, fp
  84:	e3a02000 	mov	r2, #0
  88:	e3a01006 	mov	r1, #6
  8c:	ebfffffe 	bl	0 <to_mr_tonumber>
  90:	e1a09800 	lsl	r9, r0, #16
  94:	e1a09849 	asr	r9, r9, #16
  98:	e1a0000b 	mov	r0, fp
  9c:	e3a02000 	mov	r2, #0
  a0:	e3a01007 	mov	r1, #7
  a4:	ebfffffe 	bl	0 <to_mr_tonumber>
  a8:	e1a0a800 	lsl	sl, r0, #16
  ac:	e1a0a84a 	asr	sl, sl, #16
  b0:	e1a0000b 	mov	r0, fp
  b4:	e3a02000 	mov	r2, #0
  b8:	e3a01008 	mov	r1, #8
  bc:	ebfffffe 	bl	0 <to_mr_tonumber>
  c0:	e1a00800 	lsl	r0, r0, #16
  c4:	e354000a 	cmp	r4, #10
  c8:	e1a00840 	asr	r0, r0, #16
  cc:	3a000006 	bcc	ec <MRF_SpriteDrawEx+0xec>
  d0:	e1a02004 	mov	r2, r4
  d4:	e28f10bc 	add	r1, pc, #188	; 0xbc
  d8:	e1a0000b 	mov	r0, fp
  dc:	ebfffffe 	bl	0 <mrp_pushfstring>
  e0:	e1a0000b 	mov	r0, fp
  e4:	ebfffffe 	bl	0 <mrp_error>
  e8:	ea000027 	b	18c <MRF_SpriteDrawEx+0x18c>
  ec:	e1cda2b4 	strh	sl, [sp, #36]	; 0x24
  f0:	e1cd02b6 	strh	r0, [sp, #38]	; 0x26
  f4:	e3a00006 	mov	r0, #6
  f8:	e1cd02b8 	strh	r0, [sp, #40]	; 0x28
  fc:	e59f00b4 	ldr	r0, [pc, #180]	; 1b8 <MRF_SpriteDrawEx+0x1b8>
 100:	e1cd82b0 	strh	r8, [sp, #32]
 104:	e1cd92b2 	strh	r9, [sp, #34]	; 0x22
 108:	e5901044 	ldr	r1, [r0, #68]	; 0x44
 10c:	e3a03000 	mov	r3, #0
 110:	e1cd10bc 	strh	r1, [sp, #12]
 114:	e5901048 	ldr	r1, [r0, #72]	; 0x48
 118:	e1cd51b0 	strh	r5, [sp, #16]
 11c:	e1cd61b2 	strh	r6, [sp, #18]
 120:	e1cd10be 	strh	r1, [sp, #14]
 124:	e5900040 	ldr	r0, [r0, #64]	; 0x40
 128:	e59f1090 	ldr	r1, [pc, #144]	; 1c0 <MRF_SpriteDrawEx+0x1c0>
 12c:	e58d0008 	str	r0, [sp, #8]
 130:	e59f0084 	ldr	r0, [pc, #132]	; 1bc <MRF_SpriteDrawEx+0x1bc>
 134:	e0811084 	add	r1, r1, r4, lsl #1
 138:	e0802204 	add	r2, r0, r4, lsl #4
 13c:	e1d200b0 	ldrh	r0, [r2]
 140:	e1cd01b8 	strh	r0, [sp, #24]
 144:	e1d110b0 	ldrh	r1, [r1]
 148:	e1cd31bc 	strh	r3, [sp, #28]
 14c:	e1cd31be 	strh	r3, [sp, #30]
 150:	e3c73b3f 	bic	r3, r7, #64512	; 0xfc00
 154:	e0030390 	mul	r3, r0, r3
 158:	e1cd11ba 	strh	r1, [sp, #26]
 15c:	e592200c 	ldr	r2, [r2, #12]
 160:	e0030391 	mul	r3, r1, r3
 164:	e0823083 	add	r3, r2, r3, lsl #1
 168:	e58d3014 	str	r3, [sp, #20]
 16c:	e1d230b0 	ldrh	r3, [r2]
 170:	e28d2020 	add	r2, sp, #32
 174:	e1cd20f0 	strd	r2, [sp]
 178:	e1a03001 	mov	r3, r1
 17c:	e1a02000 	mov	r2, r0
 180:	e28d0014 	add	r0, sp, #20
 184:	e28d1008 	add	r1, sp, #8
 188:	ebfffffe 	bl	0 <MRF_SpriteDrawEx>
 18c:	e3a00000 	mov	r0, #0
 190:	e28dd02c 	add	sp, sp, #44	; 0x2c
 194:	e8bd8ff0 	pop	{r4, r5, r6, r7, r8, r9, sl, fp, pc}
 198:	69727053 	.word	0x69727053
 19c:	72446574 	.word	0x72446574
 1a0:	78457761 	.word	0x78457761
 1a4:	646e693a 	.word	0x646e693a
 1a8:	25207865 	.word	0x25207865
 1ac:	6e692064 	.word	0x6e692064
 1b0:	696c6176 	.word	0x696c6176
 1b4:	00002164 	.word	0x00002164
 1b8:	00000000 	.word	0x00000000
 1bc:	000000d8 	.word	0x000000d8
 1c0:	0000034c 	.word	0x0000034c

Disassembly of section i.MRF_TileSet:

00000000 <MRF_TileSet>:
   0:	e92d4ff8 	push	{r3, r4, r5, r6, r7, r8, r9, sl, fp, lr}
   4:	e1a05000 	mov	r5, r0
   8:	e3a02000 	mov	r2, #0
   c:	e3a01001 	mov	r1, #1
  10:	ebfffffe 	bl	0 <to_mr_tonumber>
  14:	e1a04800 	lsl	r4, r0, #16
  18:	e1a04824 	lsr	r4, r4, #16
  1c:	e1a00005 	mov	r0, r5
  20:	e3a02000 	mov	r2, #0
  24:	e3a01002 	mov	r1, #2
  28:	ebfffffe 	bl	0 <to_mr_tonumber>
  2c:	e1a08800 	lsl	r8, r0, #16
  30:	e1a08848 	asr	r8, r8, #16
  34:	e1a00005 	mov	r0, r5
  38:	e3a02000 	mov	r2, #0
  3c:	e3a01003 	mov	r1, #3
  40:	ebfffffe 	bl	0 <to_mr_tonumber>
  44:	e1a09800 	lsl	r9, r0, #16
  48:	e1a09849 	asr	r9, r9, #16
  4c:	e1a00005 	mov	r0, r5
  50:	e3a02000 	mov	r2, #0
  54:	e3a01004 	mov	r1, #4
  58:	ebfffffe 	bl	0 <to_mr_tonumber>
  5c:	e1a06800 	lsl	r6, r0, #16
  60:	e1a06826 	lsr	r6, r6, #16
  64:	e1a00005 	mov	r0, r5
  68:	e3a02000 	mov	r2, #0
  6c:	e3a01005 	mov	r1, #5
  70:	ebfffffe 	bl	0 <to_mr_tonumber>
  74:	e1a07800 	lsl	r7, r0, #16
  78:	e1a07827 	lsr	r7, r7, #16
  7c:	e1a00005 	mov	r0, r5
  80:	e3a02000 	mov	r2, #0
  84:	e3a01006 	mov	r1, #6
  88:	ebfffffe 	bl	0 <to_mr_tonumber>
  8c:	e1a0a800 	lsl	sl, r0, #16
  90:	e3540003 	cmp	r4, #3
  94:	e1a0a82a 	lsr	sl, sl, #16
  98:	3a000005 	bcc	b4 <MRF_TileSet+0xb4>
  9c:	e28f10a0 	add	r1, pc, #160	; 0xa0
  a0:	e1a00005 	mov	r0, r5
  a4:	ebfffffe 	bl	0 <mrp_pushstring>
  a8:	e1a00005 	mov	r0, r5
  ac:	ebfffffe 	bl	0 <mrp_error>
  b0:	ea000021 	b	13c <MRF_TileSet+0x13c>
  b4:	e59f00a8 	ldr	r0, [pc, #168]	; 164 <MRF_TileSet+0x164>
  b8:	e0841104 	add	r1, r4, r4, lsl #2
  bc:	e0805101 	add	r5, r0, r1, lsl #2
  c0:	e1d500b4 	ldrh	r0, [r5, #4]
  c4:	e1d510b6 	ldrh	r1, [r5, #6]
  c8:	e00b0697 	mul	fp, r7, r6
  cc:	e0010190 	mul	r1, r0, r1
  d0:	e3e00001 	mvn	r0, #1
  d4:	e0000091 	mul	r0, r1, r0
  d8:	e090008b 	adds	r0, r0, fp, lsl #1
  dc:	0a00000a 	beq	10c <MRF_TileSet+0x10c>
  e0:	e59f2080 	ldr	r2, [pc, #128]	; 168 <MRF_TileSet+0x168>
  e4:	e7920104 	ldr	r0, [r2, r4, lsl #2]
  e8:	e3500000 	cmp	r0, #0
  ec:	0a000004 	beq	104 <MRF_TileSet+0x104>
  f0:	e1a01081 	lsl	r1, r1, #1
  f4:	ebfffffe 	bl	0 <MRF_TileSet>
  f8:	e59f2068 	ldr	r2, [pc, #104]	; 168 <MRF_TileSet+0x168>
  fc:	e3a00000 	mov	r0, #0
 100:	e7820104 	str	r0, [r2, r4, lsl #2]
 104:	e3560000 	cmp	r6, #0
 108:	0a00000b 	beq	13c <MRF_TileSet+0x13c>
 10c:	e1c580b0 	strh	r8, [r5]
 110:	e1c590b2 	strh	r9, [r5, #2]
 114:	e1c560b4 	strh	r6, [r5, #4]
 118:	e1c570b6 	strh	r7, [r5, #6]
 11c:	e1c5a1b2 	strh	sl, [r5, #18]
 120:	e59f5040 	ldr	r5, [pc, #64]	; 168 <MRF_TileSet+0x168>
 124:	e7950104 	ldr	r0, [r5, r4, lsl #2]
 128:	e3500000 	cmp	r0, #0
 12c:	1a000002 	bne	13c <MRF_TileSet+0x13c>
 130:	e1a0008b 	lsl	r0, fp, #1
 134:	ebfffffe 	bl	0 <MRF_TileSet>
 138:	e7850104 	str	r0, [r5, r4, lsl #2]
 13c:	e3a00000 	mov	r0, #0
 140:	e8bd8ff8 	pop	{r3, r4, r5, r6, r7, r8, r9, sl, fp, pc}
 144:	656c6954 	.word	0x656c6954
 148:	3a746553 	.word	0x3a746553
 14c:	656c6974 	.word	0x656c6974
 150:	646e6920 	.word	0x646e6920
 154:	6f207865 	.word	0x6f207865
 158:	6f207475 	.word	0x6f207475
 15c:	61722066 	.word	0x61722066
 160:	0021676e 	.word	0x0021676e
 164:	000002c8 	.word	0x000002c8
 168:	00000304 	.word	0x00000304

Disassembly of section i.MRF_TileSetRect:

00000000 <MRF_TileSetRect>:
   0:	e92d41f0 	push	{r4, r5, r6, r7, r8, lr}
   4:	e1a08000 	mov	r8, r0
   8:	e3a02000 	mov	r2, #0
   c:	e3a01001 	mov	r1, #1
  10:	ebfffffe 	bl	0 <to_mr_tonumber>
  14:	e1a04800 	lsl	r4, r0, #16
  18:	e1a04824 	lsr	r4, r4, #16
  1c:	e1a00008 	mov	r0, r8
  20:	e3a02000 	mov	r2, #0
  24:	e3a01002 	mov	r1, #2
  28:	ebfffffe 	bl	0 <to_mr_tonumber>
  2c:	e1a05800 	lsl	r5, r0, #16
  30:	e1a05845 	asr	r5, r5, #16
  34:	e1a00008 	mov	r0, r8
  38:	e3a02000 	mov	r2, #0
  3c:	e3a01003 	mov	r1, #3
  40:	ebfffffe 	bl	0 <to_mr_tonumber>
  44:	e1a06800 	lsl	r6, r0, #16
  48:	e1a06846 	asr	r6, r6, #16
  4c:	e1a00008 	mov	r0, r8
  50:	e3a02000 	mov	r2, #0
  54:	e3a01004 	mov	r1, #4
  58:	ebfffffe 	bl	0 <to_mr_tonumber>
  5c:	e1a07800 	lsl	r7, r0, #16
  60:	e1a07847 	asr	r7, r7, #16
  64:	e1a00008 	mov	r0, r8
  68:	e3a02000 	mov	r2, #0
  6c:	e3a01005 	mov	r1, #5
  70:	ebfffffe 	bl	0 <to_mr_tonumber>
  74:	e1a00800 	lsl	r0, r0, #16
  78:	e3540003 	cmp	r4, #3
  7c:	e1a00840 	asr	r0, r0, #16
  80:	3a000005 	bcc	9c <MRF_TileSetRect+0x9c>
  84:	e28f1034 	add	r1, pc, #52	; 0x34
  88:	e1a00008 	mov	r0, r8
  8c:	ebfffffe 	bl	0 <mrp_pushstring>
  90:	e1a00008 	mov	r0, r8
  94:	ebfffffe 	bl	0 <mrp_error>
  98:	ea000006 	b	b8 <MRF_TileSetRect+0xb8>
  9c:	e59f103c 	ldr	r1, [pc, #60]	; e0 <MRF_TileSetRect+0xe0>
  a0:	e0842104 	add	r2, r4, r4, lsl #2
  a4:	e0811102 	add	r1, r1, r2, lsl #2
  a8:	e1c150b8 	strh	r5, [r1, #8]
  ac:	e1c160ba 	strh	r6, [r1, #10]
  b0:	e1c170bc 	strh	r7, [r1, #12]
  b4:	e1c100be 	strh	r0, [r1, #14]
  b8:	e3a00000 	mov	r0, #0
  bc:	e8bd81f0 	pop	{r4, r5, r6, r7, r8, pc}
  c0:	656c6954 	.word	0x656c6954
  c4:	3a746553 	.word	0x3a746553
  c8:	656c6974 	.word	0x656c6974
  cc:	646e6920 	.word	0x646e6920
  d0:	6f207865 	.word	0x6f207865
  d4:	6f207475 	.word	0x6f207475
  d8:	61722066 	.word	0x61722066
  dc:	0021676e 	.word	0x0021676e
  e0:	000002c8 	.word	0x000002c8

Disassembly of section i.MRF_TileDraw:

00000000 <MRF_TileDraw>:
   0:	e92d4ff1 	push	{r0, r4, r5, r6, r7, r8, r9, sl, fp, lr}
   4:	e24dd038 	sub	sp, sp, #56	; 0x38
   8:	e59d0038 	ldr	r0, [sp, #56]	; 0x38
   c:	e3a02000 	mov	r2, #0
  10:	e3a01001 	mov	r1, #1
  14:	ebfffffe 	bl	0 <to_mr_tonumber>
  18:	e1a01800 	lsl	r1, r0, #16
  1c:	e1a01821 	lsr	r1, r1, #16
  20:	e59f0234 	ldr	r0, [pc, #564]	; 25c <MRF_TileDraw+0x25c>
  24:	e58d102c 	str	r1, [sp, #44]	; 0x2c
  28:	e0811101 	add	r1, r1, r1, lsl #2
  2c:	e0805101 	add	r5, r0, r1, lsl #2
  30:	e59d102c 	ldr	r1, [sp, #44]	; 0x2c
  34:	e1d590f0 	ldrsh	r9, [r5]
  38:	e2400e1f 	sub	r0, r0, #496	; 0x1f0
  3c:	e1d5a0f2 	ldrsh	sl, [r5, #2]
  40:	e0800201 	add	r0, r0, r1, lsl #4
  44:	e58d0034 	str	r0, [sp, #52]	; 0x34
  48:	e1d510b4 	ldrh	r1, [r5, #4]
  4c:	e1d060b0 	ldrh	r6, [r0]
  50:	e1d581b2 	ldrh	r8, [r5, #18]
  54:	e3590000 	cmp	r9, #0
  58:	e58d1028 	str	r1, [sp, #40]	; 0x28
  5c:	e1d570b6 	ldrh	r7, [r5, #6]
  60:	c3a00000 	movgt	r0, #0
  64:	ca000002 	bgt	74 <MRF_TileDraw+0x74>
  68:	e1a01006 	mov	r1, r6
  6c:	e2690000 	rsb	r0, r9, #0
  70:	ebfffffe 	bl	0 <__aeabi_idivmod>
  74:	e59fb1e4 	ldr	fp, [pc, #484]	; 260 <MRF_TileDraw+0x260>
  78:	e58d0024 	str	r0, [sp, #36]	; 0x24
  7c:	e59b0044 	ldr	r0, [fp, #68]	; 0x44
  80:	e1a01006 	mov	r1, r6
  84:	e0400009 	sub	r0, r0, r9
  88:	e0800006 	add	r0, r0, r6
  8c:	e2400001 	sub	r0, r0, #1
  90:	ebfffffe 	bl	0 <__aeabi_uidivmod>
  94:	e59d1028 	ldr	r1, [sp, #40]	; 0x28
  98:	e1500001 	cmp	r0, r1
  9c:	859d0028 	ldrhi	r0, [sp, #40]	; 0x28
  a0:	e35a0000 	cmp	sl, #0
  a4:	e58d0020 	str	r0, [sp, #32]
  a8:	c3a00000 	movgt	r0, #0
  ac:	ca000002 	bgt	bc <MRF_TileDraw+0xbc>
  b0:	e1a01008 	mov	r1, r8
  b4:	e26a0000 	rsb	r0, sl, #0
  b8:	ebfffffe 	bl	0 <__aeabi_idivmod>
  bc:	e1a04000 	mov	r4, r0
  c0:	e59b0048 	ldr	r0, [fp, #72]	; 0x48
  c4:	e1a01008 	mov	r1, r8
  c8:	e040000a 	sub	r0, r0, sl
  cc:	e0800008 	add	r0, r0, r8
  d0:	e2400001 	sub	r0, r0, #1
  d4:	ebfffffe 	bl	0 <__aeabi_uidivmod>
  d8:	e1500007 	cmp	r0, r7
  dc:	e59d102c 	ldr	r1, [sp, #44]	; 0x2c
  e0:	81a00007 	movhi	r0, r7
  e4:	e3510003 	cmp	r1, #3
  e8:	e58d001c 	str	r0, [sp, #28]
  ec:	3a000003 	bcc	100 <MRF_TileDraw+0x100>
  f0:	e59d0038 	ldr	r0, [sp, #56]	; 0x38
  f4:	e28f1f5a 	add	r1, pc, #360	; 0x168
  f8:	ebfffffe 	bl	0 <mrp_pushstring>
  fc:	ea000009 	b	128 <MRF_TileDraw+0x128>
 100:	e59d0034 	ldr	r0, [sp, #52]	; 0x34
 104:	e590000c 	ldr	r0, [r0, #12]
 108:	e3500000 	cmp	r0, #0
 10c:	11a07804 	lslne	r7, r4, #16
 110:	11a07827 	lsrne	r7, r7, #16
 114:	1a00004a 	bne	244 <MRF_TileDraw+0x244>
 118:	e59d0038 	ldr	r0, [sp, #56]	; 0x38
 11c:	e59d202c 	ldr	r2, [sp, #44]	; 0x2c
 120:	e28f1e16 	add	r1, pc, #352	; 0x160
 124:	ebfffffe 	bl	0 <mrp_pushfstring>
 128:	e59d0038 	ldr	r0, [sp, #56]	; 0x38
 12c:	ebfffffe 	bl	0 <mrp_error>
 130:	ea000046 	b	250 <MRF_TileDraw+0x250>
 134:	e59d0024 	ldr	r0, [sp, #36]	; 0x24
 138:	e1a04800 	lsl	r4, r0, #16
 13c:	e1a04824 	lsr	r4, r4, #16
 140:	ea00003a 	b	230 <MRF_TileDraw+0x230>
 144:	e59f0158 	ldr	r0, [pc, #344]	; 2a4 <MRF_TileDraw+0x2a4>
 148:	e59d102c 	ldr	r1, [sp, #44]	; 0x2c
 14c:	e7900101 	ldr	r0, [r0, r1, lsl #2]
 150:	e59d1028 	ldr	r1, [sp, #40]	; 0x28
 154:	e0214197 	mla	r1, r7, r1, r4
 158:	e0800081 	add	r0, r0, r1, lsl #1
 15c:	e1d0c0b0 	ldrh	ip, [r0]
 160:	e59f0140 	ldr	r0, [pc, #320]	; 2a8 <MRF_TileDraw+0x2a8>
 164:	e1500b0c 	cmp	r0, ip, lsl #22
 168:	0a00002e 	beq	228 <MRF_TileDraw+0x228>
 16c:	e0209496 	mla	r0, r6, r4, r9
 170:	e1d510f8 	ldrsh	r1, [r5, #8]
 174:	e1a0e800 	lsl	lr, r0, #16
 178:	e020a798 	mla	r0, r8, r7, sl
 17c:	e1a0e84e 	asr	lr, lr, #16
 180:	e1a0b800 	lsl	fp, r0, #16
 184:	e08e0006 	add	r0, lr, r6
 188:	e1500001 	cmp	r0, r1
 18c:	a1d500fc 	ldrshge	r0, [r5, #12]
 190:	e1a0b84b 	asr	fp, fp, #16
 194:	a150000e 	cmpge	r0, lr
 198:	da000022 	ble	228 <MRF_TileDraw+0x228>
 19c:	e1d510fa 	ldrsh	r1, [r5, #10]
 1a0:	e08b0008 	add	r0, fp, r8
 1a4:	e1500001 	cmp	r0, r1
 1a8:	a1d500fe 	ldrshge	r0, [r5, #14]
 1ac:	a150000b 	cmpge	r0, fp
 1b0:	da00001c 	ble	228 <MRF_TileDraw+0x228>
 1b4:	e59d0034 	ldr	r0, [sp, #52]	; 0x34
 1b8:	e31c0b01 	tst	ip, #1024	; 0x400
 1bc:	e590000c 	ldr	r0, [r0, #12]
 1c0:	e3a01000 	mov	r1, #0
 1c4:	e58d0030 	str	r0, [sp, #48]	; 0x30
 1c8:	e1d000b0 	ldrh	r0, [r0]
 1cc:	e58d100c 	str	r1, [sp, #12]
 1d0:	e20c1b3f 	and	r1, ip, #64512	; 0xfc00
 1d4:	e58d0008 	str	r0, [sp, #8]
 1d8:	13a00006 	movne	r0, #6
 1dc:	03a00002 	moveq	r0, #2
 1e0:	e0810000 	add	r0, r1, r0
 1e4:	e1a03806 	lsl	r3, r6, #16
 1e8:	e1a03843 	asr	r3, r3, #16
 1ec:	e3cc1b3f 	bic	r1, ip, #64512	; 0xfc00
 1f0:	e58d3014 	str	r3, [sp, #20]
 1f4:	e0010196 	mul	r1, r6, r1
 1f8:	e3c03801 	bic	r3, r0, #65536	; 0x10000
 1fc:	e59d0030 	ldr	r0, [sp, #48]	; 0x30
 200:	e0010198 	mul	r1, r8, r1
 204:	e3a02000 	mov	r2, #0
 208:	e0800081 	add	r0, r0, r1, lsl #1
 20c:	e58d2010 	str	r2, [sp, #16]
 210:	e58d3004 	str	r3, [sp, #4]
 214:	e1a03006 	mov	r3, r6
 218:	e1a0200b 	mov	r2, fp
 21c:	e1a0100e 	mov	r1, lr
 220:	e58d8000 	str	r8, [sp]
 224:	ebfffffe 	bl	0 <MRF_TileDraw>
 228:	e2840001 	add	r0, r4, #1
 22c:	e3c04801 	bic	r4, r0, #65536	; 0x10000
 230:	e59d0020 	ldr	r0, [sp, #32]
 234:	e1540000 	cmp	r4, r0
 238:	3affffc1 	bcc	144 <MRF_TileDraw+0x144>
 23c:	e2870001 	add	r0, r7, #1
 240:	e3c07801 	bic	r7, r0, #65536	; 0x10000
 244:	e59d001c 	ldr	r0, [sp, #28]
 248:	e1570000 	cmp	r7, r0
 24c:	3affffb8 	bcc	134 <MRF_TileDraw+0x134>
 250:	e3a00000 	mov	r0, #0
 254:	e28dd03c 	add	sp, sp, #60	; 0x3c
 258:	e8bd8ff0 	pop	{r4, r5, r6, r7, r8, r9, sl, fp, pc}
 25c:	000002c8 	.word	0x000002c8
 260:	00000000 	.word	0x00000000
 264:	656c6954 	.word	0x656c6954
 268:	77617244 	.word	0x77617244
 26c:	6c69743a 	.word	0x6c69743a
 270:	6e692065 	.word	0x6e692065
 274:	20786564 	.word	0x20786564
 278:	2074756f 	.word	0x2074756f
 27c:	7220666f 	.word	0x7220666f
 280:	21676e61 	.word	0x21676e61
 284:	00000000 	.word	0x00000000
 288:	656c6954 	.word	0x656c6954
 28c:	77617244 	.word	0x77617244
 290:	6c69543a 	.word	0x6c69543a
 294:	64252065 	.word	0x64252065
 298:	20736920 	.word	0x20736920
 29c:	216c696e 	.word	0x216c696e
 2a0:	00000000 	.word	0x00000000
 2a4:	00000304 	.word	0x00000304
 2a8:	ffc00000 	.word	0xffc00000

Disassembly of section i.MRF_TileShift:

00000000 <MRF_TileShift>:
   0:	e92d41f0 	push	{r4, r5, r6, r7, r8, lr}
   4:	e1a05000 	mov	r5, r0
   8:	e3a01001 	mov	r1, #1
   c:	ebfffffe 	bl	0 <mrp_tonumber>
  10:	e1a04800 	lsl	r4, r0, #16
  14:	e1a04824 	lsr	r4, r4, #16
  18:	e1a00005 	mov	r0, r5
  1c:	e3a01002 	mov	r1, #2
  20:	ebfffffe 	bl	0 <mrp_tonumber>
  24:	e1a01800 	lsl	r1, r0, #16
  28:	e3540003 	cmp	r4, #3
  2c:	e1a01821 	lsr	r1, r1, #16
  30:	3a000005 	bcc	4c <MRF_TileShift+0x4c>
  34:	e28f1f45 	add	r1, pc, #276	; 0x114
  38:	e1a00005 	mov	r0, r5
  3c:	ebfffffe 	bl	0 <mrp_pushstring>
  40:	e1a00005 	mov	r0, r5
  44:	ebfffffe 	bl	0 <mrp_error>
  48:	ea00003e 	b	148 <MRF_TileShift+0x148>
  4c:	e59f7120 	ldr	r7, [pc, #288]	; 174 <MRF_TileShift+0x174>
  50:	e3510000 	cmp	r1, #0
  54:	e247003c 	sub	r0, r7, #60	; 0x3c
  58:	0a00000a 	beq	88 <MRF_TileShift+0x88>
  5c:	e3510001 	cmp	r1, #1
  60:	0a000012 	beq	b0 <MRF_TileShift+0xb0>
  64:	e3510002 	cmp	r1, #2
  68:	e3e08001 	mvn	r8, #1
  6c:	0a00001a 	beq	dc <MRF_TileShift+0xdc>
  70:	e3510003 	cmp	r1, #3
  74:	1a000033 	bne	148 <MRF_TileShift+0x148>
  78:	e0841104 	add	r1, r4, r4, lsl #2
  7c:	e0806101 	add	r6, r0, r1, lsl #2
  80:	e3a05000 	mov	r5, #0
  84:	ea00002c 	b	13c <MRF_TileShift+0x13c>
  88:	e0841104 	add	r1, r4, r4, lsl #2
  8c:	e0800101 	add	r0, r0, r1, lsl #2
  90:	e1d010b4 	ldrh	r1, [r0, #4]
  94:	e1d000b6 	ldrh	r0, [r0, #6]
  98:	e2400001 	sub	r0, r0, #1
  9c:	e0000091 	mul	r0, r1, r0
  a0:	e1a02080 	lsl	r2, r0, #1
  a4:	e7970104 	ldr	r0, [r7, r4, lsl #2]
  a8:	e0801081 	add	r1, r0, r1, lsl #1
  ac:	ea000008 	b	d4 <MRF_TileShift+0xd4>
  b0:	e0841104 	add	r1, r4, r4, lsl #2
  b4:	e0801101 	add	r1, r0, r1, lsl #2
  b8:	e1d100b4 	ldrh	r0, [r1, #4]
  bc:	e1d110b6 	ldrh	r1, [r1, #6]
  c0:	e2411001 	sub	r1, r1, #1
  c4:	e0010190 	mul	r1, r0, r1
  c8:	e1a02081 	lsl	r2, r1, #1
  cc:	e7971104 	ldr	r1, [r7, r4, lsl #2]
  d0:	e0810080 	add	r0, r1, r0, lsl #1
  d4:	ebfffffe 	bl	0 <__aeabi_memmove>
  d8:	ea00001a 	b	148 <MRF_TileShift+0x148>
  dc:	e0841104 	add	r1, r4, r4, lsl #2
  e0:	e0806101 	add	r6, r0, r1, lsl #2
  e4:	e3a05000 	mov	r5, #0
  e8:	ea000007 	b	10c <MRF_TileShift+0x10c>
  ec:	e1d620b4 	ldrh	r2, [r6, #4]
  f0:	e7970104 	ldr	r0, [r7, r4, lsl #2]
  f4:	e0010295 	mul	r1, r5, r2
  f8:	e0020298 	mul	r2, r8, r2
  fc:	e0800081 	add	r0, r0, r1, lsl #1
 100:	e2801002 	add	r1, r0, #2
 104:	ebfffffe 	bl	0 <__aeabi_memmove>
 108:	e2855001 	add	r5, r5, #1
 10c:	e1d600b6 	ldrh	r0, [r6, #6]
 110:	e1500005 	cmp	r0, r5
 114:	cafffff4 	bgt	ec <MRF_TileShift+0xec>
 118:	ea00000a 	b	148 <MRF_TileShift+0x148>
 11c:	e1d620b4 	ldrh	r2, [r6, #4]
 120:	e7970104 	ldr	r0, [r7, r4, lsl #2]
 124:	e0010295 	mul	r1, r5, r2
 128:	e0020298 	mul	r2, r8, r2
 12c:	e0801081 	add	r1, r0, r1, lsl #1
 130:	e2810002 	add	r0, r1, #2
 134:	ebfffffe 	bl	0 <__aeabi_memmove>
 138:	e2855001 	add	r5, r5, #1
 13c:	e1d600b6 	ldrh	r0, [r6, #6]
 140:	e1500005 	cmp	r0, r5
 144:	cafffff4 	bgt	11c <MRF_TileShift+0x11c>
 148:	e3a00000 	mov	r0, #0
 14c:	e8bd81f0 	pop	{r4, r5, r6, r7, r8, pc}
 150:	656c6954 	.word	0x656c6954
 154:	66696853 	.word	0x66696853
 158:	69743a74 	.word	0x69743a74
 15c:	6920656c 	.word	0x6920656c
 160:	7865646e 	.word	0x7865646e
 164:	74756f20 	.word	0x74756f20
 168:	20666f20 	.word	0x20666f20
 16c:	676e6172 	.word	0x676e6172
 170:	00000021 	.word	0x00000021
 174:	00000304 	.word	0x00000304

Disassembly of section i.MRF_TileLoad:

00000000 <MRF_TileLoad>:
   0:	e92d47fc 	push	{r2, r3, r4, r5, r6, r7, r8, r9, sl, lr}
   4:	e1a09000 	mov	r9, r0
   8:	e3a01001 	mov	r1, #1
   c:	ebfffffe 	bl	0 <mrp_tonumber>
  10:	e1a04800 	lsl	r4, r0, #16
  14:	e1a04824 	lsr	r4, r4, #16
  18:	e1a00009 	mov	r0, r9
  1c:	e3a01002 	mov	r1, #2
  20:	ebfffffe 	bl	0 <mrp_tostring>
  24:	e3540003 	cmp	r4, #3
  28:	e1a08000 	mov	r8, r0
  2c:	3a000003 	bcc	40 <MRF_TileLoad+0x40>
  30:	e28f10d8 	add	r1, pc, #216	; 0xd8
  34:	e1a00009 	mov	r0, r9
  38:	ebfffffe 	bl	0 <mrp_pushstring>
  3c:	ea000019 	b	a8 <MRF_TileLoad+0xa8>
  40:	e59f50ec 	ldr	r5, [pc, #236]	; 134 <MRF_TileLoad+0x134>
  44:	e3a06000 	mov	r6, #0
  48:	e7950104 	ldr	r0, [r5, r4, lsl #2]
  4c:	e245703c 	sub	r7, r5, #60	; 0x3c
  50:	e3500000 	cmp	r0, #0
  54:	0a000007 	beq	78 <MRF_TileLoad+0x78>
  58:	e0841104 	add	r1, r4, r4, lsl #2
  5c:	e0871101 	add	r1, r7, r1, lsl #2
  60:	e1d120b4 	ldrh	r2, [r1, #4]
  64:	e1d110b6 	ldrh	r1, [r1, #6]
  68:	e0010192 	mul	r1, r2, r1
  6c:	e1a01081 	lsl	r1, r1, #1
  70:	ebfffffe 	bl	0 <MRF_TileLoad>
  74:	e7856104 	str	r6, [r5, r4, lsl #2]
  78:	e3a02000 	mov	r2, #0
  7c:	e28d1004 	add	r1, sp, #4
  80:	e1a00008 	mov	r0, r8
  84:	ebfffffe 	bl	0 <MRF_TileLoad>
  88:	e3500000 	cmp	r0, #0
  8c:	e7850104 	str	r0, [r5, r4, lsl #2]
  90:	1a000007 	bne	b4 <MRF_TileLoad+0xb4>
  94:	e1a03008 	mov	r3, r8
  98:	e1a02004 	mov	r2, r4
  9c:	e28f1094 	add	r1, pc, #148	; 0x94
  a0:	e1a00009 	mov	r0, r9
  a4:	ebfffffe 	bl	0 <mrp_pushfstring>
  a8:	e1a00009 	mov	r0, r9
  ac:	ebfffffe 	bl	0 <mrp_error>
  b0:	ea000014 	b	108 <MRF_TileLoad+0x108>
  b4:	e0841104 	add	r1, r4, r4, lsl #2
  b8:	e0877101 	add	r7, r7, r1, lsl #2
  bc:	e1d710b4 	ldrh	r1, [r7, #4]
  c0:	e1d720b6 	ldrh	r2, [r7, #6]
  c4:	e0020291 	mul	r2, r1, r2
  c8:	e59d1004 	ldr	r1, [sp, #4]
  cc:	e1510082 	cmp	r1, r2, lsl #1
  d0:	0a00000c 	beq	108 <MRF_TileLoad+0x108>
  d4:	ebfffffe 	bl	0 <MRF_TileLoad>
  d8:	e1d700b4 	ldrh	r0, [r7, #4]
  dc:	e1d710b6 	ldrh	r1, [r7, #6]
  e0:	e1a02008 	mov	r2, r8
  e4:	e0000091 	mul	r0, r1, r0
  e8:	e28f1068 	add	r1, pc, #104	; 0x68
  ec:	e1a03080 	lsl	r3, r0, #1
  f0:	e58d3000 	str	r3, [sp]
  f4:	e59d3004 	ldr	r3, [sp, #4]
  f8:	e1a00009 	mov	r0, r9
  fc:	ebfffffe 	bl	0 <mrp_pushfstring>
 100:	e7856104 	str	r6, [r5, r4, lsl #2]
 104:	eaffffe7 	b	a8 <MRF_TileLoad+0xa8>
 108:	e3a00000 	mov	r0, #0
 10c:	e8bd87fc 	pop	{r2, r3, r4, r5, r6, r7, r8, r9, sl, pc}
 110:	656c6954 	.word	0x656c6954
 114:	64616f4c 	.word	0x64616f4c
 118:	6c69743a 	.word	0x6c69743a
 11c:	6e692065 	.word	0x6e692065
 120:	20786564 	.word	0x20786564
 124:	2074756f 	.word	0x2074756f
 128:	7220666f 	.word	0x7220666f
 12c:	21676e61 	.word	0x21676e61
 130:	00000000 	.word	0x00000000
 134:	00000304 	.word	0x00000304
 138:	656c6954 	.word	0x656c6954
 13c:	64616f4c 	.word	0x64616f4c
 140:	3a642520 	.word	0x3a642520
 144:	6e6e6163 	.word	0x6e6e6163
 148:	7220746f 	.word	0x7220746f
 14c:	20646165 	.word	0x20646165
 150:	22732522 	.word	0x22732522
 154:	00000021 	.word	0x00000021
 158:	656c6954 	.word	0x656c6954
 15c:	64616f4c 	.word	0x64616f4c
 160:	614d203a 	.word	0x614d203a
 164:	69662070 	.word	0x69662070
 168:	2220656c 	.word	0x2220656c
 16c:	20227325 	.word	0x20227325
 170:	206e656c 	.word	0x206e656c
 174:	20727265 	.word	0x20727265
 178:	25206425 	.word	0x25206425
 17c:	00212064 	.word	0x00212064

Disassembly of section i.MRF_GetTile:

00000000 <MRF_GetTile>:
   0:	e92d4070 	push	{r4, r5, r6, lr}
   4:	e1a06000 	mov	r6, r0
   8:	e3a01001 	mov	r1, #1
   c:	ebfffffe 	bl	0 <mrp_tonumber>
  10:	e1a04800 	lsl	r4, r0, #16
  14:	e1a04824 	lsr	r4, r4, #16
  18:	e1a00006 	mov	r0, r6
  1c:	e3a01002 	mov	r1, #2
  20:	ebfffffe 	bl	0 <mrp_tonumber>
  24:	e1a05800 	lsl	r5, r0, #16
  28:	e1a05825 	lsr	r5, r5, #16
  2c:	e1a00006 	mov	r0, r6
  30:	e3a01003 	mov	r1, #3
  34:	ebfffffe 	bl	0 <mrp_tonumber>
  38:	e1a00800 	lsl	r0, r0, #16
  3c:	e3540003 	cmp	r4, #3
  40:	e1a00820 	lsr	r0, r0, #16
  44:	3a000003 	bcc	58 <MRF_GetTile+0x58>
  48:	e28f107c 	add	r1, pc, #124	; 0x7c
  4c:	e1a00006 	mov	r0, r6
  50:	ebfffffe 	bl	0 <mrp_pushstring>
  54:	ea000011 	b	a0 <MRF_GetTile+0xa0>
  58:	e59f108c 	ldr	r1, [pc, #140]	; ec <MRF_GetTile+0xec>
  5c:	e7911104 	ldr	r1, [r1, r4, lsl #2]
  60:	e3510000 	cmp	r1, #0
  64:	01a02004 	moveq	r2, r4
  68:	028f1080 	addeq	r1, pc, #128	; 0x80
  6c:	0a000009 	beq	98 <MRF_GetTile+0x98>
  70:	e59f2090 	ldr	r2, [pc, #144]	; 108 <MRF_GetTile+0x108>
  74:	e0843104 	add	r3, r4, r4, lsl #2
  78:	e0822103 	add	r2, r2, r3, lsl #2
  7c:	e1d230b6 	ldrh	r3, [r2, #6]
  80:	e1530000 	cmp	r3, r0
  84:	21d220b4 	ldrhcs	r2, [r2, #4]
  88:	21520005 	cmpcs	r2, r5
  8c:	2a000007 	bcs	b0 <MRF_GetTile+0xb0>
  90:	e1a02004 	mov	r2, r4
  94:	e28f1070 	add	r1, pc, #112	; 0x70
  98:	e1a00006 	mov	r0, r6
  9c:	ebfffffe 	bl	0 <mrp_pushfstring>
  a0:	e1a00006 	mov	r0, r6
  a4:	ebfffffe 	bl	0 <mrp_error>
  a8:	e3a00000 	mov	r0, #0
  ac:	e8bd8070 	pop	{r4, r5, r6, pc}
  b0:	e0205092 	mla	r0, r2, r0, r5
  b4:	e0810080 	add	r0, r1, r0, lsl #1
  b8:	e1d010f0 	ldrsh	r1, [r0]
  bc:	e1a00006 	mov	r0, r6
  c0:	ebfffffe 	bl	0 <to_mr_pushnumber>
  c4:	e3a00001 	mov	r0, #1
  c8:	e8bd8070 	pop	{r4, r5, r6, pc}
  cc:	54746547 	.word	0x54746547
  d0:	3a656c69 	.word	0x3a656c69
  d4:	656c6974 	.word	0x656c6974
  d8:	646e6920 	.word	0x646e6920
  dc:	6f207865 	.word	0x6f207865
  e0:	6f207475 	.word	0x6f207475
  e4:	61722066 	.word	0x61722066
  e8:	0021676e 	.word	0x0021676e
  ec:	00000304 	.word	0x00000304
  f0:	54746547 	.word	0x54746547
  f4:	20656c69 	.word	0x20656c69
  f8:	743a6425 	.word	0x743a6425
  fc:	20656c69 	.word	0x20656c69
 100:	6e207369 	.word	0x6e207369
 104:	00216c69 	.word	0x00216c69
 108:	000002c8 	.word	0x000002c8
 10c:	54746547 	.word	0x54746547
 110:	20656c69 	.word	0x20656c69
 114:	7265766f 	.word	0x7265766f
 118:	776f6c66 	.word	0x776f6c66
 11c:	00000021 	.word	0x00000021

Disassembly of section i.MRF_SetTile:

00000000 <MRF_SetTile>:
   0:	e92d41f0 	push	{r4, r5, r6, r7, r8, lr}
   4:	e1a07000 	mov	r7, r0
   8:	e3a01001 	mov	r1, #1
   c:	ebfffffe 	bl	0 <mrp_tonumber>
  10:	e1a04800 	lsl	r4, r0, #16
  14:	e1a04824 	lsr	r4, r4, #16
  18:	e1a00007 	mov	r0, r7
  1c:	e3a01002 	mov	r1, #2
  20:	ebfffffe 	bl	0 <mrp_tonumber>
  24:	e1a05800 	lsl	r5, r0, #16
  28:	e1a05825 	lsr	r5, r5, #16
  2c:	e1a00007 	mov	r0, r7
  30:	e3a01003 	mov	r1, #3
  34:	ebfffffe 	bl	0 <mrp_tonumber>
  38:	e1a06800 	lsl	r6, r0, #16
  3c:	e1a06826 	lsr	r6, r6, #16
  40:	e1a00007 	mov	r0, r7
  44:	e3a01004 	mov	r1, #4
  48:	ebfffffe 	bl	0 <mrp_tonumber>
  4c:	e1a00800 	lsl	r0, r0, #16
  50:	e3540003 	cmp	r4, #3
  54:	e1a00820 	lsr	r0, r0, #16
  58:	3a000003 	bcc	6c <MRF_SetTile+0x6c>
  5c:	e28f106c 	add	r1, pc, #108	; 0x6c
  60:	e1a00007 	mov	r0, r7
  64:	ebfffffe 	bl	0 <mrp_pushstring>
  68:	ea000014 	b	c0 <MRF_SetTile+0xc0>
  6c:	e59f107c 	ldr	r1, [pc, #124]	; f0 <MRF_SetTile+0xf0>
  70:	e7911104 	ldr	r1, [r1, r4, lsl #2]
  74:	e3510000 	cmp	r1, #0
  78:	01a02004 	moveq	r2, r4
  7c:	028f1070 	addeq	r1, pc, #112	; 0x70
  80:	0a00000c 	beq	b8 <MRF_SetTile+0xb8>
  84:	e59f2080 	ldr	r2, [pc, #128]	; 10c <MRF_SetTile+0x10c>
  88:	e0843104 	add	r3, r4, r4, lsl #2
  8c:	e0822103 	add	r2, r2, r3, lsl #2
  90:	e1d230b6 	ldrh	r3, [r2, #6]
  94:	e1530006 	cmp	r3, r6
  98:	21d220b4 	ldrhcs	r2, [r2, #4]
  9c:	21520005 	cmpcs	r2, r5
  a0:	20225296 	mlacs	r2, r6, r2, r5
  a4:	20811082 	addcs	r1, r1, r2, lsl #1
  a8:	21c100b0 	strhcs	r0, [r1]
  ac:	2a000005 	bcs	c8 <MRF_SetTile+0xc8>
  b0:	e1a02004 	mov	r2, r4
  b4:	e28f1054 	add	r1, pc, #84	; 0x54
  b8:	e1a00007 	mov	r0, r7
  bc:	ebfffffe 	bl	0 <mrp_pushfstring>
  c0:	e1a00007 	mov	r0, r7
  c4:	ebfffffe 	bl	0 <mrp_error>
  c8:	e3a00000 	mov	r0, #0
  cc:	e8bd81f0 	pop	{r4, r5, r6, r7, r8, pc}
  d0:	54746553 	.word	0x54746553
  d4:	3a656c69 	.word	0x3a656c69
  d8:	656c6974 	.word	0x656c6974
  dc:	646e6920 	.word	0x646e6920
  e0:	6f207865 	.word	0x6f207865
  e4:	6f207475 	.word	0x6f207475
  e8:	61722066 	.word	0x61722066
  ec:	0021676e 	.word	0x0021676e
  f0:	00000304 	.word	0x00000304
  f4:	54746553 	.word	0x54746553
  f8:	20656c69 	.word	0x20656c69
  fc:	743a6425 	.word	0x743a6425
 100:	20656c69 	.word	0x20656c69
 104:	6e207369 	.word	0x6e207369
 108:	00216c69 	.word	0x00216c69
 10c:	000002c8 	.word	0x000002c8
 110:	54746553 	.word	0x54746553
 114:	20656c69 	.word	0x20656c69
 118:	6f206425 	.word	0x6f206425
 11c:	66726576 	.word	0x66726576
 120:	21776f6c 	.word	0x21776f6c
 124:	00000000 	.word	0x00000000

Disassembly of section i.MRF_ClearScreen:

00000000 <MRF_ClearScreen>:
   0:	e92d40fe 	push	{r1, r2, r3, r4, r5, r6, r7, lr}
   4:	e1a04000 	mov	r4, r0
   8:	e3a01001 	mov	r1, #1
   c:	ebfffffe 	bl	0 <mrp_tonumber>
  10:	e1a05000 	mov	r5, r0
  14:	e1a00004 	mov	r0, r4
  18:	e3a01002 	mov	r1, #2
  1c:	ebfffffe 	bl	0 <mrp_tonumber>
  20:	e1a06000 	mov	r6, r0
  24:	e1a00004 	mov	r0, r4
  28:	e3a01003 	mov	r1, #3
  2c:	ebfffffe 	bl	0 <mrp_tonumber>
  30:	e20030ff 	and	r3, r0, #255	; 0xff
  34:	e20620ff 	and	r2, r6, #255	; 0xff
  38:	e20510ff 	and	r1, r5, #255	; 0xff
  3c:	e59f002c 	ldr	r0, [pc, #44]	; 70 <MRF_ClearScreen+0x70>
  40:	e88d000e 	stm	sp, {r1, r2, r3}
  44:	e5901048 	ldr	r1, [r0, #72]	; 0x48
  48:	e5900044 	ldr	r0, [r0, #68]	; 0x44
  4c:	e1a03801 	lsl	r3, r1, #16
  50:	e1a02800 	lsl	r2, r0, #16
  54:	e1a02842 	asr	r2, r2, #16
  58:	e3a00000 	mov	r0, #0
  5c:	e1a03843 	asr	r3, r3, #16
  60:	e3a01000 	mov	r1, #0
  64:	ebfffffe 	bl	0 <MRF_ClearScreen>
  68:	e3a00000 	mov	r0, #0
  6c:	e8bd80fe 	pop	{r1, r2, r3, r4, r5, r6, r7, pc}
  70:	00000000 	.word	0x00000000

Disassembly of section i.MRF_EffSetCon:

00000000 <MRF_EffSetCon>:
   0:	e92d4ffe 	push	{r1, r2, r3, r4, r5, r6, r7, r8, r9, sl, fp, lr}
   4:	e1a0a000 	mov	sl, r0
   8:	e3a02000 	mov	r2, #0
   c:	e3a01001 	mov	r1, #1
  10:	ebfffffe 	bl	0 <to_mr_tonumber>
  14:	e1a04800 	lsl	r4, r0, #16
  18:	e1a04844 	asr	r4, r4, #16
  1c:	e1a0000a 	mov	r0, sl
  20:	e3a02000 	mov	r2, #0
  24:	e3a01002 	mov	r1, #2
  28:	ebfffffe 	bl	0 <to_mr_tonumber>
  2c:	e1a05800 	lsl	r5, r0, #16
  30:	e1a05845 	asr	r5, r5, #16
  34:	e1a0000a 	mov	r0, sl
  38:	e3a02000 	mov	r2, #0
  3c:	e3a01003 	mov	r1, #3
  40:	ebfffffe 	bl	0 <to_mr_tonumber>
  44:	e1a06800 	lsl	r6, r0, #16
  48:	e1a06846 	asr	r6, r6, #16
  4c:	e1a0000a 	mov	r0, sl
  50:	e3a02000 	mov	r2, #0
  54:	e3a01004 	mov	r1, #4
  58:	ebfffffe 	bl	0 <to_mr_tonumber>
  5c:	e1a07800 	lsl	r7, r0, #16
  60:	e1a07847 	asr	r7, r7, #16
  64:	e1a0000a 	mov	r0, sl
  68:	e3a02000 	mov	r2, #0
  6c:	e3a01005 	mov	r1, #5
  70:	ebfffffe 	bl	0 <to_mr_tonumber>
  74:	e1a08800 	lsl	r8, r0, #16
  78:	e1a08848 	asr	r8, r8, #16
  7c:	e1a0000a 	mov	r0, sl
  80:	e3a02000 	mov	r2, #0
  84:	e3a01006 	mov	r1, #6
  88:	ebfffffe 	bl	0 <to_mr_tonumber>
  8c:	e1a09800 	lsl	r9, r0, #16
  90:	e1a09849 	asr	r9, r9, #16
  94:	e1a0000a 	mov	r0, sl
  98:	e3a02000 	mov	r2, #0
  9c:	e3a01007 	mov	r1, #7
  a0:	ebfffffe 	bl	0 <to_mr_tonumber>
  a4:	e1a03800 	lsl	r3, r0, #16
  a8:	e1a03843 	asr	r3, r3, #16
  ac:	e58d3008 	str	r3, [sp, #8]
  b0:	e1a03007 	mov	r3, r7
  b4:	e1a00004 	mov	r0, r4
  b8:	e1a02006 	mov	r2, r6
  bc:	e1a01005 	mov	r1, r5
  c0:	e1cd80f0 	strd	r8, [sp]
  c4:	ebfffffe 	bl	0 <MRF_EffSetCon>
  c8:	e8bd8ffe 	pop	{r1, r2, r3, r4, r5, r6, r7, r8, r9, sl, fp, pc}

Disassembly of section i.MRF_GetRand:

00000000 <MRF_GetRand>:
   0:	e92d4070 	push	{r4, r5, r6, lr}
   4:	e1a05000 	mov	r5, r0
   8:	e3a01001 	mov	r1, #1
   c:	ebfffffe 	bl	0 <mrp_tonumber>
  10:	e1a04000 	mov	r4, r0
  14:	ebfffffe 	bl	0 <rand>
  18:	e1a01004 	mov	r1, r4
  1c:	ebfffffe 	bl	0 <__aeabi_idivmod>
  20:	e1a00005 	mov	r0, r5
  24:	ebfffffe 	bl	0 <to_mr_pushnumber>
  28:	e3a00001 	mov	r0, #1
  2c:	e8bd8070 	pop	{r4, r5, r6, pc}

Disassembly of section i.MRF_mod:

00000000 <MRF_mod>:
   0:	e92d4070 	push	{r4, r5, r6, lr}
   4:	e1a05000 	mov	r5, r0
   8:	e3a01001 	mov	r1, #1
   c:	ebfffffe 	bl	0 <mrp_tonumber>
  10:	e1a04000 	mov	r4, r0
  14:	e1a00005 	mov	r0, r5
  18:	e3a01002 	mov	r1, #2
  1c:	ebfffffe 	bl	0 <mrp_tonumber>
  20:	e1a01000 	mov	r1, r0
  24:	e1a00004 	mov	r0, r4
  28:	ebfffffe 	bl	0 <__aeabi_idivmod>
  2c:	e1a00005 	mov	r0, r5
  30:	ebfffffe 	bl	0 <mrp_pushnumber>
  34:	e3a00001 	mov	r0, #1
  38:	e8bd8070 	pop	{r4, r5, r6, pc}

Disassembly of section i.MRF_and:

00000000 <MRF_and>:
   0:	e92d4070 	push	{r4, r5, r6, lr}
   4:	e1a04000 	mov	r4, r0
   8:	e3a01001 	mov	r1, #1
   c:	ebfffffe 	bl	0 <mrp_tonumber>
  10:	e1a05000 	mov	r5, r0
  14:	e1a00004 	mov	r0, r4
  18:	e3a01002 	mov	r1, #2
  1c:	ebfffffe 	bl	0 <mrp_tonumber>
  20:	e0051000 	and	r1, r5, r0
  24:	e1a00004 	mov	r0, r4
  28:	ebfffffe 	bl	0 <mrp_pushnumber>
  2c:	e3a00001 	mov	r0, #1
  30:	e8bd8070 	pop	{r4, r5, r6, pc}

Disassembly of section i.MRF_or:

00000000 <MRF_or>:
   0:	e92d4070 	push	{r4, r5, r6, lr}
   4:	e1a04000 	mov	r4, r0
   8:	e3a01001 	mov	r1, #1
   c:	ebfffffe 	bl	0 <mrp_tonumber>
  10:	e1a05000 	mov	r5, r0
  14:	e1a00004 	mov	r0, r4
  18:	e3a01002 	mov	r1, #2
  1c:	ebfffffe 	bl	0 <mrp_tonumber>
  20:	e1851000 	orr	r1, r5, r0
  24:	e1a00004 	mov	r0, r4
  28:	ebfffffe 	bl	0 <mrp_pushnumber>
  2c:	e3a00001 	mov	r0, #1
  30:	e8bd8070 	pop	{r4, r5, r6, pc}

Disassembly of section i.MRF_not:

00000000 <MRF_not>:
   0:	e92d4010 	push	{r4, lr}
   4:	e1a04000 	mov	r4, r0
   8:	e3a01001 	mov	r1, #1
   c:	ebfffffe 	bl	0 <mrp_tonumber>
  10:	e2701001 	rsbs	r1, r0, #1
  14:	33a01000 	movcc	r1, #0
  18:	e1a00004 	mov	r0, r4
  1c:	ebfffffe 	bl	0 <mrp_pushnumber>
  20:	e3a00001 	mov	r0, #1
  24:	e8bd8010 	pop	{r4, pc}

Disassembly of section i.MRF_xor:

00000000 <MRF_xor>:
   0:	e92d4070 	push	{r4, r5, r6, lr}
   4:	e1a04000 	mov	r4, r0
   8:	e3a01001 	mov	r1, #1
   c:	ebfffffe 	bl	0 <mrp_tonumber>
  10:	e1a05000 	mov	r5, r0
  14:	e1a00004 	mov	r0, r4
  18:	e3a01002 	mov	r1, #2
  1c:	ebfffffe 	bl	0 <mrp_tonumber>
  20:	e0251000 	eor	r1, r5, r0
  24:	e1a00004 	mov	r0, r4
  28:	ebfffffe 	bl	0 <mrp_pushnumber>
  2c:	e3a00001 	mov	r0, #1
  30:	e8bd8070 	pop	{r4, r5, r6, pc}

Disassembly of section i.SoundSet:

00000000 <SoundSet>:
   0:	e92d4ff8 	push	{r3, r4, r5, r6, r7, r8, r9, sl, fp, lr}
   4:	e3510005 	cmp	r1, #5
   8:	e1a0a000 	mov	sl, r0
   c:	e1a09003 	mov	r9, r3
  10:	e1a08002 	mov	r8, r2
  14:	e1a07001 	mov	r7, r1
  18:	3a000005 	bcc	34 <SoundSet+0x34>
  1c:	e1a02007 	mov	r2, r7
  20:	e28f1088 	add	r1, pc, #136	; 0x88
  24:	e1a0000a 	mov	r0, sl
  28:	ebfffffe 	bl	0 <mrp_pushfstring>
  2c:	e1a0000a 	mov	r0, sl
  30:	ebfffffe 	bl	0 <mrp_error>
  34:	e59f6090 	ldr	r6, [pc, #144]	; cc <SoundSet+0xcc>
  38:	e0874087 	add	r4, r7, r7, lsl #1
  3c:	e7960104 	ldr	r0, [r6, r4, lsl #2]
  40:	e2861000 	add	r1, r6, #0
  44:	e3500000 	cmp	r0, #0
  48:	e0815104 	add	r5, r1, r4, lsl #2
  4c:	0a000003 	beq	60 <SoundSet+0x60>
  50:	e5951004 	ldr	r1, [r5, #4]
  54:	ebfffffe 	bl	0 <SoundSet>
  58:	e3a00000 	mov	r0, #0
  5c:	e7860104 	str	r0, [r6, r4, lsl #2]
  60:	e5d80000 	ldrb	r0, [r8]
  64:	e350002a 	cmp	r0, #42	; 0x2a
  68:	0a00000f 	beq	ac <SoundSet+0xac>
  6c:	e3a02000 	mov	r2, #0
  70:	e1a0100d 	mov	r1, sp
  74:	e1a00008 	mov	r0, r8
  78:	ebfffffe 	bl	0 <SoundSet>
  7c:	e3500000 	cmp	r0, #0
  80:	17860104 	strne	r0, [r6, r4, lsl #2]
  84:	159d0000 	ldrne	r0, [sp]
  88:	19850201 	stmibne	r5, {r0, r9}
  8c:	1a000006 	bne	ac <SoundSet+0xac>
  90:	e1a03008 	mov	r3, r8
  94:	e1a02007 	mov	r2, r7
  98:	e28f1030 	add	r1, pc, #48	; 0x30
  9c:	e1a0000a 	mov	r0, sl
  a0:	ebfffffe 	bl	0 <mrp_pushfstring>
  a4:	e1a0000a 	mov	r0, sl
  a8:	ebfffffe 	bl	0 <mrp_error>
  ac:	e8bd8ff8 	pop	{r3, r4, r5, r6, r7, r8, r9, sl, fp, pc}
  b0:	6e756f53 	.word	0x6e756f53
  b4:	74655364 	.word	0x74655364
  b8:	6e693a20 	.word	0x6e693a20
  bc:	20786564 	.word	0x20786564
  c0:	69206425 	.word	0x69206425
  c4:	6c61766e 	.word	0x6c61766e
  c8:	00216469 	.word	0x00216469
  cc:	00000310 	.word	0x00000310
  d0:	6e756f53 	.word	0x6e756f53
  d4:	74655364 	.word	0x74655364
  d8:	3a642520 	.word	0x3a642520
  dc:	6e6e6163 	.word	0x6e6e6163
  e0:	7220746f 	.word	0x7220746f
  e4:	20646165 	.word	0x20646165
  e8:	22732522 	.word	0x22732522
  ec:	00000021 	.word	0x00000021

Disassembly of section i.MRF_SoundSet:

00000000 <MRF_SoundSet>:
   0:	e92d4070 	push	{r4, r5, r6, lr}
   4:	e1a06000 	mov	r6, r0
   8:	e3a02000 	mov	r2, #0
   c:	e3a01001 	mov	r1, #1
  10:	ebfffffe 	bl	0 <to_mr_tonumber>
  14:	e1a04800 	lsl	r4, r0, #16
  18:	e1a04824 	lsr	r4, r4, #16
  1c:	e1a00006 	mov	r0, r6
  20:	e3a02000 	mov	r2, #0
  24:	e3a01002 	mov	r1, #2
  28:	ebfffffe 	bl	0 <to_mr_tostring>
  2c:	e1a05000 	mov	r5, r0
  30:	e1a00006 	mov	r0, r6
  34:	e3a02001 	mov	r2, #1
  38:	e3a01003 	mov	r1, #3
  3c:	ebfffffe 	bl	0 <to_mr_tonumber>
  40:	e1a03000 	mov	r3, r0
  44:	e1a00006 	mov	r0, r6
  48:	e1a02005 	mov	r2, r5
  4c:	e1a01004 	mov	r1, r4
  50:	ebfffffe 	bl	0 <MRF_SoundSet>
  54:	e3a00000 	mov	r0, #0
  58:	e8bd8070 	pop	{r4, r5, r6, pc}

Disassembly of section i.MRF_SoundPlay:

00000000 <MRF_SoundPlay>:
   0:	e92d4070 	push	{r4, r5, r6, lr}
   4:	e1a05000 	mov	r5, r0
   8:	e3a02000 	mov	r2, #0
   c:	e3a01001 	mov	r1, #1
  10:	ebfffffe 	bl	0 <to_mr_tonumber>
  14:	e1a04800 	lsl	r4, r0, #16
  18:	e1a04824 	lsr	r4, r4, #16
  1c:	e1a00005 	mov	r0, r5
  20:	e3a02000 	mov	r2, #0
  24:	e3a01002 	mov	r1, #2
  28:	ebfffffe 	bl	0 <to_mr_toboolean>
  2c:	e3540005 	cmp	r4, #5
  30:	e1a03000 	mov	r3, r0
  34:	3a000006 	bcc	54 <MRF_SoundPlay+0x54>
  38:	e1a02004 	mov	r2, r4
  3c:	e28f1050 	add	r1, pc, #80	; 0x50
  40:	e1a00005 	mov	r0, r5
  44:	ebfffffe 	bl	0 <mrp_pushfstring>
  48:	e1a00005 	mov	r0, r5
  4c:	ebfffffe 	bl	0 <mrp_error>
  50:	ea00000d 	b	8c <MRF_SoundPlay+0x8c>
  54:	e59f1054 	ldr	r1, [pc, #84]	; b0 <MRF_SoundPlay+0xb0>
  58:	e5910004 	ldr	r0, [r1, #4]
  5c:	e3500001 	cmp	r0, #1
  60:	1a000009 	bne	8c <MRF_SoundPlay+0x8c>
  64:	e5d10000 	ldrb	r0, [r1]
  68:	e3500000 	cmp	r0, #0
  6c:	0a000006 	beq	8c <MRF_SoundPlay+0x8c>
  70:	e59fc03c 	ldr	ip, [pc, #60]	; b4 <MRF_SoundPlay+0xb4>
  74:	e0841084 	add	r1, r4, r4, lsl #1
  78:	e08c0101 	add	r0, ip, r1, lsl #2
  7c:	e5902004 	ldr	r2, [r0, #4]
  80:	e5900008 	ldr	r0, [r0, #8]
  84:	e79c1101 	ldr	r1, [ip, r1, lsl #2]
  88:	ebfffffe 	bl	0 <mr_playSound>
  8c:	e3a00000 	mov	r0, #0
  90:	e8bd8070 	pop	{r4, r5, r6, pc}
  94:	6e756f53 	.word	0x6e756f53
  98:	616c5064 	.word	0x616c5064
  9c:	6e693a79 	.word	0x6e693a79
  a0:	20786564 	.word	0x20786564
  a4:	69206425 	.word	0x69206425
  a8:	6c61766e 	.word	0x6c61766e
  ac:	00216469 	.word	0x00216469
  b0:	00000000 	.word	0x00000000
  b4:	00000310 	.word	0x00000310

Disassembly of section i.MRF_SoundStop:

00000000 <MRF_SoundStop>:
   0:	e92d4010 	push	{r4, lr}
   4:	e1a04000 	mov	r4, r0
   8:	e3a02000 	mov	r2, #0
   c:	e3a01001 	mov	r1, #1
  10:	ebfffffe 	bl	0 <to_mr_tonumber>
  14:	e1a02800 	lsl	r2, r0, #16
  18:	e1a02822 	lsr	r2, r2, #16
  1c:	e3520005 	cmp	r2, #5
  20:	3a000005 	bcc	3c <MRF_SoundStop+0x3c>
  24:	e28f102c 	add	r1, pc, #44	; 0x2c
  28:	e1a00004 	mov	r0, r4
  2c:	ebfffffe 	bl	0 <mrp_pushfstring>
  30:	e1a00004 	mov	r0, r4
  34:	ebfffffe 	bl	0 <mrp_error>
  38:	ea000004 	b	50 <MRF_SoundStop+0x50>
  3c:	e59f1030 	ldr	r1, [pc, #48]	; 74 <MRF_SoundStop+0x74>
  40:	e0820082 	add	r0, r2, r2, lsl #1
  44:	e0810100 	add	r0, r1, r0, lsl #2
  48:	e5900008 	ldr	r0, [r0, #8]
  4c:	ebfffffe 	bl	0 <mr_stopSound>
  50:	e3a00000 	mov	r0, #0
  54:	e8bd8010 	pop	{r4, pc}
  58:	6e756f53 	.word	0x6e756f53
  5c:	6f745364 	.word	0x6f745364
  60:	6e693a70 	.word	0x6e693a70
  64:	20786564 	.word	0x20786564
  68:	69206425 	.word	0x69206425
  6c:	6c61766e 	.word	0x6c61766e
  70:	00216469 	.word	0x00216469
  74:	00000310 	.word	0x00000310

Disassembly of section i.MRF_BgMusicSet:

00000000 <MRF_BgMusicSet>:
   0:	e92d4070 	push	{r4, r5, r6, lr}
   4:	e1a05000 	mov	r5, r0
   8:	e3a02000 	mov	r2, #0
   c:	e3a01001 	mov	r1, #1
  10:	ebfffffe 	bl	0 <to_mr_tostring>
  14:	e1a04000 	mov	r4, r0
  18:	e1a00005 	mov	r0, r5
  1c:	e3a02000 	mov	r2, #0
  20:	e3a01002 	mov	r1, #2
  24:	ebfffffe 	bl	0 <to_mr_tonumber>
  28:	e1a03000 	mov	r3, r0
  2c:	e1a00005 	mov	r0, r5
  30:	e1a02004 	mov	r2, r4
  34:	e3a01000 	mov	r1, #0
  38:	ebfffffe 	bl	0 <MRF_BgMusicSet>
  3c:	e3a00000 	mov	r0, #0
  40:	e8bd8070 	pop	{r4, r5, r6, pc}

Disassembly of section i.MRF_BgMusicStart:

00000000 <MRF_BgMusicStart>:
   0:	e92d4010 	push	{r4, lr}
   4:	e3a02001 	mov	r2, #1
   8:	e3a01001 	mov	r1, #1
   c:	ebfffffe 	bl	0 <to_mr_toboolean>
  10:	e59f102c 	ldr	r1, [pc, #44]	; 44 <MRF_BgMusicStart+0x44>
  14:	e1a03000 	mov	r3, r0
  18:	e5910004 	ldr	r0, [r1, #4]
  1c:	e3500001 	cmp	r0, #1
  20:	1a000005 	bne	3c <MRF_BgMusicStart+0x3c>
  24:	e5d10000 	ldrb	r0, [r1]
  28:	e3500000 	cmp	r0, #0
  2c:	159f0014 	ldrne	r0, [pc, #20]	; 48 <MRF_BgMusicStart+0x48>
  30:	18900006 	ldmne	r0, {r1, r2}
  34:	15900008 	ldrne	r0, [r0, #8]
  38:	1bfffffe 	blne	0 <mr_playSound>
  3c:	e3a00000 	mov	r0, #0
  40:	e8bd8010 	pop	{r4, pc}
  44:	00000000 	.word	0x00000000
  48:	00000310 	.word	0x00000310

Disassembly of section i.MRF_BgMusicStop:

00000000 <MRF_BgMusicStop>:
   0:	e59f0010 	ldr	r0, [pc, #16]	; 18 <MRF_BgMusicStop+0x18>
   4:	e92d4010 	push	{r4, lr}
   8:	e5900008 	ldr	r0, [r0, #8]
   c:	ebfffffe 	bl	0 <mr_stopSound>
  10:	e3a00000 	mov	r0, #0
  14:	e8bd8010 	pop	{r4, pc}
  18:	00000310 	.word	0x00000310

Disassembly of section i.mr_strncpy:

00000000 <mr_strncpy>:
   0:	e3500000 	cmp	r0, #0
   4:	13510000 	cmpne	r1, #0
   8:	e92d4010 	push	{r4, lr}
   c:	13520000 	cmpne	r2, #0
  10:	18bd4010 	popne	{r4, lr}
  14:	1afffffe 	bne	0 <strncpy>
  18:	e1a03002 	mov	r3, r2
  1c:	e1a02001 	mov	r2, r1
  20:	e1a01000 	mov	r1, r0
  24:	e59f0008 	ldr	r0, [pc, #8]	; 34 <mr_strncpy+0x34>
  28:	ebfffffe 	bl	0 <mr_printf>
  2c:	e3a00000 	mov	r0, #0
  30:	e8bd8010 	pop	{r4, pc}
  34:	00000088 	.word	0x00000088

Disassembly of section i.MRF_Exit:

00000000 <MRF_Exit>:
   0:	e92d4070 	push	{r4, r5, r6, lr}
   4:	e1a05000 	mov	r5, r0
   8:	e59f0090 	ldr	r0, [pc, #144]	; a0 <MRF_Exit+0xa0>
   c:	e59f4090 	ldr	r4, [pc, #144]	; a4 <MRF_Exit+0xa4>
  10:	e5d00000 	ldrb	r0, [r0]
  14:	e3500000 	cmp	r0, #0
  18:	0a000016 	beq	78 <MRF_Exit+0x78>
  1c:	e59f0084 	ldr	r0, [pc, #132]	; a8 <MRF_Exit+0xa8>
  20:	e3a01080 	mov	r1, #128	; 0x80
  24:	ebfffffe 	bl	0 <__aeabi_memclr4>
  28:	e59f1070 	ldr	r1, [pc, #112]	; a0 <MRF_Exit+0xa0>
  2c:	e3a0207f 	mov	r2, #127	; 0x7f
  30:	e2410d06 	sub	r0, r1, #384	; 0x180
  34:	ebfffffe 	bl	0 <MRF_Exit>
  38:	e59f006c 	ldr	r0, [pc, #108]	; ac <MRF_Exit+0xac>
  3c:	e3a01080 	mov	r1, #128	; 0x80
  40:	ebfffffe 	bl	0 <__aeabi_memclr4>
  44:	e59f1064 	ldr	r1, [pc, #100]	; b0 <MRF_Exit+0xb0>
  48:	e3a0207f 	mov	r2, #127	; 0x7f
  4c:	e2410d06 	sub	r0, r1, #384	; 0x180
  50:	ebfffffe 	bl	0 <MRF_Exit>
  54:	e28f0058 	add	r0, pc, #88	; 0x58
  58:	e5840050 	str	r0, [r4, #80]	; 0x50
  5c:	e3a00064 	mov	r0, #100	; 0x64
  60:	ebfffffe 	bl	0 <mr_timerStart>
  64:	e3a00001 	mov	r0, #1
  68:	e584000c 	str	r0, [r4, #12]
  6c:	e3a00003 	mov	r0, #3
  70:	e5840004 	str	r0, [r4, #4]
  74:	ea000007 	b	98 <MRF_Exit+0x98>
  78:	ebfffffe 	bl	0 <mr_exit>
  7c:	e3a00004 	mov	r0, #4
  80:	e5840004 	str	r0, [r4, #4]
  84:	e1a00005 	mov	r0, r5
  88:	e28f102c 	add	r1, pc, #44	; 0x2c
  8c:	ebfffffe 	bl	0 <mrp_pushstring>
  90:	e1a00005 	mov	r0, r5
  94:	ebfffffe 	bl	0 <mrp_error>
  98:	e3a00000 	mov	r0, #0
  9c:	e8bd8070 	pop	{r4, r5, r6, pc}
  a0:	000004e0 	.word	0x000004e0
  a4:	00000000 	.word	0x00000000
  a8:	00000360 	.word	0x00000360
  ac:	000003e0 	.word	0x000003e0
  b0:	00000560 	.word	0x00000560
  b4:	74736572 	.word	0x74736572
  b8:	00747261 	.word	0x00747261
  bc:	74697845 	.word	0x74697845
  c0:	2e676e69 	.word	0x2e676e69
  c4:	00002e2e 	.word	0x00002e2e

Disassembly of section i.bufwriter:

00000000 <bufwriter>:
   0:	e92d4070 	push	{r4, r5, r6, lr}
   4:	e1a05000 	mov	r5, r0
   8:	e5930000 	ldr	r0, [r3]
   c:	e1a04003 	mov	r4, r3
  10:	ebfffffe 	bl	0 <mr_write>
  14:	e3500000 	cmp	r0, #0
  18:	aa000006 	bge	38 <bufwriter+0x38>
  1c:	e28f101c 	add	r1, pc, #28
  20:	e1a00005 	mov	r0, r5
  24:	ebfffffe 	bl	0 <mrp_pushstring>
  28:	e5940000 	ldr	r0, [r4]
  2c:	ebfffffe 	bl	0 <mr_close>
  30:	e1a00005 	mov	r0, r5
  34:	ebfffffe 	bl	0 <mrp_error>
  38:	e3a00000 	mov	r0, #0
  3c:	e8bd8070 	pop	{r4, r5, r6, pc}
  40:	65766153 	.word	0x65766153
  44:	6c626154 	.word	0x6c626154
  48:	726d3a65 	.word	0x726d3a65
  4c:	6972775f 	.word	0x6972775f
  50:	66206574 	.word	0x66206574
  54:	656c6961 	.word	0x656c6961
  58:	00000064 	.word	0x00000064

Disassembly of section i.SaveTable:

00000000 <SaveTable>:
   0:	e92d4038 	push	{r3, r4, r5, lr}
   4:	e1a04000 	mov	r4, r0
   8:	e3a02000 	mov	r2, #0
   c:	e3a01003 	mov	r1, #3
  10:	ebfffffe 	bl	0 <to_mr_tostring>
  14:	e1a05000 	mov	r5, r0
  18:	e1a00004 	mov	r0, r4
  1c:	e3a01002 	mov	r1, #2
  20:	ebfffffe 	bl	0 <mrp_settop>
  24:	e3a02005 	mov	r2, #5
  28:	e3a01001 	mov	r1, #1
  2c:	e1a00004 	mov	r0, r4
  30:	ebfffffe 	bl	0 <mr_L_checktype>
  34:	e3a0100a 	mov	r1, #10
  38:	e1a00005 	mov	r0, r5
  3c:	ebfffffe 	bl	0 <mr_open>
  40:	e3500000 	cmp	r0, #0
  44:	e58d0000 	str	r0, [sp]
  48:	1a000004 	bne	60 <SaveTable+0x60>
  4c:	e1a01005 	mov	r1, r5
  50:	e28f0040 	add	r0, pc, #64	; 0x40
  54:	ebfffffe 	bl	0 <mr_printf>
  58:	e3a00000 	mov	r0, #0
  5c:	e8bd8038 	pop	{r3, r4, r5, pc}
  60:	e59f1050 	ldr	r1, [pc, #80]	; b8 <SaveTable+0xb8>
  64:	e1a0200d 	mov	r2, sp
  68:	e1a00004 	mov	r0, r4
  6c:	ebfffffe 	bl	0 <mr_store_persist>
  70:	e3a01000 	mov	r1, #0
  74:	e1a00004 	mov	r0, r4
  78:	ebfffffe 	bl	0 <mrp_settop>
  7c:	e59d0000 	ldr	r0, [sp]
  80:	ebfffffe 	bl	0 <mr_close>
  84:	e3a01000 	mov	r1, #0
  88:	e1a00004 	mov	r0, r4
  8c:	ebfffffe 	bl	0 <mrp_pushnumber>
  90:	e3a00001 	mov	r0, #1
  94:	e8bd8038 	pop	{r3, r4, r5, pc}
  98:	65766153 	.word	0x65766153
  9c:	6c626154 	.word	0x6c626154
  a0:	726d3a65 	.word	0x726d3a65
  a4:	65706f5f 	.word	0x65706f5f
  a8:	2522206e 	.word	0x2522206e
  ac:	66202273 	.word	0x66202273
  b0:	656c6961 	.word	0x656c6961
  b4:	00000064 	.word	0x00000064
  b8:	00000000 	.word	0x00000000

Disassembly of section i.bufreader:

00000000 <bufreader>:
   0:	e92d4070 	push	{r4, r5, r6, lr}
   4:	e1a05002 	mov	r5, r2
   8:	e1a04001 	mov	r4, r1
   c:	e4910004 	ldr	r0, [r1], #4
  10:	e3a02c01 	mov	r2, #256	; 0x100
  14:	ebfffffe 	bl	0 <mr_read>
  18:	e3500000 	cmp	r0, #0
  1c:	e5850000 	str	r0, [r5]
  20:	12840004 	addne	r0, r4, #4
  24:	e8bd8070 	pop	{r4, r5, r6, pc}

Disassembly of section i.LoadTable:

00000000 <LoadTable>:
   0:	e92d4030 	push	{r4, r5, lr}
   4:	e24ddf41 	sub	sp, sp, #260	; 0x104
   8:	e1a04000 	mov	r4, r0
   c:	e3a02000 	mov	r2, #0
  10:	e3a01002 	mov	r1, #2
  14:	ebfffffe 	bl	0 <to_mr_tostring>
  18:	e1a05000 	mov	r5, r0
  1c:	e1a00004 	mov	r0, r4
  20:	e3a01002 	mov	r1, #2
  24:	ebfffffe 	bl	0 <mrp_settop>
  28:	e3e01001 	mvn	r1, #1
  2c:	e1a00004 	mov	r0, r4
  30:	ebfffffe 	bl	0 <mrp_settop>
  34:	e3a02005 	mov	r2, #5
  38:	e3a01001 	mov	r1, #1
  3c:	e1a00004 	mov	r0, r4
  40:	ebfffffe 	bl	0 <mr_L_checktype>
  44:	e3a01001 	mov	r1, #1
  48:	e1a00005 	mov	r0, r5
  4c:	ebfffffe 	bl	0 <mr_open>
  50:	e3500000 	cmp	r0, #0
  54:	e58d0000 	str	r0, [sp]
  58:	1a000009 	bne	84 <LoadTable+0x84>
  5c:	e1a01005 	mov	r1, r5
  60:	e28f0040 	add	r0, pc, #64	; 0x40
  64:	ebfffffe 	bl	0 <mr_printf>
  68:	e3a01000 	mov	r1, #0
  6c:	e1a00004 	mov	r0, r4
  70:	ebfffffe 	bl	0 <mrp_settop>
  74:	e3a01001 	mov	r1, #1
  78:	e1a00004 	mov	r0, r4
  7c:	ebfffffe 	bl	0 <mrp_settop>
  80:	ea000005 	b	9c <LoadTable+0x9c>
  84:	e59f1038 	ldr	r1, [pc, #56]	; c4 <LoadTable+0xc4>
  88:	e1a0200d 	mov	r2, sp
  8c:	e1a00004 	mov	r0, r4
  90:	ebfffffe 	bl	0 <mr_store_unpersist>
  94:	e59d0000 	ldr	r0, [sp]
  98:	ebfffffe 	bl	0 <mr_close>
  9c:	e3a00001 	mov	r0, #1
  a0:	e28ddf41 	add	sp, sp, #260	; 0x104
  a4:	e8bd8030 	pop	{r4, r5, pc}
  a8:	64616f4c 	.word	0x64616f4c
  ac:	6c626154 	.word	0x6c626154
  b0:	726d3a65 	.word	0x726d3a65
  b4:	65706f5f 	.word	0x65706f5f
  b8:	2522206e 	.word	0x2522206e
  bc:	65202273 	.word	0x65202273
  c0:	00007272 	.word	0x00007272
  c4:	00000000 	.word	0x00000000

Disassembly of section i._mr_GetSysInfo:

00000000 <_mr_GetSysInfo>:
   0:	e92d4070 	push	{r4, r5, r6, lr}
   4:	e24dd048 	sub	sp, sp, #72	; 0x48
   8:	e1a06000 	mov	r6, r0
   c:	e3a02001 	mov	r2, #1
  10:	e3a01001 	mov	r1, #1
  14:	ebfffffe 	bl	0 <mr_L_optnumber>
  18:	e1a05800 	lsl	r5, r0, #16
  1c:	e1a05825 	lsr	r5, r5, #16
  20:	e1a00006 	mov	r0, r6
  24:	ebfffffe 	bl	0 <mrp_newtable>
  28:	e3a02e7b 	mov	r2, #1968	; 0x7b0
  2c:	e28f1e1e 	add	r1, pc, #480	; 0x1e0
  30:	e1a00006 	mov	r0, r6
  34:	ebfffffe 	bl	0 <_mr_GetSysInfo>
  38:	e59f41dc 	ldr	r4, [pc, #476]	; 21c <_mr_GetSysInfo+0x21c>
  3c:	e28f1f77 	add	r1, pc, #476	; 0x1dc
  40:	e5942044 	ldr	r2, [r4, #68]	; 0x44
  44:	e1a00006 	mov	r0, r6
  48:	ebfffffe 	bl	0 <_mr_GetSysInfo>
  4c:	e5942048 	ldr	r2, [r4, #72]	; 0x48
  50:	e28f1e1d 	add	r1, pc, #464	; 0x1d0
  54:	e1a00006 	mov	r0, r6
  58:	ebfffffe 	bl	0 <_mr_GetSysInfo>
  5c:	e5942044 	ldr	r2, [r4, #68]	; 0x44
  60:	e28f1f72 	add	r1, pc, #456	; 0x1c8
  64:	e1a00006 	mov	r0, r6
  68:	ebfffffe 	bl	0 <_mr_GetSysInfo>
  6c:	e5942048 	ldr	r2, [r4, #72]	; 0x48
  70:	e28f1d07 	add	r1, pc, #448	; 0x1c0
  74:	e1a00006 	mov	r0, r6
  78:	ebfffffe 	bl	0 <_mr_GetSysInfo>
  7c:	e59f01bc 	ldr	r0, [pc, #444]	; 240 <_mr_GetSysInfo+0x240>
  80:	e28d3040 	add	r3, sp, #64	; 0x40
  84:	e28d2044 	add	r2, sp, #68	; 0x44
  88:	e1a01005 	mov	r1, r5
  8c:	ebfffffe 	bl	0 <mr_getCharBitmap>
  90:	e59d2044 	ldr	r2, [sp, #68]	; 0x44
  94:	e28f1f6a 	add	r1, pc, #424	; 0x1a8
  98:	e1a00006 	mov	r0, r6
  9c:	ebfffffe 	bl	0 <_mr_GetSysInfo>
  a0:	e59d2040 	ldr	r2, [sp, #64]	; 0x40
  a4:	e28f1f6a 	add	r1, pc, #424	; 0x1a8
  a8:	e1a00006 	mov	r0, r6
  ac:	ebfffffe 	bl	0 <_mr_GetSysInfo>
  b0:	e59d2044 	ldr	r2, [sp, #68]	; 0x44
  b4:	e28f1f69 	add	r1, pc, #420	; 0x1a4
  b8:	e1a00006 	mov	r0, r6
  bc:	ebfffffe 	bl	0 <_mr_GetSysInfo>
  c0:	e59d2040 	ldr	r2, [sp, #64]	; 0x40
  c4:	e28f1f66 	add	r1, pc, #408	; 0x198
  c8:	e1a00006 	mov	r0, r6
  cc:	ebfffffe 	bl	0 <_mr_GetSysInfo>
  d0:	e28d3040 	add	r3, sp, #64	; 0x40
  d4:	e28d2044 	add	r2, sp, #68	; 0x44
  d8:	e1a01005 	mov	r1, r5
  dc:	e3a00032 	mov	r0, #50	; 0x32
  e0:	ebfffffe 	bl	0 <mr_getCharBitmap>
  e4:	e59d2044 	ldr	r2, [sp, #68]	; 0x44
  e8:	e28f1f5e 	add	r1, pc, #376	; 0x178
  ec:	e1a00006 	mov	r0, r6
  f0:	ebfffffe 	bl	0 <_mr_GetSysInfo>
  f4:	e59d2040 	ldr	r2, [sp, #64]	; 0x40
  f8:	e28f1f5e 	add	r1, pc, #376	; 0x178
  fc:	e1a00006 	mov	r0, r6
 100:	ebfffffe 	bl	0 <_mr_GetSysInfo>
 104:	e59d2044 	ldr	r2, [sp, #68]	; 0x44
 108:	e28f1f5d 	add	r1, pc, #372	; 0x174
 10c:	e1a00006 	mov	r0, r6
 110:	ebfffffe 	bl	0 <_mr_GetSysInfo>
 114:	e59d2040 	ldr	r2, [sp, #64]	; 0x40
 118:	e28f1f5b 	add	r1, pc, #364	; 0x16c
 11c:	e1a00006 	mov	r0, r6
 120:	ebfffffe 	bl	0 <_mr_GetSysInfo>
 124:	e59f2168 	ldr	r2, [pc, #360]	; 294 <_mr_GetSysInfo+0x294>
 128:	e28f1f5a 	add	r1, pc, #360	; 0x168
 12c:	e1a00006 	mov	r0, r6
 130:	ebfffffe 	bl	0 <_mr_GetSysInfo>
 134:	e59f2158 	ldr	r2, [pc, #344]	; 294 <_mr_GetSysInfo+0x294>
 138:	e28f1f59 	add	r1, pc, #356	; 0x164
 13c:	e1a00006 	mov	r0, r6
 140:	ebfffffe 	bl	0 <_mr_GetSysInfo>
 144:	e1a0000d 	mov	r0, sp
 148:	ebfffffe 	bl	0 <mr_getUserInfo>
 14c:	e3500000 	cmp	r0, #0
 150:	1a000016 	bne	1b0 <_mr_GetSysInfo+0x1b0>
 154:	e28f0f55 	add	r0, pc, #340	; 0x154
 158:	ebfffffe 	bl	0 <mr_printf>
 15c:	e1a0400d 	mov	r4, sp
 160:	e28d2020 	add	r2, sp, #32
 164:	e28f1f56 	add	r1, pc, #344	; 0x158
 168:	e1a00006 	mov	r0, r6
 16c:	ebfffffe 	bl	0 <_mr_GetSysInfo>
 170:	e2842028 	add	r2, r4, #40	; 0x28
 174:	e28f1e15 	add	r1, pc, #336	; 0x150
 178:	e1a00006 	mov	r0, r6
 17c:	ebfffffe 	bl	0 <_mr_GetSysInfo>
 180:	e3a03010 	mov	r3, #16
 184:	e1a0200d 	mov	r2, sp
 188:	e28f1f51 	add	r1, pc, #324	; 0x144
 18c:	e1a00006 	mov	r0, r6
 190:	ebfffffe 	bl	0 <_mr_GetSysInfo>
 194:	e3a03010 	mov	r3, #16
 198:	e2842010 	add	r2, r4, #16
 19c:	e28f1f4e 	add	r1, pc, #312	; 0x138
 1a0:	e1a00006 	mov	r0, r6
 1a4:	ebfffffe 	bl	0 <_mr_GetSysInfo>
 1a8:	e59d2030 	ldr	r2, [sp, #48]	; 0x30
 1ac:	ea000012 	b	1fc <_mr_GetSysInfo+0x1fc>
 1b0:	e28f0f4b 	add	r0, pc, #300	; 0x12c
 1b4:	ebfffffe 	bl	0 <mr_printf>
 1b8:	e28f2f4f 	add	r2, pc, #316	; 0x13c
 1bc:	e28f1c01 	add	r1, pc, #256	; 0x100
 1c0:	e1a00006 	mov	r0, r6
 1c4:	ebfffffe 	bl	0 <_mr_GetSysInfo>
 1c8:	e28f2f4b 	add	r2, pc, #300	; 0x12c
 1cc:	e28f10f8 	add	r1, pc, #248	; 0xf8
 1d0:	e1a00006 	mov	r0, r6
 1d4:	ebfffffe 	bl	0 <_mr_GetSysInfo>
 1d8:	e28f2f49 	add	r2, pc, #292	; 0x124
 1dc:	e28f10f0 	add	r1, pc, #240	; 0xf0
 1e0:	e1a00006 	mov	r0, r6
 1e4:	ebfffffe 	bl	0 <_mr_GetSysInfo>
 1e8:	e28f2f45 	add	r2, pc, #276	; 0x114
 1ec:	e28f10e8 	add	r1, pc, #232	; 0xe8
 1f0:	e1a00006 	mov	r0, r6
 1f4:	ebfffffe 	bl	0 <_mr_GetSysInfo>
 1f8:	e3a02000 	mov	r2, #0
 1fc:	e28f1f41 	add	r1, pc, #260	; 0x104
 200:	e1a00006 	mov	r0, r6
 204:	ebfffffe 	bl	0 <_mr_GetSysInfo>
 208:	e3a00001 	mov	r0, #1
 20c:	e28dd048 	add	sp, sp, #72	; 0x48
 210:	e8bd8070 	pop	{r4, r5, r6, pc}
 214:	65766d76 	.word	0x65766d76
 218:	00000072 	.word	0x00000072
 21c:	00000000 	.word	0x00000000
 220:	65726353 	.word	0x65726353
 224:	00576e65 	.word	0x00576e65
 228:	65726353 	.word	0x65726353
 22c:	00486e65 	.word	0x00486e65
 230:	77726373 	.word	0x77726373
 234:	00000000 	.word	0x00000000
 238:	68726373 	.word	0x68726373
 23c:	00000000 	.word	0x00000000
 240:	000070b9 	.word	0x000070b9
 244:	6e696843 	.word	0x6e696843
 248:	57657365 	.word	0x57657365
 24c:	68746469 	.word	0x68746469
 250:	00000000 	.word	0x00000000
 254:	6e696843 	.word	0x6e696843
 258:	48657365 	.word	0x48657365
 25c:	00686769 	.word	0x00686769
 260:	00776863 	.word	0x00776863
 264:	00686863 	.word	0x00686863
 268:	6c676e45 	.word	0x6c676e45
 26c:	57687369 	.word	0x57687369
 270:	68746469 	.word	0x68746469
 274:	00000000 	.word	0x00000000
 278:	6c676e45 	.word	0x6c676e45
 27c:	48687369 	.word	0x48687369
 280:	00686769 	.word	0x00686769
 284:	77637361 	.word	0x77637361
 288:	00000000 	.word	0x00000000
 28c:	68637361 	.word	0x68637361
 290:	00000000 	.word	0x00000000
 294:	00000360 	.word	0x00000360
 298:	6b636150 	.word	0x6b636150
 29c:	656d614e 	.word	0x656d614e
 2a0:	00000000 	.word	0x00000000
 2a4:	6b636170 	.word	0x6b636170
 2a8:	656d616e 	.word	0x656d616e
 2ac:	00000000 	.word	0x00000000
 2b0:	675f726d 	.word	0x675f726d
 2b4:	73557465 	.word	0x73557465
 2b8:	6e497265 	.word	0x6e497265
 2bc:	6f206f66 	.word	0x6f206f66
 2c0:	0000216b 	.word	0x0000216b
 2c4:	616d7368 	.word	0x616d7368
 2c8:	0000006e 	.word	0x0000006e
 2cc:	79747368 	.word	0x79747368
 2d0:	00006570 	.word	0x00006570
 2d4:	49454d49 	.word	0x49454d49
 2d8:	00000000 	.word	0x00000000
 2dc:	49534d49 	.word	0x49534d49
 2e0:	00000000 	.word	0x00000000
 2e4:	675f726d 	.word	0x675f726d
 2e8:	73557465 	.word	0x73557465
 2ec:	6e497265 	.word	0x6e497265
 2f0:	66206f66 	.word	0x66206f66
 2f4:	656c6961 	.word	0x656c6961
 2f8:	00002164 	.word	0x00002164
 2fc:	656e6f6e 	.word	0x656e6f6e
 300:	00000000 	.word	0x00000000
 304:	00003030 	.word	0x00003030
 308:	65767368 	.word	0x65767368
 30c:	00000072 	.word	0x00000072

Disassembly of section i._mr_GetDatetime:

00000000 <_mr_GetDatetime>:
   0:	e92d401c 	push	{r2, r3, r4, lr}
   4:	e1a04000 	mov	r4, r0
   8:	e1a0000d 	mov	r0, sp
   c:	ebfffffe 	bl	0 <mr_getDatetime>
  10:	e3500000 	cmp	r0, #0
  14:	13a00000 	movne	r0, #0
  18:	1a00001a 	bne	88 <_mr_GetDatetime+0x88>
  1c:	e1a00004 	mov	r0, r4
  20:	ebfffffe 	bl	0 <mrp_newtable>
  24:	e1dd20b0 	ldrh	r2, [sp]
  28:	e28f105c 	add	r1, pc, #92	; 0x5c
  2c:	e1a00004 	mov	r0, r4
  30:	ebfffffe 	bl	0 <_mr_GetDatetime>
  34:	e5dd2002 	ldrb	r2, [sp, #2]
  38:	e28f1054 	add	r1, pc, #84	; 0x54
  3c:	e1a00004 	mov	r0, r4
  40:	ebfffffe 	bl	0 <_mr_GetDatetime>
  44:	e5dd2003 	ldrb	r2, [sp, #3]
  48:	e28f1048 	add	r1, pc, #72	; 0x48
  4c:	e1a00004 	mov	r0, r4
  50:	ebfffffe 	bl	0 <_mr_GetDatetime>
  54:	e5dd2004 	ldrb	r2, [sp, #4]
  58:	e28f103c 	add	r1, pc, #60	; 0x3c
  5c:	e1a00004 	mov	r0, r4
  60:	ebfffffe 	bl	0 <_mr_GetDatetime>
  64:	e5dd2005 	ldrb	r2, [sp, #5]
  68:	e28f1034 	add	r1, pc, #52	; 0x34
  6c:	e1a00004 	mov	r0, r4
  70:	ebfffffe 	bl	0 <_mr_GetDatetime>
  74:	e5dd2006 	ldrb	r2, [sp, #6]
  78:	e28f1028 	add	r1, pc, #40	; 0x28
  7c:	e1a00004 	mov	r0, r4
  80:	ebfffffe 	bl	0 <_mr_GetDatetime>
  84:	e3a00001 	mov	r0, #1
  88:	e8bd801c 	pop	{r2, r3, r4, pc}
  8c:	72616579 	.word	0x72616579
  90:	00000000 	.word	0x00000000
  94:	006e6f6d 	.word	0x006e6f6d
  98:	00796164 	.word	0x00796164
  9c:	72756f68 	.word	0x72756f68
  a0:	00000000 	.word	0x00000000
  a4:	006e696d 	.word	0x006e696d
  a8:	00636573 	.word	0x00636573

Disassembly of section i.Call:

00000000 <Call>:
   0:	e92d4070 	push	{r4, r5, r6, lr}
   4:	e1a05000 	mov	r5, r0
   8:	e3a02000 	mov	r2, #0
   c:	e3a01001 	mov	r1, #1
  10:	ebfffffe 	bl	0 <to_mr_tostring>
  14:	e1a04000 	mov	r4, r0
  18:	e1a00005 	mov	r0, r5
  1c:	e3a01001 	mov	r1, #1
  20:	ebfffffe 	bl	0 <mrp_settop>
  24:	e1a00004 	mov	r0, r4
  28:	ebfffffe 	bl	0 <mr_call>
  2c:	e3a00000 	mov	r0, #0
  30:	e8bd8070 	pop	{r4, r5, r6, pc}

Disassembly of section i.LoadPack:

00000000 <LoadPack>:
   0:	e92d4070 	push	{r4, r5, r6, lr}
   4:	e24dd018 	sub	sp, sp, #24
   8:	e1a06000 	mov	r6, r0
   c:	e3a02000 	mov	r2, #0
  10:	e3a01001 	mov	r1, #1
  14:	ebfffffe 	bl	0 <to_mr_tostring>
  18:	e1a05000 	mov	r5, r0
  1c:	e59f00e0 	ldr	r0, [pc, #224]	; 104 <LoadPack+0x104>
  20:	e5900008 	ldr	r0, [r0, #8]
  24:	e3100002 	tst	r0, #2
  28:	0a000023 	beq	bc <LoadPack+0xbc>
  2c:	e3a01001 	mov	r1, #1
  30:	e1a00005 	mov	r0, r5
  34:	ebfffffe 	bl	0 <mr_open>
  38:	e1b04000 	movs	r4, r0
  3c:	1a000003 	bne	50 <LoadPack+0x50>
  40:	e1a01005 	mov	r1, r5
  44:	e28f00bc 	add	r0, pc, #188	; 0xbc
  48:	ebfffffe 	bl	0 <mr_printf>
  4c:	ea00002a 	b	fc <LoadPack+0xfc>
  50:	e3a02000 	mov	r2, #0
  54:	e3a01034 	mov	r1, #52	; 0x34
  58:	e1a00004 	mov	r0, r4
  5c:	ebfffffe 	bl	0 <mr_seek>
  60:	e3500000 	cmp	r0, #0
  64:	aa000004 	bge	7c <LoadPack+0x7c>
  68:	e1a00004 	mov	r0, r4
  6c:	ebfffffe 	bl	0 <mr_close>
  70:	e28f1098 	add	r1, pc, #152	; 0x98
  74:	e3a02000 	mov	r2, #0
  78:	ea00001d 	b	f4 <LoadPack+0xf4>
  7c:	e3a02018 	mov	r2, #24
  80:	e1a0100d 	mov	r1, sp
  84:	e1a00004 	mov	r0, r4
  88:	ebfffffe 	bl	0 <mr_read>
  8c:	e3500018 	cmp	r0, #24
  90:	e1a00004 	mov	r0, r4
  94:	0a000003 	beq	a8 <LoadPack+0xa8>
  98:	ebfffffe 	bl	0 <mr_close>
  9c:	e28f106c 	add	r1, pc, #108	; 0x6c
  a0:	e3a02001 	mov	r2, #1
  a4:	ea000012 	b	f4 <LoadPack+0xf4>
  a8:	ebfffffe 	bl	0 <mr_close>
  ac:	e1a0000d 	mov	r0, sp
  b0:	ebfffffe 	bl	0 <LoadPack>
  b4:	e3500000 	cmp	r0, #0
  b8:	1a00000b 	bne	ec <LoadPack+0xec>
  bc:	e3a01001 	mov	r1, #1
  c0:	e1a00006 	mov	r0, r6
  c4:	ebfffffe 	bl	0 <mrp_settop>
  c8:	e59f1050 	ldr	r1, [pc, #80]	; 120 <LoadPack+0x120>
  cc:	e1a00006 	mov	r0, r6
  d0:	ebfffffe 	bl	0 <mrp_pushstring>
  d4:	e59f0044 	ldr	r0, [pc, #68]	; 120 <LoadPack+0x120>
  d8:	e1a01005 	mov	r1, r5
  dc:	ebfffffe 	bl	0 <strcpy>
  e0:	e3a00001 	mov	r0, #1
  e4:	e28dd018 	add	sp, sp, #24
  e8:	e8bd8070 	pop	{r4, r5, r6, pc}
  ec:	e28f101c 	add	r1, pc, #28
  f0:	e3a02002 	mov	r2, #2
  f4:	e59f0028 	ldr	r0, [pc, #40]	; 124 <LoadPack+0x124>
  f8:	ebfffffe 	bl	0 <mr_printf>
  fc:	e3a00000 	mov	r0, #0
 100:	eafffff7 	b	e4 <LoadPack+0xe4>
 104:	00000000 	.word	0x00000000
 108:	22732522 	.word	0x22732522
 10c:	20736920 	.word	0x20736920
 110:	75616e75 	.word	0x75616e75
 114:	726f6874 	.word	0x726f6874
 118:	64657a69 	.word	0x64657a69
 11c:	00000000 	.word	0x00000000
 120:	00000360 	.word	0x00000360
 124:	00000068 	.word	0x00000068

Disassembly of section i.SendSms:

00000000 <SendSms>:
   0:	e92d41f0 	push	{r4, r5, r6, r7, r8, lr}
   4:	e1a07000 	mov	r7, r0
   8:	e28f2060 	add	r2, pc, #96	; 0x60
   c:	e3a01001 	mov	r1, #1
  10:	ebfffffe 	bl	0 <to_mr_tostring>
  14:	e1a04000 	mov	r4, r0
  18:	e1a00007 	mov	r0, r7
  1c:	e28f204c 	add	r2, pc, #76	; 0x4c
  20:	e3a01002 	mov	r1, #2
  24:	ebfffffe 	bl	0 <to_mr_tostring>
  28:	e1a05000 	mov	r5, r0
  2c:	e1a00007 	mov	r0, r7
  30:	e3a02000 	mov	r2, #0
  34:	e3a01003 	mov	r1, #3
  38:	ebfffffe 	bl	0 <to_mr_tonumber>
  3c:	e1a06000 	mov	r6, r0
  40:	e1a00007 	mov	r0, r7
  44:	e3a01002 	mov	r1, #2
  48:	ebfffffe 	bl	0 <mrp_settop>
  4c:	e1a02006 	mov	r2, r6
  50:	e1a01005 	mov	r1, r5
  54:	e1a00004 	mov	r0, r4
  58:	ebfffffe 	bl	0 <mr_sendSms>
  5c:	e1a01000 	mov	r1, r0
  60:	e1a00007 	mov	r0, r7
  64:	ebfffffe 	bl	0 <mrp_pushnumber>
  68:	e3a00001 	mov	r0, #1
  6c:	e8bd81f0 	pop	{r4, r5, r6, r7, r8, pc}
  70:	00000030 	.word	0x00000030

Disassembly of section i.GetNetworkID:

00000000 <GetNetworkID>:
   0:	e92d4010 	push	{r4, lr}
   4:	e1a04000 	mov	r4, r0
   8:	ebfffffe 	bl	0 <mr_getNetworkID>
   c:	e1a01000 	mov	r1, r0
  10:	e1a00004 	mov	r0, r4
  14:	ebfffffe 	bl	0 <mrp_pushnumber>
  18:	e3a00001 	mov	r0, #1
  1c:	e8bd8010 	pop	{r4, pc}

Disassembly of section i.ConnectWAP:

00000000 <ConnectWAP>:
   0:	e92d4070 	push	{r4, r5, r6, lr}
   4:	e1a05000 	mov	r5, r0
   8:	e3a02000 	mov	r2, #0
   c:	e3a01001 	mov	r1, #1
  10:	ebfffffe 	bl	0 <to_mr_tostring>
  14:	e1a04000 	mov	r4, r0
  18:	e1a00005 	mov	r0, r5
  1c:	e3a01001 	mov	r1, #1
  20:	ebfffffe 	bl	0 <mrp_settop>
  24:	e1a00004 	mov	r0, r4
  28:	ebfffffe 	bl	0 <mr_connectWAP>
  2c:	e3a00000 	mov	r0, #0
  30:	e8bd8070 	pop	{r4, r5, r6, pc}

Disassembly of section i.MRF_RunFile:

00000000 <MRF_RunFile>:
   0:	e92d4070 	push	{r4, r5, r6, lr}
   4:	e1a06000 	mov	r6, r0
   8:	e3a02000 	mov	r2, #0
   c:	e3a01001 	mov	r1, #1
  10:	ebfffffe 	bl	0 <to_mr_tostring>
  14:	e1a04000 	mov	r4, r0
  18:	e1a00006 	mov	r0, r6
  1c:	e3a02000 	mov	r2, #0
  20:	e3a01002 	mov	r1, #2
  24:	ebfffffe 	bl	0 <to_mr_tostring>
  28:	e1a05000 	mov	r5, r0
  2c:	e1a00006 	mov	r0, r6
  30:	e3a02000 	mov	r2, #0
  34:	e3a01003 	mov	r1, #3
  38:	ebfffffe 	bl	0 <to_mr_tostring>
  3c:	e1a06000 	mov	r6, r0
  40:	e59f007c 	ldr	r0, [pc, #124]	; c4 <MRF_RunFile+0xc4>
  44:	e3a01080 	mov	r1, #128	; 0x80
  48:	ebfffffe 	bl	0 <__aeabi_memclr4>
  4c:	e59f0070 	ldr	r0, [pc, #112]	; c4 <MRF_RunFile+0xc4>
  50:	e3a0207f 	mov	r2, #127	; 0x7f
  54:	e1a01004 	mov	r1, r4
  58:	ebfffffe 	bl	0 <MRF_RunFile>
  5c:	e59f0064 	ldr	r0, [pc, #100]	; c8 <MRF_RunFile+0xc8>
  60:	e3a01080 	mov	r1, #128	; 0x80
  64:	ebfffffe 	bl	0 <__aeabi_memclr4>
  68:	e59f0058 	ldr	r0, [pc, #88]	; c8 <MRF_RunFile+0xc8>
  6c:	e3a0207f 	mov	r2, #127	; 0x7f
  70:	e1a01005 	mov	r1, r5
  74:	ebfffffe 	bl	0 <MRF_RunFile>
  78:	e59f004c 	ldr	r0, [pc, #76]	; cc <MRF_RunFile+0xcc>
  7c:	e3a01080 	mov	r1, #128	; 0x80
  80:	ebfffffe 	bl	0 <__aeabi_memclr4>
  84:	e3560000 	cmp	r6, #0
  88:	159f003c 	ldrne	r0, [pc, #60]	; cc <MRF_RunFile+0xcc>
  8c:	13a0207f 	movne	r2, #127	; 0x7f
  90:	11a01006 	movne	r1, r6
  94:	1bfffffe 	blne	0 <MRF_RunFile>
  98:	e59f4038 	ldr	r4, [pc, #56]	; d8 <MRF_RunFile+0xd8>
  9c:	e28f002c 	add	r0, pc, #44	; 0x2c
  a0:	e5840050 	str	r0, [r4, #80]	; 0x50
  a4:	e3a00064 	mov	r0, #100	; 0x64
  a8:	ebfffffe 	bl	0 <mr_timerStart>
  ac:	e3a00001 	mov	r0, #1
  b0:	e584000c 	str	r0, [r4, #12]
  b4:	e3a00003 	mov	r0, #3
  b8:	e5840004 	str	r0, [r4, #4]
  bc:	e3a00000 	mov	r0, #0
  c0:	e8bd8070 	pop	{r4, r5, r6, pc}
  c4:	00000360 	.word	0x00000360
  c8:	000003e0 	.word	0x000003e0
  cc:	00000460 	.word	0x00000460
  d0:	74736572 	.word	0x74736572
  d4:	00747261 	.word	0x00747261
  d8:	00000000 	.word	0x00000000

Disassembly of section i.mr_Gb2312toUnicode:

00000000 <mr_Gb2312toUnicode>:
   0:	e92d40f8 	push	{r3, r4, r5, r6, r7, lr}
   4:	e1a06000 	mov	r6, r0
   8:	e3a02000 	mov	r2, #0
   c:	e3a01001 	mov	r1, #1
  10:	ebfffffe 	bl	0 <to_mr_tostring>
  14:	e1a05000 	mov	r5, r0
  18:	e1a0200d 	mov	r2, sp
  1c:	e3a01000 	mov	r1, #0
  20:	ebfffffe 	bl	0 <c2u>
  24:	e1b04000 	movs	r4, r0
  28:	1a000007 	bne	4c <mr_Gb2312toUnicode+0x4c>
  2c:	e5d52000 	ldrb	r2, [r5]
  30:	e28f1038 	add	r1, pc, #56	; 0x38
  34:	e1a00006 	mov	r0, r6
  38:	ebfffffe 	bl	0 <mrp_pushfstring>
  3c:	e1a00006 	mov	r0, r6
  40:	ebfffffe 	bl	0 <mrp_error>
  44:	e3a00000 	mov	r0, #0
  48:	e8bd80f8 	pop	{r3, r4, r5, r6, r7, pc}
  4c:	e59d2000 	ldr	r2, [sp]
  50:	e1a01004 	mov	r1, r4
  54:	e1a00006 	mov	r0, r6
  58:	ebfffffe 	bl	0 <mrp_pushlstring>
  5c:	e59d1000 	ldr	r1, [sp]
  60:	e1a00004 	mov	r0, r4
  64:	ebfffffe 	bl	0 <mr_Gb2312toUnicode>
  68:	e3a00001 	mov	r0, #1
  6c:	e8bd80f8 	pop	{r3, r4, r5, r6, r7, pc}
  70:	33326247 	.word	0x33326247
  74:	6f743231 	.word	0x6f743231
  78:	63696e55 	.word	0x63696e55
  7c:	2065646f 	.word	0x2065646f
  80:	74786574 	.word	0x74786574
  84:	3d5d305b 	.word	0x3d5d305b
  88:	203a6425 	.word	0x203a6425
  8c:	21727265 	.word	0x21727265
  90:	00000000 	.word	0x00000000

Disassembly of section i.MRF_plat:

00000000 <MRF_plat>:
   0:	e92d4070 	push	{r4, r5, r6, lr}
   4:	e1a05000 	mov	r5, r0
   8:	e3a02000 	mov	r2, #0
   c:	e3a01001 	mov	r1, #1
  10:	ebfffffe 	bl	0 <to_mr_tonumber>
  14:	e1a04000 	mov	r4, r0
  18:	e1a00005 	mov	r0, r5
  1c:	e3a02000 	mov	r2, #0
  20:	e3a01002 	mov	r1, #2
  24:	ebfffffe 	bl	0 <to_mr_tonumber>
  28:	e1a01000 	mov	r1, r0
  2c:	e1a00004 	mov	r0, r4
  30:	ebfffffe 	bl	0 <mr_plat>
  34:	e1a01000 	mov	r1, r0
  38:	e1a00005 	mov	r0, r5
  3c:	ebfffffe 	bl	0 <mrp_pushnumber>
  40:	e3a00001 	mov	r0, #1
  44:	e8bd8070 	pop	{r4, r5, r6, pc}

Disassembly of section i.MRF_platEx:

00000000 <MRF_platEx>:
   0:	e92d4030 	push	{r4, r5, lr}
   4:	e24dd01c 	sub	sp, sp, #28
   8:	e1a05000 	mov	r5, r0
   c:	e3a02000 	mov	r2, #0
  10:	e3a01001 	mov	r1, #1
  14:	ebfffffe 	bl	0 <to_mr_tonumber>
  18:	e1a04000 	mov	r4, r0
  1c:	e1a00005 	mov	r0, r5
  20:	e28d2018 	add	r2, sp, #24
  24:	e3a01002 	mov	r1, #2
  28:	ebfffffe 	bl	0 <mr_L_checklstring>
  2c:	e1a01000 	mov	r1, r0
  30:	e3a00000 	mov	r0, #0
  34:	e28d300c 	add	r3, sp, #12
  38:	e28d2014 	add	r2, sp, #20
  3c:	e58d0014 	str	r0, [sp, #20]
  40:	e1cd20f0 	strd	r2, [sp]
  44:	e58d0010 	str	r0, [sp, #16]
  48:	e58d000c 	str	r0, [sp, #12]
  4c:	e59d2018 	ldr	r2, [sp, #24]
  50:	e1a00004 	mov	r0, r4
  54:	e28d3010 	add	r3, sp, #16
  58:	ebfffffe 	bl	0 <mr_platEx>
  5c:	e59d1010 	ldr	r1, [sp, #16]
  60:	e1a04000 	mov	r4, r0
  64:	e3510000 	cmp	r1, #0
  68:	159d2014 	ldrne	r2, [sp, #20]
  6c:	13520000 	cmpne	r2, #0
  70:	0a000002 	beq	80 <MRF_platEx+0x80>
  74:	e1a00005 	mov	r0, r5
  78:	ebfffffe 	bl	0 <mrp_pushlstring>
  7c:	ea000002 	b	8c <MRF_platEx+0x8c>
  80:	e28f102c 	add	r1, pc, #44	; 0x2c
  84:	e1a00005 	mov	r0, r5
  88:	ebfffffe 	bl	0 <mrp_pushstring>
  8c:	e59d200c 	ldr	r2, [sp, #12]
  90:	e3520000 	cmp	r2, #0
  94:	11cd01d0 	ldrdne	r0, [sp, #16]
  98:	112fff32 	blxne	r2
  9c:	e1a01004 	mov	r1, r4
  a0:	e1a00005 	mov	r0, r5
  a4:	ebfffffe 	bl	0 <mrp_pushnumber>
  a8:	e3a00002 	mov	r0, #2
  ac:	e28dd01c 	add	sp, sp, #28
  b0:	e8bd8030 	pop	{r4, r5, pc}
  b4:	00000000 	.word	0x00000000

Disassembly of section i.MRF_initNet:

00000000 <MRF_initNet>:
   0:	e92d4010 	push	{r4, lr}
   4:	e1a04000 	mov	r4, r0
   8:	e28f2014 	add	r2, pc, #20
   c:	e3a01001 	mov	r1, #1
  10:	ebfffffe 	bl	0 <to_mr_tostring>
  14:	e1a01000 	mov	r1, r0
  18:	e1a00004 	mov	r0, r4
  1c:	e8bd4010 	pop	{r4, lr}
  20:	eafffffe 	b	0 <mropen_socket>
  24:	656e6d63 	.word	0x656e6d63
  28:	00000074 	.word	0x00000074

Disassembly of section i.MRF_closeNet:

00000000 <MRF_closeNet>:
   0:	e92d4070 	push	{r4, r5, r6, lr}
   4:	e1a04000 	mov	r4, r0
   8:	ebfffffe 	bl	0 <mr_closeNetwork>
   c:	e1a05000 	mov	r5, r0
  10:	e1a00004 	mov	r0, r4
  14:	e28f107c 	add	r1, pc, #124	; 0x7c
  18:	ebfffffe 	bl	0 <mrp_pushstring>
  1c:	e59f107c 	ldr	r1, [pc, #124]	; a0 <MRF_closeNet+0xa0>
  20:	e1a00004 	mov	r0, r4
  24:	ebfffffe 	bl	0 <mrp_rawget>
  28:	e3e01000 	mvn	r1, #0
  2c:	e1a00004 	mov	r0, r4
  30:	ebfffffe 	bl	0 <mrp_type>
  34:	e3500005 	cmp	r0, #5
  38:	0a000005 	beq	54 <MRF_closeNet+0x54>
  3c:	e3e01001 	mvn	r1, #1
  40:	e1a00004 	mov	r0, r4
  44:	ebfffffe 	bl	0 <mrp_settop>
  48:	e28f0054 	add	r0, pc, #84	; 0x54
  4c:	ebfffffe 	bl	0 <mr_printf>
  50:	ea00000b 	b	84 <MRF_closeNet+0x84>
  54:	e28f1058 	add	r1, pc, #88	; 0x58
  58:	e1a00004 	mov	r0, r4
  5c:	ebfffffe 	bl	0 <mrp_pushstring>
  60:	e3a01003 	mov	r1, #3
  64:	e1a00004 	mov	r0, r4
  68:	ebfffffe 	bl	0 <mrp_pushnumber>
  6c:	e3e01002 	mvn	r1, #2
  70:	e1a00004 	mov	r0, r4
  74:	ebfffffe 	bl	0 <mrp_rawset>
  78:	e3e01001 	mvn	r1, #1
  7c:	e1a00004 	mov	r0, r4
  80:	ebfffffe 	bl	0 <mrp_settop>
  84:	e1a01005 	mov	r1, r5
  88:	e1a00004 	mov	r0, r4
  8c:	ebfffffe 	bl	0 <to_mr_pushnumber>
  90:	e3a00001 	mov	r0, #1
  94:	e8bd8070 	pop	{r4, r5, r6, pc}
  98:	6b636f73 	.word	0x6b636f73
  9c:	00007465 	.word	0x00007465
  a0:	ffffd8ef 	.word	0xffffd8ef
  a4:	6b636f53 	.word	0x6b636f53
  a8:	49207465 	.word	0x49207465
  ac:	21454c44 	.word	0x21454c44
  b0:	00000000 	.word	0x00000000
  b4:	74617473 	.word	0x74617473
  b8:	00000065 	.word	0x00000065

Disassembly of section i._mr_save_sms_cfg:

00000000 <_mr_save_sms_cfg>:
   0:	e59f007c 	ldr	r0, [pc, #124]	; 84 <_mr_save_sms_cfg+0x84>
   4:	e92d4010 	push	{r4, lr}
   8:	e5901020 	ldr	r1, [r0, #32]
   c:	e3510000 	cmp	r1, #0
  10:	0a000019 	beq	7c <_mr_save_sms_cfg+0x7c>
  14:	e3a01000 	mov	r1, #0
  18:	e5801020 	str	r1, [r0, #32]
  1c:	e590001c 	ldr	r0, [r0, #28]
  20:	e3a0100a 	mov	r1, #10
  24:	ebfffffe 	bl	0 <mr_open>
  28:	e1b04000 	movs	r4, r0
  2c:	1a000001 	bne	38 <_mr_save_sms_cfg+0x38>
  30:	e3e00000 	mvn	r0, #0
  34:	e8bd8010 	pop	{r4, pc}
  38:	e3a02000 	mov	r2, #0
  3c:	e3a01000 	mov	r1, #0
  40:	e1a00004 	mov	r0, r4
  44:	ebfffffe 	bl	0 <mr_seek>
  48:	e3700001 	cmn	r0, #1
  4c:	0a000005 	beq	68 <_mr_save_sms_cfg+0x68>
  50:	e59f2030 	ldr	r2, [pc, #48]	; 88 <_mr_save_sms_cfg+0x88>
  54:	e59f1030 	ldr	r1, [pc, #48]	; 8c <_mr_save_sms_cfg+0x8c>
  58:	e1a00004 	mov	r0, r4
  5c:	ebfffffe 	bl	0 <mr_write>
  60:	e3700001 	cmn	r0, #1
  64:	1a000002 	bne	74 <_mr_save_sms_cfg+0x74>
  68:	e1a00004 	mov	r0, r4
  6c:	ebfffffe 	bl	0 <mr_close>
  70:	eaffffee 	b	30 <_mr_save_sms_cfg+0x30>
  74:	e1a00004 	mov	r0, r4
  78:	ebfffffe 	bl	0 <mr_close>
  7c:	e3a00000 	mov	r0, #0
  80:	e8bd8010 	pop	{r4, pc}
  84:	00000000 	.word	0x00000000
  88:	000010e0 	.word	0x000010e0
  8c:	00000660 	.word	0x00000660

Disassembly of section i._mr_smsGetBytes:

00000000 <_mr_smsGetBytes>:
   0:	e92d4010 	push	{r4, lr}
   4:	e59fe034 	ldr	lr, [pc, #52]	; 40 <_mr_smsGetBytes+0x40>
   8:	e1a03001 	mov	r3, r1
   c:	e150000e 	cmp	r0, lr
  10:	2a000002 	bcs	20 <_mr_smsGetBytes+0x20>
  14:	e0801002 	add	r1, r0, r2
  18:	e151000e 	cmp	r1, lr
  1c:	ba000001 	blt	28 <_mr_smsGetBytes+0x28>
  20:	e3e00000 	mvn	r0, #0
  24:	e8bd8010 	pop	{r4, pc}
  28:	e59f1014 	ldr	r1, [pc, #20]	; 44 <_mr_smsGetBytes+0x44>
  2c:	e0811000 	add	r1, r1, r0
  30:	e1a00003 	mov	r0, r3
  34:	ebfffffe 	bl	0 <__aeabi_memcpy>
  38:	e3a00000 	mov	r0, #0
  3c:	e8bd8010 	pop	{r4, pc}
  40:	000010e0 	.word	0x000010e0
  44:	00000660 	.word	0x00000660

Disassembly of section i._mr_smsSetBytes:

00000000 <_mr_smsSetBytes>:
   0:	e92d4010 	push	{r4, lr}
   4:	e59fe038 	ldr	lr, [pc, #56]	; 44 <_mr_smsSetBytes+0x44>
   8:	e150000e 	cmp	r0, lr
   c:	2a000002 	bcs	1c <_mr_smsSetBytes+0x1c>
  10:	e0803002 	add	r3, r0, r2
  14:	e153000e 	cmp	r3, lr
  18:	ba000001 	blt	24 <_mr_smsSetBytes+0x24>
  1c:	e3e00000 	mvn	r0, #0
  20:	e8bd8010 	pop	{r4, pc}
  24:	e59fc01c 	ldr	ip, [pc, #28]	; 48 <_mr_smsSetBytes+0x48>
  28:	e3a03001 	mov	r3, #1
  2c:	e58c3020 	str	r3, [ip, #32]
  30:	e59f3014 	ldr	r3, [pc, #20]	; 4c <_mr_smsSetBytes+0x4c>
  34:	e0830000 	add	r0, r3, r0
  38:	ebfffffe 	bl	0 <__aeabi_memcpy>
  3c:	e3a00000 	mov	r0, #0
  40:	e8bd8010 	pop	{r4, pc}
  44:	000010e0 	.word	0x000010e0
  48:	00000000 	.word	0x00000000
  4c:	00000660 	.word	0x00000660

Disassembly of section i._mr_smsAddNum:

00000000 <_mr_smsAddNum>:
   0:	e92d4070 	push	{r4, r5, r6, lr}
   4:	e1a05000 	mov	r5, r0
   8:	e1a00001 	mov	r0, r1
   c:	e24dd020 	sub	sp, sp, #32
  10:	e1a06001 	mov	r6, r1
  14:	ebfffffe 	bl	0 <strlen>
  18:	e3500015 	cmp	r0, #21
  1c:	e1a04000 	mov	r4, r0
  20:	da000004 	ble	38 <_mr_smsAddNum+0x38>
  24:	e28f0044 	add	r0, pc, #68	; 0x44
  28:	ebfffffe 	bl	0 <mr_printf>
  2c:	e3e00000 	mvn	r0, #0
  30:	e28dd020 	add	sp, sp, #32
  34:	e8bd8070 	pop	{r4, r5, r6, pc}
  38:	e3a01020 	mov	r1, #32
  3c:	e1a0000d 	mov	r0, sp
  40:	ebfffffe 	bl	0 <__aeabi_memclr4>
  44:	e1a0200d 	mov	r2, sp
  48:	e1a01004 	mov	r1, r4
  4c:	e1a00006 	mov	r0, r6
  50:	ebfffffe 	bl	0 <_mr_encode>
  54:	e3a00078 	mov	r0, #120	; 0x78
  58:	e0800285 	add	r0, r0, r5, lsl #5
  5c:	e3a02020 	mov	r2, #32
  60:	e1a0100d 	mov	r1, sp
  64:	ebfffffe 	bl	0 <_mr_smsAddNum>
  68:	e3a00000 	mov	r0, #0
  6c:	eaffffef 	b	30 <_mr_smsAddNum+0x30>
  70:	206d756e 	.word	0x206d756e
  74:	206f6f74 	.word	0x206f6f74
  78:	676e6f6c 	.word	0x676e6f6c
  7c:	00000000 	.word	0x00000000

Disassembly of section i._mr_load_sms_cfg:

00000000 <_mr_load_sms_cfg>:
   0:	e92d41f0 	push	{r4, r5, r6, r7, r8, lr}
   4:	e59f50a8 	ldr	r5, [pc, #168]	; b4 <_mr_load_sms_cfg+0xb4>
   8:	e59f60a8 	ldr	r6, [pc, #168]	; b8 <_mr_load_sms_cfg+0xb8>
   c:	e3a00000 	mov	r0, #0
  10:	e5850020 	str	r0, [r5, #32]
  14:	e59f00a0 	ldr	r0, [pc, #160]	; bc <_mr_load_sms_cfg+0xbc>
  18:	e1a01006 	mov	r1, r6
  1c:	ebfffffe 	bl	0 <__aeabi_memclr4>
  20:	e595001c 	ldr	r0, [r5, #28]
  24:	ebfffffe 	bl	0 <mr_info>
  28:	e3500001 	cmp	r0, #1
  2c:	1a000015 	bne	88 <_mr_load_sms_cfg+0x88>
  30:	e595001c 	ldr	r0, [r5, #28]
  34:	e3a01001 	mov	r1, #1
  38:	ebfffffe 	bl	0 <mr_open>
  3c:	e1b04000 	movs	r4, r0
  40:	0a00000d 	beq	7c <_mr_load_sms_cfg+0x7c>
  44:	e59f1070 	ldr	r1, [pc, #112]	; bc <_mr_load_sms_cfg+0xbc>
  48:	e1a02006 	mov	r2, r6
  4c:	e1a00004 	mov	r0, r4
  50:	ebfffffe 	bl	0 <mr_read>
  54:	e1a07000 	mov	r7, r0
  58:	e1a00004 	mov	r0, r4
  5c:	ebfffffe 	bl	0 <mr_close>
  60:	e1570006 	cmp	r7, r6
  64:	0a000010 	beq	ac <_mr_load_sms_cfg+0xac>
  68:	e595001c 	ldr	r0, [r5, #28]
  6c:	e3a0100a 	mov	r1, #10
  70:	ebfffffe 	bl	0 <mr_open>
  74:	e3500000 	cmp	r0, #0
  78:	1a000001 	bne	84 <_mr_load_sms_cfg+0x84>
  7c:	e3e00000 	mvn	r0, #0
  80:	e8bd81f0 	pop	{r4, r5, r6, r7, r8, pc}
  84:	ebfffffe 	bl	0 <mr_close>
  88:	e28f1030 	add	r1, pc, #48	; 0x30
  8c:	e3a00000 	mov	r0, #0
  90:	ebfffffe 	bl	0 <_mr_load_sms_cfg>
  94:	e28f1030 	add	r1, pc, #48	; 0x30
  98:	e3a00001 	mov	r0, #1
  9c:	ebfffffe 	bl	0 <_mr_load_sms_cfg>
  a0:	e28f1030 	add	r1, pc, #48	; 0x30
  a4:	e3a00003 	mov	r0, #3
  a8:	ebfffffe 	bl	0 <_mr_load_sms_cfg>
  ac:	e3a00000 	mov	r0, #0
  b0:	e8bd81f0 	pop	{r4, r5, r6, r7, r8, pc}
  b4:	00000000 	.word	0x00000000
  b8:	000010e0 	.word	0x000010e0
  bc:	00000660 	.word	0x00000660
  c0:	38383135 	.word	0x38383135
  c4:	35303936 	.word	0x35303936
  c8:	00000038 	.word	0x00000038
  cc:	38383139 	.word	0x38383139
  d0:	35303936 	.word	0x35303936
  d4:	00000038 	.word	0x00000038
  d8:	00006161 	.word	0x00006161

Disassembly of section i._mr_smsReplyServer:

00000000 <_mr_smsReplyServer>:
   0:	e92d40f0 	push	{r4, r5, r6, r7, lr}
   4:	e24ddf57 	sub	sp, sp, #348	; 0x15c
   8:	e1a07000 	mov	r7, r0
   c:	e28d0004 	add	r0, sp, #4
  10:	e1a05001 	mov	r5, r1
  14:	ebfffffe 	bl	0 <mr_getUserInfo>
  18:	e3500000 	cmp	r0, #0
  1c:	13e00000 	mvnne	r0, #0
  20:	1a000046 	bne	140 <_mr_smsReplyServer+0x140>
  24:	e3a010a0 	mov	r1, #160	; 0xa0
  28:	e28d0044 	add	r0, sp, #68	; 0x44
  2c:	ebfffffe 	bl	0 <__aeabi_memclr4>
  30:	e3a000fa 	mov	r0, #250	; 0xfa
  34:	e5cd00e4 	strb	r0, [sp, #228]	; 0xe4
  38:	e3a000f1 	mov	r0, #241	; 0xf1
  3c:	e5cd00e5 	strb	r0, [sp, #229]	; 0xe5
  40:	e3550000 	cmp	r5, #0
  44:	e3a00002 	mov	r0, #2
  48:	e3a06011 	mov	r6, #17
  4c:	e28d40e4 	add	r4, sp, #228	; 0xe4
  50:	0a000007 	beq	74 <_mr_smsReplyServer+0x74>
  54:	e3a00006 	mov	r0, #6
  58:	e5cd60e6 	strb	r6, [sp, #230]	; 0xe6
  5c:	e5cd00e7 	strb	r0, [sp, #231]	; 0xe7
  60:	e2840004 	add	r0, r4, #4
  64:	e3a02010 	mov	r2, #16
  68:	e1a01005 	mov	r1, r5
  6c:	ebfffffe 	bl	0 <__aeabi_memcpy>
  70:	e3a00014 	mov	r0, #20
  74:	e7c46000 	strb	r6, [r4, r0]
  78:	e2800001 	add	r0, r0, #1
  7c:	e3a01002 	mov	r1, #2
  80:	e7c41000 	strb	r1, [r4, r0]
  84:	e2805001 	add	r5, r0, #1
  88:	e0840005 	add	r0, r4, r5
  8c:	e28d1004 	add	r1, sp, #4
  90:	e3a02010 	mov	r2, #16
  94:	ebfffffe 	bl	0 <__aeabi_memcpy>
  98:	e2850010 	add	r0, r5, #16
  9c:	e7c46000 	strb	r6, [r4, r0]
  a0:	e2800001 	add	r0, r0, #1
  a4:	e3a01003 	mov	r1, #3
  a8:	e7c41000 	strb	r1, [r4, r0]
  ac:	e2805001 	add	r5, r0, #1
  b0:	e28d6004 	add	r6, sp, #4
  b4:	e2861010 	add	r1, r6, #16
  b8:	e0840005 	add	r0, r4, r5
  bc:	e3a02010 	mov	r2, #16
  c0:	ebfffffe 	bl	0 <__aeabi_memcpy>
  c4:	e2850010 	add	r0, r5, #16
  c8:	e3a01015 	mov	r1, #21
  cc:	e7c41000 	strb	r1, [r4, r0]
  d0:	e2800001 	add	r0, r0, #1
  d4:	e3a01004 	mov	r1, #4
  d8:	e7c41000 	strb	r1, [r4, r0]
  dc:	e2805001 	add	r5, r0, #1
  e0:	e59d0034 	ldr	r0, [sp, #52]	; 0x34
  e4:	e59d1034 	ldr	r1, [sp, #52]	; 0x34
  e8:	e1a00c20 	lsr	r0, r0, #24
  ec:	e20118ff 	and	r1, r1, #16711680	; 0xff0000
  f0:	e1800421 	orr	r0, r0, r1, lsr #8
  f4:	e59d1034 	ldr	r1, [sp, #52]	; 0x34
  f8:	e3a02014 	mov	r2, #20
  fc:	e2011cff 	and	r1, r1, #65280	; 0xff00
 100:	e1800401 	orr	r0, r0, r1, lsl #8
 104:	e59d1034 	ldr	r1, [sp, #52]	; 0x34
 108:	e1800c01 	orr	r0, r0, r1, lsl #24
 10c:	e58d0034 	str	r0, [sp, #52]	; 0x34
 110:	e0840005 	add	r0, r4, r5
 114:	e2861020 	add	r1, r6, #32
 118:	ebfffffe 	bl	0 <__aeabi_memcpy>
 11c:	e2851014 	add	r1, r5, #20
 120:	e28d2044 	add	r2, sp, #68	; 0x44
 124:	e28d00e4 	add	r0, sp, #228	; 0xe4
 128:	ebfffffe 	bl	0 <_mr_encode>
 12c:	e3a02018 	mov	r2, #24
 130:	e28d1044 	add	r1, sp, #68	; 0x44
 134:	e1a00007 	mov	r0, r7
 138:	ebfffffe 	bl	0 <mr_sendSms>
 13c:	e3a00000 	mov	r0, #0
 140:	e28ddf57 	add	sp, sp, #348	; 0x15c
 144:	e8bd80f0 	pop	{r4, r5, r6, r7, pc}

Disassembly of section i._mr_smsGetNum:

00000000 <_mr_smsGetNum>:
   0:	e92d4010 	push	{r4, lr}
   4:	e1a04001 	mov	r4, r1
   8:	e3a01078 	mov	r1, #120	; 0x78
   c:	e0810280 	add	r0, r1, r0, lsl #5
  10:	e24dd020 	sub	sp, sp, #32
  14:	e1a0100d 	mov	r1, sp
  18:	e3a02020 	mov	r2, #32
  1c:	ebfffffe 	bl	0 <_mr_smsGetNum>
  20:	e1a0000d 	mov	r0, sp
  24:	ebfffffe 	bl	0 <strlen>
  28:	e350001f 	cmp	r0, #31
  2c:	83a0001f 	movhi	r0, #31
  30:	8a000001 	bhi	3c <_mr_smsGetNum+0x3c>
  34:	e1a0000d 	mov	r0, sp
  38:	ebfffffe 	bl	0 <strlen>
  3c:	e1a01000 	mov	r1, r0
  40:	e1a0000d 	mov	r0, sp
  44:	e1a02004 	mov	r2, r4
  48:	ebfffffe 	bl	0 <_mr_decode>
  4c:	e3500000 	cmp	r0, #0
  50:	13500020 	cmpne	r0, #32
  54:	e3a01000 	mov	r1, #0
  58:	25c41000 	strbcs	r1, [r4]
  5c:	37c41000 	strbcc	r1, [r4, r0]
  60:	e28dd020 	add	sp, sp, #32
  64:	33a00000 	movcc	r0, #0
  68:	23e00000 	mvncs	r0, #0
  6c:	e8bd8010 	pop	{r4, pc}

Disassembly of section i._mr_newSIMInd:

00000000 <_mr_newSIMInd>:
   0:	e92d4070 	push	{r4, r5, r6, lr}
   4:	e24dd028 	sub	sp, sp, #40	; 0x28
   8:	e1a06001 	mov	r6, r1
   c:	e1a04000 	mov	r4, r0
  10:	ebfffffe 	bl	0 <mr_getNetworkID>
  14:	e3540000 	cmp	r4, #0
  18:	13540001 	cmpne	r4, #1
  1c:	e1a05000 	mov	r5, r0
  20:	1a00001e 	bne	a0 <_mr_newSIMInd+0xa0>
  24:	ebfffffe 	bl	0 <_mr_newSIMInd>
  28:	ebfffffe 	bl	0 <_mr_newSIMInd>
  2c:	e3a02001 	mov	r2, #1
  30:	e28d1024 	add	r1, sp, #36	; 0x24
  34:	e3a00005 	mov	r0, #5
  38:	ebfffffe 	bl	0 <_mr_newSIMInd>
  3c:	e5dd0024 	ldrb	r0, [sp, #36]	; 0x24
  40:	e3500080 	cmp	r0, #128	; 0x80
  44:	3a000003 	bcc	58 <_mr_newSIMInd+0x58>
  48:	e28d1004 	add	r1, sp, #4
  4c:	e3a00003 	mov	r0, #3
  50:	ebfffffe 	bl	0 <_mr_newSIMInd>
  54:	ea00000e 	b	94 <_mr_newSIMInd+0x94>
  58:	e3550000 	cmp	r5, #0
  5c:	028d1004 	addeq	r1, sp, #4
  60:	03a00000 	moveq	r0, #0
  64:	0a000004 	beq	7c <_mr_newSIMInd+0x7c>
  68:	e3550001 	cmp	r5, #1
  6c:	13550002 	cmpne	r5, #2
  70:	1a000004 	bne	88 <_mr_newSIMInd+0x88>
  74:	e28d1004 	add	r1, sp, #4
  78:	e3a00001 	mov	r0, #1
  7c:	ebfffffe 	bl	0 <_mr_newSIMInd>
  80:	e3700001 	cmn	r0, #1
  84:	1a000002 	bne	94 <_mr_newSIMInd+0x94>
  88:	e3e00000 	mvn	r0, #0
  8c:	e28dd028 	add	sp, sp, #40	; 0x28
  90:	e8bd8070 	pop	{r4, r5, r6, pc}
  94:	e1a01006 	mov	r1, r6
  98:	e28d0004 	add	r0, sp, #4
  9c:	ebfffffe 	bl	0 <_mr_newSIMInd>
  a0:	e3a00000 	mov	r0, #0
  a4:	eafffff8 	b	8c <_mr_newSIMInd+0x8c>

Disassembly of section i.mr_newSIMInd:

00000000 <mr_newSIMInd>:
   0:	eafffffe 	b	0 <mr_newSIMInd>

Disassembly of section i._mr_TestCom:

00000000 <_mr_TestCom>:
   0:	e92d43f8 	push	{r3, r4, r5, r6, r7, r8, r9, lr}
   4:	e59f644c 	ldr	r6, [pc, #1100]	; 458 <_mr_TestCom+0x458>
   8:	e59fc44c 	ldr	ip, [pc, #1100]	; 45c <_mr_TestCom+0x45c>
   c:	e1a08000 	mov	r8, r0
  10:	e5960008 	ldr	r0, [r6, #8]
  14:	e151000c 	cmp	r1, ip
  18:	03a00001 	moveq	r0, #1
  1c:	e1a04002 	mov	r4, r2
  20:	05c60002 	strbeq	r0, [r6, #2]
  24:	e3a05000 	mov	r5, #0
  28:	0586408c 	streq	r4, [r6, #140]	; 0x8c
  2c:	0a000127 	beq	4d0 <_mr_TestCom+0x4d0>
  30:	ca00003c 	bgt	128 <_mr_TestCom+0x128>
  34:	e3510066 	cmp	r1, #102	; 0x66
  38:	05965088 	ldreq	r5, [r6, #136]	; 0x88
  3c:	0a000123 	beq	4d0 <_mr_TestCom+0x4d0>
  40:	ca00001a 	bgt	b0 <_mr_TestCom+0xb0>
  44:	e3510005 	cmp	r1, #5
  48:	05864030 	streq	r4, [r6, #48]	; 0x30
  4c:	0a00011f 	beq	4d0 <_mr_TestCom+0x4d0>
  50:	ca00000a 	bgt	80 <_mr_TestCom+0x80>
  54:	e3510001 	cmp	r1, #1
  58:	0a000089 	beq	284 <_mr_TestCom+0x284>
  5c:	e3510002 	cmp	r1, #2
  60:	05864024 	streq	r4, [r6, #36]	; 0x24
  64:	0a000119 	beq	4d0 <_mr_TestCom+0x4d0>
  68:	e3510003 	cmp	r1, #3
  6c:	05864028 	streq	r4, [r6, #40]	; 0x28
  70:	0a000116 	beq	4d0 <_mr_TestCom+0x4d0>
  74:	e3510004 	cmp	r1, #4
  78:	0586402c 	streq	r4, [r6, #44]	; 0x2c
  7c:	ea000113 	b	4d0 <_mr_TestCom+0x4d0>
  80:	e3510006 	cmp	r1, #6
  84:	05864034 	streq	r4, [r6, #52]	; 0x34
  88:	0a000110 	beq	4d0 <_mr_TestCom+0x4d0>
  8c:	e3510007 	cmp	r1, #7
  90:	01a00004 	moveq	r0, r4
  94:	0a000046 	beq	1b4 <_mr_TestCom+0x1b4>
  98:	e3510064 	cmp	r1, #100	; 0x64
  9c:	0596506c 	ldreq	r5, [r6, #108]	; 0x6c
  a0:	0a00010a 	beq	4d0 <_mr_TestCom+0x4d0>
  a4:	e3510065 	cmp	r1, #101	; 0x65
  a8:	05965070 	ldreq	r5, [r6, #112]	; 0x70
  ac:	ea000107 	b	4d0 <_mr_TestCom+0x4d0>
  b0:	e59fc3a8 	ldr	ip, [pc, #936]	; 460 <_mr_TestCom+0x460>
  b4:	e151000c 	cmp	r1, ip
  b8:	03800004 	orreq	r0, r0, #4
  bc:	0a000102 	beq	4cc <_mr_TestCom+0x4cc>
  c0:	ca00000c 	bgt	f8 <_mr_TestCom+0xf8>
  c4:	e35100c8 	cmp	r1, #200	; 0xc8
  c8:	0a00006f 	beq	28c <_mr_TestCom+0x28c>
  cc:	e35100c9 	cmp	r1, #201	; 0xc9
  d0:	0a0000fe 	beq	4d0 <_mr_TestCom+0x4d0>
  d4:	e1a00c04 	lsl	r0, r4, #24
  d8:	e3510f4b 	cmp	r1, #300	; 0x12c
  dc:	e1a00c40 	asr	r0, r0, #24
  e0:	05c60000 	strbeq	r0, [r6]
  e4:	0a0000f9 	beq	4d0 <_mr_TestCom+0x4d0>
  e8:	e241cc01 	sub	ip, r1, #256	; 0x100
  ec:	e25cc02d 	subs	ip, ip, #45	; 0x2d
  f0:	05c60001 	strbeq	r0, [r6, #1]
  f4:	ea0000f5 	b	4d0 <_mr_TestCom+0x4d0>
  f8:	e241cc01 	sub	ip, r1, #256	; 0x100
  fc:	e25cc02f 	subs	ip, ip, #47	; 0x2f
 100:	03c00004 	biceq	r0, r0, #4
 104:	0a0000f0 	beq	4cc <_mr_TestCom+0x4cc>
 108:	e3510e13 	cmp	r1, #304	; 0x130
 10c:	03800008 	orreq	r0, r0, #8
 110:	0a0000ed 	beq	4cc <_mr_TestCom+0x4cc>
 114:	e241cc01 	sub	ip, r1, #256	; 0x100
 118:	e25cc031 	subs	ip, ip, #49	; 0x31
 11c:	1a0000eb 	bne	4d0 <_mr_TestCom+0x4d0>
 120:	e3c00008 	bic	r0, r0, #8
 124:	ea0000e8 	b	4cc <_mr_TestCom+0x4cc>
 128:	e3510f66 	cmp	r1, #408	; 0x198
 12c:	e3a02000 	mov	r2, #0
 130:	0a00008a 	beq	360 <_mr_TestCom+0x360>
 134:	ca000030 	bgt	1fc <_mr_TestCom+0x1fc>
 138:	e59fc324 	ldr	ip, [pc, #804]	; 464 <_mr_TestCom+0x464>
 13c:	e151000c 	cmp	r1, ip
 140:	0a00005d 	beq	2bc <_mr_TestCom+0x2bc>
 144:	ca00001b 	bgt	1b8 <_mr_TestCom+0x1b8>
 148:	e241cc01 	sub	ip, r1, #256	; 0x100
 14c:	e25cc033 	subs	ip, ip, #51	; 0x33
 150:	05c62002 	strbeq	r2, [r6, #2]
 154:	0a0000dd 	beq	4d0 <_mr_TestCom+0x4d0>
 158:	e3510e19 	cmp	r1, #400	; 0x190
 15c:	0a000053 	beq	2b0 <_mr_TestCom+0x2b0>
 160:	e241cc01 	sub	ip, r1, #256	; 0x100
 164:	e25cc091 	subs	ip, ip, #145	; 0x91
 168:	05965044 	ldreq	r5, [r6, #68]	; 0x44
 16c:	05864044 	streq	r4, [r6, #68]	; 0x44
 170:	0a0000d6 	beq	4d0 <_mr_TestCom+0x4d0>
 174:	e241cc01 	sub	ip, r1, #256	; 0x100
 178:	e25cc092 	subs	ip, ip, #146	; 0x92
 17c:	1a0000d3 	bne	4d0 <_mr_TestCom+0x4d0>
 180:	e3a01002 	mov	r1, #2
 184:	e1a00008 	mov	r0, r8
 188:	ebfffffe 	bl	0 <mrp_isnumber>
 18c:	e3500000 	cmp	r0, #0
 190:	128f0e2d 	addne	r0, pc, #720	; 0x2d0
 194:	1a000003 	bne	1a8 <_mr_TestCom+0x1a8>
 198:	e28f2fb2 	add	r2, pc, #712	; 0x2c8
 19c:	e3a01002 	mov	r1, #2
 1a0:	e1a00008 	mov	r0, r8
 1a4:	ebfffffe 	bl	0 <to_mr_tostring>
 1a8:	e1a01000 	mov	r1, r0
 1ac:	e1a00008 	mov	r0, r8
 1b0:	ebfffffe 	bl	0 <mropen_socket>
 1b4:	e8bd83f8 	pop	{r3, r4, r5, r6, r7, r8, r9, pc}
 1b8:	e3510f65 	cmp	r1, #404	; 0x194
 1bc:	0a000042 	beq	2cc <_mr_TestCom+0x2cc>
 1c0:	e241cc01 	sub	ip, r1, #256	; 0x100
 1c4:	e25cc095 	subs	ip, ip, #149	; 0x95
 1c8:	0a000044 	beq	2e0 <_mr_TestCom+0x2e0>
 1cc:	e241cc01 	sub	ip, r1, #256	; 0x100
 1d0:	e25cc096 	subs	ip, ip, #150	; 0x96
 1d4:	05965048 	ldreq	r5, [r6, #72]	; 0x48
 1d8:	05864048 	streq	r4, [r6, #72]	; 0x48
 1dc:	0a0000bb 	beq	4d0 <_mr_TestCom+0x4d0>
 1e0:	e241cc01 	sub	ip, r1, #256	; 0x100
 1e4:	e25cc097 	subs	ip, ip, #151	; 0x97
 1e8:	059f0280 	ldreq	r0, [pc, #640]	; 470 <_mr_TestCom+0x470>
 1ec:	01a01004 	moveq	r1, r4
 1f0:	05864010 	streq	r4, [r6, #16]
 1f4:	0bfffffe 	bleq	0 <mr_plat>
 1f8:	ea0000b4 	b	4d0 <_mr_TestCom+0x4d0>
 1fc:	e3510f7e 	cmp	r1, #504	; 0x1f8
 200:	0a0000a5 	beq	49c <_mr_TestCom+0x49c>
 204:	ca000011 	bgt	250 <_mr_TestCom+0x250>
 208:	e3510f7d 	cmp	r1, #500	; 0x1f4
 20c:	0a00006a 	beq	3bc <_mr_TestCom+0x3bc>
 210:	e241cc01 	sub	ip, r1, #256	; 0x100
 214:	e25cc0f5 	subs	ip, ip, #245	; 0xf5
 218:	0a000069 	beq	3c4 <_mr_TestCom+0x3c4>
 21c:	e241cc01 	sub	ip, r1, #256	; 0x100
 220:	e25cc0f6 	subs	ip, ip, #246	; 0xf6
 224:	0a00007b 	beq	418 <_mr_TestCom+0x418>
 228:	e241cc01 	sub	ip, r1, #256	; 0x100
 22c:	e25cc0f7 	subs	ip, ip, #247	; 0xf7
 230:	1a0000a6 	bne	4d0 <_mr_TestCom+0x4d0>
 234:	e58d2000 	str	r2, [sp]
 238:	e3a02001 	mov	r2, #1
 23c:	e1a0100d 	mov	r1, sp
 240:	e3a00005 	mov	r0, #5
 244:	ebfffffe 	bl	0 <_mr_TestCom>
 248:	e5dd5000 	ldrb	r5, [sp]
 24c:	ea00009f 	b	4d0 <_mr_TestCom+0x4d0>
 250:	e241cb03 	sub	ip, r1, #3072	; 0xc00
 254:	e25cc0b3 	subs	ip, ip, #179	; 0xb3
 258:	0a000097 	beq	4bc <_mr_TestCom+0x4bc>
 25c:	e241cc0e 	sub	ip, r1, #3584	; 0xe00
 260:	e25cc02d 	subs	ip, ip, #45	; 0x2d
 264:	0a00008f 	beq	4a8 <_mr_TestCom+0x4a8>
 268:	e241cc0f 	sub	ip, r1, #3840	; 0xf00
 26c:	e25cc051 	subs	ip, ip, #81	; 0x51
 270:	0244c906 	subeq	ip, r4, #98304	; 0x18000
 274:	025cc030 	subseq	ip, ip, #48	; 0x30
 278:	1a000094 	bne	4d0 <_mr_TestCom+0x4d0>
 27c:	e3800002 	orr	r0, r0, #2
 280:	ea000091 	b	4cc <_mr_TestCom+0x4cc>
 284:	ebfffffe 	bl	0 <mr_getTime>
 288:	ea000070 	b	450 <_mr_TestCom+0x450>
 28c:	e5960004 	ldr	r0, [r6, #4]
 290:	e3500001 	cmp	r0, #1
 294:	1a00008d 	bne	4d0 <_mr_TestCom+0x4d0>
 298:	e5d60001 	ldrb	r0, [r6, #1]
 29c:	e3500000 	cmp	r0, #0
 2a0:	0a00008a 	beq	4d0 <_mr_TestCom+0x4d0>
 2a4:	e1a00004 	mov	r0, r4
 2a8:	ebfffffe 	bl	0 <mr_startShake>
 2ac:	ea000067 	b	450 <_mr_TestCom+0x450>
 2b0:	e1a00004 	mov	r0, r4
 2b4:	ebfffffe 	bl	0 <mr_sleep>
 2b8:	ea000084 	b	4d0 <_mr_TestCom+0x4d0>
 2bc:	e1a01004 	mov	r1, r4
 2c0:	e1a00008 	mov	r0, r8
 2c4:	ebfffffe 	bl	0 <mrp_setgcthreshold>
 2c8:	ea000080 	b	4d0 <_mr_TestCom+0x4d0>
 2cc:	e1a00804 	lsl	r0, r4, #16
 2d0:	e1a00840 	asr	r0, r0, #16
 2d4:	e3a01000 	mov	r1, #0
 2d8:	ebfffffe 	bl	0 <_mr_TestCom>
 2dc:	ea00005b 	b	450 <_mr_TestCom+0x450>
 2e0:	ebfffffe 	bl	0 <mr_closeNetwork>
 2e4:	e1a05000 	mov	r5, r0
 2e8:	e1a00008 	mov	r0, r8
 2ec:	e28f1d06 	add	r1, pc, #384	; 0x180
 2f0:	ebfffffe 	bl	0 <mrp_pushstring>
 2f4:	e59f1180 	ldr	r1, [pc, #384]	; 47c <_mr_TestCom+0x47c>
 2f8:	e1a00008 	mov	r0, r8
 2fc:	ebfffffe 	bl	0 <mrp_rawget>
 300:	e3e01000 	mvn	r1, #0
 304:	e1a00008 	mov	r0, r8
 308:	ebfffffe 	bl	0 <mrp_type>
 30c:	e3500005 	cmp	r0, #5
 310:	0a000005 	beq	32c <_mr_TestCom+0x32c>
 314:	e3e01001 	mvn	r1, #1
 318:	e1a00008 	mov	r0, r8
 31c:	ebfffffe 	bl	0 <mrp_settop>
 320:	e28f0f56 	add	r0, pc, #344	; 0x158
 324:	ebfffffe 	bl	0 <mr_printf>
 328:	ea000068 	b	4d0 <_mr_TestCom+0x4d0>
 32c:	e28f1f57 	add	r1, pc, #348	; 0x15c
 330:	e1a00008 	mov	r0, r8
 334:	ebfffffe 	bl	0 <mrp_pushstring>
 338:	e3a01003 	mov	r1, #3
 33c:	e1a00008 	mov	r0, r8
 340:	ebfffffe 	bl	0 <mrp_pushnumber>
 344:	e3e01002 	mvn	r1, #2
 348:	e1a00008 	mov	r0, r8
 34c:	ebfffffe 	bl	0 <mrp_rawset>
 350:	e3e01001 	mvn	r1, #1
 354:	e1a00008 	mov	r0, r8
 358:	ebfffffe 	bl	0 <mrp_settop>
 35c:	ea00005b 	b	4d0 <_mr_TestCom+0x4d0>
 360:	e59f7130 	ldr	r7, [pc, #304]	; 498 <_mr_TestCom+0x498>
 364:	e59701e8 	ldr	r0, [r7, #488]	; 0x1e8
 368:	e3500000 	cmp	r0, #0
 36c:	1a00000b 	bne	3a0 <_mr_TestCom+0x3a0>
 370:	e1a00004 	mov	r0, r4
 374:	ebfffffe 	bl	0 <_mr_TestCom>
 378:	e3500000 	cmp	r0, #0
 37c:	e58701ec 	str	r0, [r7, #492]	; 0x1ec
 380:	0a00000b 	beq	3b4 <_mr_TestCom+0x3b4>
 384:	e59711e4 	ldr	r1, [r7, #484]	; 0x1e4
 388:	e5960040 	ldr	r0, [r6, #64]	; 0x40
 38c:	ebfffffe 	bl	0 <_mr_TestCom>
 390:	e59701ec 	ldr	r0, [r7, #492]	; 0x1ec
 394:	e5860040 	str	r0, [r6, #64]	; 0x40
 398:	e58741e4 	str	r4, [r7, #484]	; 0x1e4
 39c:	ea00004b 	b	4d0 <_mr_TestCom+0x4d0>
 3a0:	e3500001 	cmp	r0, #1
 3a4:	1a000049 	bne	4d0 <_mr_TestCom+0x4d0>
 3a8:	e59701e4 	ldr	r0, [r7, #484]	; 0x1e4
 3ac:	e1500004 	cmp	r0, r4
 3b0:	2a000046 	bcs	4d0 <_mr_TestCom+0x4d0>
 3b4:	e3e05000 	mvn	r5, #0
 3b8:	ea000044 	b	4d0 <_mr_TestCom+0x4d0>
 3bc:	ebfffffe 	bl	0 <_mr_TestCom>
 3c0:	ea000022 	b	450 <_mr_TestCom+0x450>
 3c4:	e3a02000 	mov	r2, #0
 3c8:	e3a01003 	mov	r1, #3
 3cc:	e1a00008 	mov	r0, r8
 3d0:	ebfffffe 	bl	0 <to_mr_tonumber>
 3d4:	e1a06000 	mov	r6, r0
 3d8:	ebfffffe 	bl	0 <_mr_TestCom>
 3dc:	e1b05000 	movs	r5, r0
 3e0:	0a00000a 	beq	410 <_mr_TestCom+0x410>
 3e4:	e1a02006 	mov	r2, r6
 3e8:	e1a01005 	mov	r1, r5
 3ec:	e1a00004 	mov	r0, r4
 3f0:	ebfffffe 	bl	0 <_mr_TestCom>
 3f4:	e1a02006 	mov	r2, r6
 3f8:	e1a01005 	mov	r1, r5
 3fc:	e1a00008 	mov	r0, r8
 400:	ebfffffe 	bl	0 <mrp_pushlstring>
 404:	e1a01006 	mov	r1, r6
 408:	e1a00005 	mov	r0, r5
 40c:	ebfffffe 	bl	0 <_mr_TestCom>
 410:	e3a00001 	mov	r0, #1
 414:	e8bd83f8 	pop	{r3, r4, r5, r6, r7, r8, r9, pc}
 418:	e3a02000 	mov	r2, #0
 41c:	e3a01003 	mov	r1, #3
 420:	e1a00008 	mov	r0, r8
 424:	ebfffffe 	bl	0 <to_mr_tonumber>
 428:	e1a06000 	mov	r6, r0
 42c:	e1a00008 	mov	r0, r8
 430:	e3a01004 	mov	r1, #4
 434:	ebfffffe 	bl	0 <mrp_tostring>
 438:	e3500000 	cmp	r0, #0
 43c:	0a000023 	beq	4d0 <_mr_TestCom+0x4d0>
 440:	e1a01000 	mov	r1, r0
 444:	e1a00004 	mov	r0, r4
 448:	e1a02006 	mov	r2, r6
 44c:	ebfffffe 	bl	0 <_mr_TestCom>
 450:	e1a05000 	mov	r5, r0
 454:	ea00001d 	b	4d0 <_mr_TestCom+0x4d0>
 458:	00000000 	.word	0x00000000
 45c:	00000132 	.word	0x00000132
 460:	0000012e 	.word	0x0000012e
 464:	00000193 	.word	0x00000193
 468:	656e6d63 	.word	0x656e6d63
 46c:	00000074 	.word	0x00000074
 470:	000004b2 	.word	0x000004b2
 474:	6b636f73 	.word	0x6b636f73
 478:	00007465 	.word	0x00007465
 47c:	ffffd8ef 	.word	0xffffd8ef
 480:	6b636f53 	.word	0x6b636f53
 484:	49207465 	.word	0x49207465
 488:	21454c44 	.word	0x21454c44
 48c:	00000000 	.word	0x00000000
 490:	74617473 	.word	0x74617473
 494:	00000065 	.word	0x00000065
 498:	000000d8 	.word	0x000000d8
 49c:	e1a00004 	mov	r0, r4
 4a0:	ebfffffe 	bl	0 <_mr_TestCom>
 4a4:	eaffffe9 	b	450 <_mr_TestCom+0x450>
 4a8:	e244cc0b 	sub	ip, r4, #2816	; 0xb00
 4ac:	e25cc061 	subs	ip, ip, #97	; 0x61
 4b0:	1a000006 	bne	4d0 <_mr_TestCom+0x4d0>
 4b4:	e3800001 	orr	r0, r0, #1
 4b8:	ea000003 	b	4cc <_mr_TestCom+0x4cc>
 4bc:	e59f1028 	ldr	r1, [pc, #40]	; 4ec <_mr_TestCom+0x4ec>
 4c0:	e1540001 	cmp	r4, r1
 4c4:	1a000001 	bne	4d0 <_mr_TestCom+0x4d0>
 4c8:	e3c00002 	bic	r0, r0, #2
 4cc:	e5860008 	str	r0, [r6, #8]
 4d0:	e3580000 	cmp	r8, #0
 4d4:	03a00000 	moveq	r0, #0
 4d8:	08bd83f8 	popeq	{r3, r4, r5, r6, r7, r8, r9, pc}
 4dc:	e1a01005 	mov	r1, r5
 4e0:	e1a00008 	mov	r0, r8
 4e4:	ebfffffe 	bl	0 <to_mr_pushnumber>
 4e8:	eaffffc8 	b	410 <_mr_TestCom+0x410>
 4ec:	0009e67a 	.word	0x0009e67a

Disassembly of section i.MRF_TestCom:

00000000 <MRF_TestCom>:
   0:	e92d4070 	push	{r4, r5, r6, lr}
   4:	e1a05000 	mov	r5, r0
   8:	e3a02000 	mov	r2, #0
   c:	e3a01001 	mov	r1, #1
  10:	ebfffffe 	bl	0 <to_mr_tonumber>
  14:	e1a04000 	mov	r4, r0
  18:	e1a00005 	mov	r0, r5
  1c:	e3a02000 	mov	r2, #0
  20:	e3a01002 	mov	r1, #2
  24:	ebfffffe 	bl	0 <to_mr_tonumber>
  28:	e1a02000 	mov	r2, r0
  2c:	e1a00005 	mov	r0, r5
  30:	e1a01004 	mov	r1, r4
  34:	e8bd4070 	pop	{r4, r5, r6, lr}
  38:	eafffffe 	b	0 <MRF_TestCom>

Disassembly of section i.mr_stop_ex:

00000000 <mr_stop_ex>:
   0:	e92d41fc 	push	{r2, r3, r4, r5, r6, r7, r8, lr}
   4:	e59f4134 	ldr	r4, [pc, #308]	; 140 <mr_stop_ex+0x140>
   8:	e1a05000 	mov	r5, r0
   c:	e5940004 	ldr	r0, [r4, #4]
  10:	e3500000 	cmp	r0, #0
  14:	03a00001 	moveq	r0, #1
  18:	0a000047 	beq	13c <mr_stop_ex+0x13c>
  1c:	e3500001 	cmp	r0, #1
  20:	e59f711c 	ldr	r7, [pc, #284]	; 144 <mr_stop_ex+0x144>
  24:	13500002 	cmpne	r0, #2
  28:	1a000016 	bne	88 <mr_stop_ex+0x88>
  2c:	e594003c 	ldr	r0, [r4, #60]	; 0x3c
  30:	e28f1e11 	add	r1, pc, #272	; 0x110
  34:	ebfffffe 	bl	0 <mrp_pushstring>
  38:	e594003c 	ldr	r0, [r4, #60]	; 0x3c
  3c:	e1a01007 	mov	r1, r7
  40:	ebfffffe 	bl	0 <mrp_gettable>
  44:	e594003c 	ldr	r0, [r4, #60]	; 0x3c
  48:	e3e01000 	mvn	r1, #0
  4c:	ebfffffe 	bl	0 <mrp_type>
  50:	e3500006 	cmp	r0, #6
  54:	1a000006 	bne	74 <mr_stop_ex+0x74>
  58:	e594003c 	ldr	r0, [r4, #60]	; 0x3c
  5c:	e3a01008 	mov	r1, #8
  60:	ebfffffe 	bl	0 <mrp_pushnumber>
  64:	e3a01000 	mov	r1, #0
  68:	e3a00001 	mov	r0, #1
  6c:	ebfffffe 	bl	0 <mr_stop_ex>
  70:	ea000004 	b	88 <mr_stop_ex+0x88>
  74:	e28f00d8 	add	r0, pc, #216	; 0xd8
  78:	ebfffffe 	bl	0 <mr_printf>
  7c:	e594003c 	ldr	r0, [r4, #60]	; 0x3c
  80:	e3e01001 	mvn	r1, #1
  84:	ebfffffe 	bl	0 <mrp_settop>
  88:	e3a06000 	mov	r6, #0
  8c:	e5846004 	str	r6, [r4, #4]
  90:	e584600c 	str	r6, [r4, #12]
  94:	e3550000 	cmp	r5, #0
  98:	e5846010 	str	r6, [r4, #16]
  9c:	0a00000d 	beq	d8 <mr_stop_ex+0xd8>
  a0:	e59f00bc 	ldr	r0, [pc, #188]	; 164 <mr_stop_ex+0x164>
  a4:	e59011e8 	ldr	r1, [r0, #488]	; 0x1e8
  a8:	e3510000 	cmp	r1, #0
  ac:	0a000008 	beq	d4 <mr_stop_ex+0xd4>
  b0:	e3510001 	cmp	r1, #1
  b4:	1a000006 	bne	d4 <mr_stop_ex+0xd4>
  b8:	e3a03000 	mov	r3, #0
  bc:	e58d3000 	str	r3, [sp]
  c0:	e58d3004 	str	r3, [sp, #4]
  c4:	e59021e4 	ldr	r2, [r0, #484]	; 0x1e4
  c8:	e59f0098 	ldr	r0, [pc, #152]	; 168 <mr_stop_ex+0x168>
  cc:	e5941040 	ldr	r1, [r4, #64]	; 0x40
  d0:	ebfffffe 	bl	0 <mr_platEx>
  d4:	e5846040 	str	r6, [r4, #64]	; 0x40
  d8:	e5940008 	ldr	r0, [r4, #8]
  dc:	e3100004 	tst	r0, #4
  e0:	1a000010 	bne	128 <mr_stop_ex+0x128>
  e4:	e594003c 	ldr	r0, [r4, #60]	; 0x3c
  e8:	e28f107c 	add	r1, pc, #124	; 0x7c
  ec:	ebfffffe 	bl	0 <mrp_pushstring>
  f0:	e594003c 	ldr	r0, [r4, #60]	; 0x3c
  f4:	e1a01007 	mov	r1, r7
  f8:	ebfffffe 	bl	0 <mrp_rawget>
  fc:	e594003c 	ldr	r0, [r4, #60]	; 0x3c
 100:	e3e01000 	mvn	r1, #0
 104:	ebfffffe 	bl	0 <mrp_type>
 108:	e3500005 	cmp	r0, #5
 10c:	1a000003 	bne	120 <mr_stop_ex+0x120>
 110:	ebfffffe 	bl	0 <mr_closeNetwork>
 114:	e594003c 	ldr	r0, [r4, #60]	; 0x3c
 118:	e3e01001 	mvn	r1, #1
 11c:	ebfffffe 	bl	0 <mrp_settop>
 120:	e594003c 	ldr	r0, [r4, #60]	; 0x3c
 124:	ebfffffe 	bl	0 <mrp_close>
 128:	e3550000 	cmp	r5, #0
 12c:	1594007c 	ldrne	r0, [r4, #124]	; 0x7c
 130:	15941080 	ldrne	r1, [r4, #128]	; 0x80
 134:	1bfffffe 	blne	0 <mr_mem_free>
 138:	e3a00000 	mov	r0, #0
 13c:	e8bd81fc 	pop	{r2, r3, r4, r5, r6, r7, r8, pc}
 140:	00000000 	.word	0x00000000
 144:	ffffd8ef 	.word	0xffffd8ef
 148:	6c616564 	.word	0x6c616564
 14c:	6e657665 	.word	0x6e657665
 150:	00000074 	.word	0x00000074
 154:	74697865 	.word	0x74697865
 158:	20656420 	.word	0x20656420
 15c:	6e207369 	.word	0x6e207369
 160:	00216c69 	.word	0x00216c69
 164:	000000d8 	.word	0x000000d8
 168:	000003ea 	.word	0x000003ea
 16c:	6b636f73 	.word	0x6b636f73
 170:	00007465 	.word	0x00007465

Disassembly of section i.mr_stop:

00000000 <mr_stop>:
   0:	e92d4010 	push	{r4, lr}
   4:	e59f4028 	ldr	r4, [pc, #40]	; 34 <mr_stop+0x34>
   8:	e594002c 	ldr	r0, [r4, #44]	; 0x2c
   c:	e3500000 	cmp	r0, #0
  10:	0a000004 	beq	28 <mr_stop+0x28>
  14:	e12fff30 	blx	r0
  18:	e3a01000 	mov	r1, #0
  1c:	e3500001 	cmp	r0, #1
  20:	e584102c 	str	r1, [r4, #44]	; 0x2c
  24:	18bd8010 	popne	{r4, pc}
  28:	e8bd4010 	pop	{r4, lr}
  2c:	e3a00001 	mov	r0, #1
  30:	eafffffe 	b	0 <mr_stop>
  34:	00000000 	.word	0x00000000

Disassembly of section i._mr_pcall:

00000000 <_mr_pcall>:
   0:	e92d4070 	push	{r4, r5, r6, lr}
   4:	e59f40cc 	ldr	r4, [pc, #204]	; d8 <_mr_pcall+0xd8>
   8:	e1a02001 	mov	r2, r1
   c:	e1a01000 	mov	r1, r0
  10:	e594003c 	ldr	r0, [r4, #60]	; 0x3c
  14:	e3a03000 	mov	r3, #0
  18:	ebfffffe 	bl	0 <mrp_pcall>
  1c:	e3500000 	cmp	r0, #0
  20:	0a00002a 	beq	d0 <_mr_pcall+0xd0>
  24:	e5940004 	ldr	r0, [r4, #4]
  28:	e3a05000 	mov	r5, #0
  2c:	e3500004 	cmp	r0, #4
  30:	1a00000a 	bne	60 <_mr_pcall+0x60>
  34:	e5940038 	ldr	r0, [r4, #56]	; 0x38
  38:	e3500000 	cmp	r0, #0
  3c:	0a000005 	beq	58 <_mr_pcall+0x58>
  40:	ebfffffe 	bl	0 <_mr_pcall>
  44:	e5941038 	ldr	r1, [r4, #56]	; 0x38
  48:	e59400a4 	ldr	r0, [r4, #164]	; 0xa4
  4c:	e12fff31 	blx	r1
  50:	e5845038 	str	r5, [r4, #56]	; 0x38
  54:	ea00001d 	b	d0 <_mr_pcall+0xd0>
  58:	ebfffffe 	bl	0 <_mr_pcall>
  5c:	ea00001b 	b	d0 <_mr_pcall+0xd0>
  60:	e5940008 	ldr	r0, [r4, #8]
  64:	e3a02005 	mov	r2, #5
  68:	e3100008 	tst	r0, #8
  6c:	1a000013 	bne	c0 <_mr_pcall+0xc0>
  70:	e5940044 	ldr	r0, [r4, #68]	; 0x44
  74:	e5941048 	ldr	r1, [r4, #72]	; 0x48
  78:	e0000091 	mul	r0, r1, r0
  7c:	e3500b01 	cmp	r0, #1024	; 0x400
  80:	da00000e 	ble	c0 <_mr_pcall+0xc0>
  84:	e5842004 	str	r2, [r4, #4]
  88:	e5940014 	ldr	r0, [r4, #20]
  8c:	e3500000 	cmp	r0, #0
  90:	0a000002 	beq	a0 <_mr_pcall+0xa0>
  94:	ebfffffe 	bl	0 <_mr_pcall>
  98:	e5845014 	str	r5, [r4, #20]
  9c:	ea000003 	b	b0 <_mr_pcall+0xb0>
  a0:	e594003c 	ldr	r0, [r4, #60]	; 0x3c
  a4:	e3e01000 	mvn	r1, #0
  a8:	ebfffffe 	bl	0 <mrp_tostring>
  ac:	ebfffffe 	bl	0 <_mr_pcall>
  b0:	e594003c 	ldr	r0, [r4, #60]	; 0x3c
  b4:	e3e01001 	mvn	r1, #1
  b8:	ebfffffe 	bl	0 <mrp_settop>
  bc:	ea000003 	b	d0 <_mr_pcall+0xd0>
  c0:	e59f0014 	ldr	r0, [pc, #20]	; dc <_mr_pcall+0xdc>
  c4:	e5c05000 	strb	r5, [r0]
  c8:	e5842004 	str	r2, [r4, #4]
  cc:	ebfffffe 	bl	0 <mr_exit>
  d0:	e3a00000 	mov	r0, #0
  d4:	e8bd8070 	pop	{r4, r5, r6, pc}
  d8:	00000000 	.word	0x00000000
  dc:	000004e0 	.word	0x000004e0

Disassembly of section i.mr_get_host_cb:

00000000 <mr_get_host_cb>:
   0:	e92d4070 	push	{r4, r5, r6, lr}
   4:	e59f4070 	ldr	r4, [pc, #112]	; 7c <mr_get_host_cb+0x7c>
   8:	e1a05000 	mov	r5, r0
   c:	e5940004 	ldr	r0, [r4, #4]
  10:	e3500001 	cmp	r0, #1
  14:	13500002 	cmpne	r0, #2
  18:	0a000003 	beq	2c <mr_get_host_cb+0x2c>
  1c:	e28f005c 	add	r0, pc, #92	; 0x5c
  20:	ebfffffe 	bl	0 <mr_printf>
  24:	e3e00000 	mvn	r0, #0
  28:	e8bd8070 	pop	{r4, r5, r6, pc}
  2c:	e594003c 	ldr	r0, [r4, #60]	; 0x3c
  30:	e28f1054 	add	r1, pc, #84	; 0x54
  34:	ebfffffe 	bl	0 <mrp_pushstring>
  38:	e59f1054 	ldr	r1, [pc, #84]	; 94 <mr_get_host_cb+0x94>
  3c:	e594003c 	ldr	r0, [r4, #60]	; 0x3c
  40:	ebfffffe 	bl	0 <mrp_gettable>
  44:	e594003c 	ldr	r0, [r4, #60]	; 0x3c
  48:	e28f1048 	add	r1, pc, #72	; 0x48
  4c:	ebfffffe 	bl	0 <mrp_pushstring>
  50:	e594003c 	ldr	r0, [r4, #60]	; 0x3c
  54:	e1a01005 	mov	r1, r5
  58:	ebfffffe 	bl	0 <mrp_pushnumber>
  5c:	e594003c 	ldr	r0, [r4, #60]	; 0x3c
  60:	e3e01002 	mvn	r1, #2
  64:	ebfffffe 	bl	0 <mrp_rawset>
  68:	e594003c 	ldr	r0, [r4, #60]	; 0x3c
  6c:	e3e01001 	mvn	r1, #1
  70:	ebfffffe 	bl	0 <mrp_settop>
  74:	e3a00000 	mov	r0, #0
  78:	e8bd8070 	pop	{r4, r5, r6, pc}
  7c:	00000000 	.word	0x00000000
  80:	69204d56 	.word	0x69204d56
  84:	44492073 	.word	0x44492073
  88:	0021454c 	.word	0x0021454c
  8c:	6b636f73 	.word	0x6b636f73
  90:	00007465 	.word	0x00007465
  94:	ffffd8ef 	.word	0xffffd8ef
  98:	00007069 	.word	0x00007069

Disassembly of section i._mr_getHost:

00000000 <_mr_getHost>:
   0:	e92d4070 	push	{r4, r5, r6, lr}
   4:	e1a05000 	mov	r5, r0
   8:	e1a00001 	mov	r0, r1
   c:	e59f1054 	ldr	r1, [pc, #84]	; 68 <_mr_getHost+0x68>
  10:	ebfffffe 	bl	0 <mr_getHostByName>
  14:	e1a04000 	mov	r4, r0
  18:	e1a00005 	mov	r0, r5
  1c:	e28f1048 	add	r1, pc, #72	; 0x48
  20:	ebfffffe 	bl	0 <mrp_pushstring>
  24:	e59f1048 	ldr	r1, [pc, #72]	; 74 <_mr_getHost+0x74>
  28:	e1a00005 	mov	r0, r5
  2c:	ebfffffe 	bl	0 <mrp_gettable>
  30:	e28f1040 	add	r1, pc, #64	; 0x40
  34:	e1a00005 	mov	r0, r5
  38:	ebfffffe 	bl	0 <mrp_pushstring>
  3c:	e1a01004 	mov	r1, r4
  40:	e1a00005 	mov	r0, r5
  44:	ebfffffe 	bl	0 <mrp_pushnumber>
  48:	e3e01002 	mvn	r1, #2
  4c:	e1a00005 	mov	r0, r5
  50:	ebfffffe 	bl	0 <mrp_rawset>
  54:	e3e01001 	mvn	r1, #1
  58:	e1a00005 	mov	r0, r5
  5c:	ebfffffe 	bl	0 <mrp_settop>
  60:	e1a00004 	mov	r0, r4
  64:	e8bd8070 	pop	{r4, r5, r6, pc}
  68:	00000000 	.word	0x00000000
  6c:	6b636f73 	.word	0x6b636f73
  70:	00007465 	.word	0x00007465
  74:	ffffd8ef 	.word	0xffffd8ef
  78:	00007069 	.word	0x00007069

Disassembly of section i._mr_c_function_new:

00000000 <_mr_c_function_new>:
   0:	e92d4070 	push	{r4, r5, r6, lr}
   4:	e59f4078 	ldr	r4, [pc, #120]	; 84 <_mr_c_function_new+0x84>
   8:	e1a06000 	mov	r6, r0
   c:	e5940098 	ldr	r0, [r4, #152]	; 0x98
  10:	e1a05001 	mov	r5, r1
  14:	e3500000 	cmp	r0, #0
  18:	1594109c 	ldrne	r1, [r4, #156]	; 0x9c
  1c:	1bfffffe 	blne	0 <_mr_c_function_new>
  20:	e1a00005 	mov	r0, r5
  24:	ebfffffe 	bl	0 <_mr_c_function_new>
  28:	e3500000 	cmp	r0, #0
  2c:	e5840098 	str	r0, [r4, #152]	; 0x98
  30:	1a000006 	bne	50 <_mr_c_function_new+0x50>
  34:	e594003c 	ldr	r0, [r4, #60]	; 0x3c
  38:	e28f1048 	add	r1, pc, #72	; 0x48
  3c:	ebfffffe 	bl	0 <mrp_pushfstring>
  40:	e594003c 	ldr	r0, [r4, #60]	; 0x3c
  44:	ebfffffe 	bl	0 <mrp_error>
  48:	e3e00000 	mvn	r0, #0
  4c:	e8bd8070 	pop	{r4, r5, r6, pc}
  50:	e1a01005 	mov	r1, r5
  54:	e584509c 	str	r5, [r4, #156]	; 0x9c
  58:	ebfffffe 	bl	0 <__aeabi_memclr>
  5c:	e5846094 	str	r6, [r4, #148]	; 0x94
  60:	e59400a0 	ldr	r0, [r4, #160]	; 0xa0
  64:	e3500000 	cmp	r0, #0
  68:	05b41090 	ldreq	r1, [r4, #144]!	; 0x90
  6c:	05940008 	ldreq	r0, [r4, #8]
  70:	05010004 	streq	r0, [r1, #-4]
  74:	15941098 	ldrne	r1, [r4, #152]	; 0x98
  78:	15801004 	strne	r1, [r0, #4]
  7c:	e3a00000 	mov	r0, #0
  80:	e8bd8070 	pop	{r4, r5, r6, pc}
  84:	00000000 	.word	0x00000000
  88:	75665f63 	.word	0x75665f63
  8c:	6974636e 	.word	0x6974636e
  90:	4e3a6e6f 	.word	0x4e3a6e6f
  94:	656d206f 	.word	0x656d206f
  98:	79726f6d 	.word	0x79726f6d
  9c:	00000021 	.word	0x00000021

Disassembly of section i._mr_smsDsmSave:

00000000 <_mr_smsDsmSave>:
   0:	e92d4030 	push	{r4, r5, lr}
   4:	e1a05000 	mov	r5, r0
   8:	e3a00080 	mov	r0, #128	; 0x80
   c:	e24dd07c 	sub	sp, sp, #124	; 0x7c
  10:	e58d0000 	str	r0, [sp]
  14:	e28f0074 	add	r0, pc, #116	; 0x74
  18:	e1a04001 	mov	r4, r1
  1c:	ebfffffe 	bl	0 <mr_printf>
  20:	e3a01078 	mov	r1, #120	; 0x78
  24:	e28d0004 	add	r0, sp, #4
  28:	ebfffffe 	bl	0 <__aeabi_memclr4>
  2c:	e1a02004 	mov	r2, r4
  30:	e1a01005 	mov	r1, r5
  34:	e28d0004 	add	r0, sp, #4
  38:	ebfffffe 	bl	0 <__aeabi_memcpy>
  3c:	e5dd4006 	ldrb	r4, [sp, #6]
  40:	e354001f 	cmp	r4, #31
  44:	c3e00000 	mvngt	r0, #0
  48:	ca00000e 	bgt	88 <_mr_smsDsmSave+0x88>
  4c:	e3a02001 	mov	r2, #1
  50:	e1a0100d 	mov	r1, sp
  54:	e3a00004 	mov	r0, #4
  58:	ebfffffe 	bl	0 <_mr_smsDsmSave>
  5c:	e3a02001 	mov	r2, #1
  60:	e1a0100d 	mov	r1, sp
  64:	e2840020 	add	r0, r4, #32
  68:	ebfffffe 	bl	0 <_mr_smsDsmSave>
  6c:	e2840004 	add	r0, r4, #4
  70:	e3a01078 	mov	r1, #120	; 0x78
  74:	e0000091 	mul	r0, r1, r0
  78:	e28d1004 	add	r1, sp, #4
  7c:	e3a02078 	mov	r2, #120	; 0x78
  80:	ebfffffe 	bl	0 <_mr_smsDsmSave>
  84:	e3a00000 	mov	r0, #0
  88:	e28dd07c 	add	sp, sp, #124	; 0x7c
  8c:	e8bd8030 	pop	{r4, r5, pc}
  90:	5f726d5f 	.word	0x5f726d5f
  94:	44736d73 	.word	0x44736d73
  98:	61536d73 	.word	0x61536d73
  9c:	00006576 	.word	0x00006576

Disassembly of section i._mr_getChunk:

00000000 <_mr_getChunk>:
   0:	e52de004 	push	{lr}		; (str lr, [sp, #-4]!)
   4:	e591e000 	ldr	lr, [r1]
   8:	e590c000 	ldr	ip, [r0]
   c:	e35e0001 	cmp	lr, #1
  10:	d582c000 	strle	ip, [r2]
  14:	d5910000 	ldrle	r0, [r1]
  18:	d5830000 	strle	r0, [r3]
  1c:	d3a00001 	movle	r0, #1
  20:	d49df004 	pople	{pc}		; (ldrle pc, [sp], #4)
  24:	e5dcc000 	ldrb	ip, [ip]
  28:	e583c000 	str	ip, [r3]
  2c:	e591e000 	ldr	lr, [r1]
  30:	e15c000e 	cmp	ip, lr
  34:	aa000001 	bge	40 <_mr_getChunk+0x40>
  38:	e35c0000 	cmp	ip, #0
  3c:	ca000005 	bgt	58 <_mr_getChunk+0x58>
  40:	e5900000 	ldr	r0, [r0]
  44:	e5820000 	str	r0, [r2]
  48:	e5910000 	ldr	r0, [r1]
  4c:	e5830000 	str	r0, [r3]
  50:	e3e00000 	mvn	r0, #0
  54:	e49df004 	pop	{pc}		; (ldr pc, [sp], #4)
  58:	e590c000 	ldr	ip, [r0]
  5c:	e28cc001 	add	ip, ip, #1
  60:	e582c000 	str	ip, [r2]
  64:	e5902000 	ldr	r2, [r0]
  68:	e593c000 	ldr	ip, [r3]
  6c:	e082200c 	add	r2, r2, ip
  70:	e2822001 	add	r2, r2, #1
  74:	e5802000 	str	r2, [r0]
  78:	e5910000 	ldr	r0, [r1]
  7c:	e5932000 	ldr	r2, [r3]
  80:	e0400002 	sub	r0, r0, r2
  84:	e2400001 	sub	r0, r0, #1
  88:	e5810000 	str	r0, [r1]
  8c:	e3a00000 	mov	r0, #0
  90:	e49df004 	pop	{pc}		; (ldr pc, [sp], #4)

Disassembly of section i._mr_smsUpdateURL:

00000000 <_mr_smsUpdateURL>:
   0:	e92d4030 	push	{r4, r5, lr}
   4:	e1a05000 	mov	r5, r0
   8:	e3a00080 	mov	r0, #128	; 0x80
   c:	e24dd07c 	sub	sp, sp, #124	; 0x7c
  10:	e3510057 	cmp	r1, #87	; 0x57
  14:	e1a04001 	mov	r4, r1
  18:	e58d0078 	str	r0, [sp, #120]	; 0x78
  1c:	9a000004 	bls	34 <_mr_smsUpdateURL+0x34>
  20:	e28f0050 	add	r0, pc, #80	; 0x50
  24:	ebfffffe 	bl	0 <mr_printf>
  28:	e3e00000 	mvn	r0, #0
  2c:	e28dd07c 	add	sp, sp, #124	; 0x7c
  30:	e8bd8030 	pop	{r4, r5, pc}
  34:	e3a02001 	mov	r2, #1
  38:	e28d1078 	add	r1, sp, #120	; 0x78
  3c:	e3a00006 	mov	r0, #6
  40:	ebfffffe 	bl	0 <_mr_smsUpdateURL>
  44:	e3a01078 	mov	r1, #120	; 0x78
  48:	e1a0000d 	mov	r0, sp
  4c:	ebfffffe 	bl	0 <__aeabi_memclr4>
  50:	e1a0200d 	mov	r2, sp
  54:	e1a01004 	mov	r1, r4
  58:	e1a00005 	mov	r0, r5
  5c:	ebfffffe 	bl	0 <_mr_encode>
  60:	e3a02078 	mov	r2, #120	; 0x78
  64:	e1a0100d 	mov	r1, sp
  68:	e3a00f5a 	mov	r0, #360	; 0x168
  6c:	ebfffffe 	bl	0 <_mr_smsUpdateURL>
  70:	e3a00000 	mov	r0, #0
  74:	eaffffec 	b	2c <_mr_smsUpdateURL+0x2c>
  78:	206c7275 	.word	0x206c7275
  7c:	206f6f74 	.word	0x206f6f74
  80:	676e6f6c 	.word	0x676e6f6c
  84:	00000000 	.word	0x00000000

Disassembly of section i._mr_smsDelNum:

00000000 <_mr_smsDelNum>:
   0:	e92d4010 	push	{r4, lr}
   4:	e24dd020 	sub	sp, sp, #32
   8:	e1a04000 	mov	r4, r0
   c:	e1a0000d 	mov	r0, sp
  10:	e3a01020 	mov	r1, #32
  14:	ebfffffe 	bl	0 <__aeabi_memclr4>
  18:	e3a00078 	mov	r0, #120	; 0x78
  1c:	e0800284 	add	r0, r0, r4, lsl #5
  20:	e3a02020 	mov	r2, #32
  24:	e1a0100d 	mov	r1, sp
  28:	ebfffffe 	bl	0 <_mr_smsDelNum>
  2c:	e3a00000 	mov	r0, #0
  30:	e28dd020 	add	sp, sp, #32
  34:	e8bd8010 	pop	{r4, pc}

Disassembly of section i._mr_smsIndiaction:

00000000 <_mr_smsIndiaction>:
   0:	e92d41f0 	push	{r4, r5, r6, r7, r8, lr}
   4:	e59f6328 	ldr	r6, [pc, #808]	; 334 <_mr_smsIndiaction+0x334>
   8:	e1a04000 	mov	r4, r0
   c:	e5960004 	ldr	r0, [r6, #4]
  10:	e24dd0e8 	sub	sp, sp, #232	; 0xe8
  14:	e3500001 	cmp	r0, #1
  18:	e1a08002 	mov	r8, r2
  1c:	e1a07003 	mov	r7, r3
  20:	e1a05001 	mov	r5, r1
  24:	0a000004 	beq	3c <_mr_smsIndiaction+0x3c>
  28:	e5961010 	ldr	r1, [r6, #16]
  2c:	e3510000 	cmp	r1, #0
  30:	0a000022 	beq	c0 <_mr_smsIndiaction+0xc0>
  34:	e3500002 	cmp	r0, #2
  38:	1a000020 	bne	c0 <_mr_smsIndiaction+0xc0>
  3c:	e596003c 	ldr	r0, [r6, #60]	; 0x3c
  40:	e28f1e2f 	add	r1, pc, #752	; 0x2f0
  44:	ebfffffe 	bl	0 <mrp_pushstring>
  48:	e59f12f4 	ldr	r1, [pc, #756]	; 344 <_mr_smsIndiaction+0x344>
  4c:	e596003c 	ldr	r0, [r6, #60]	; 0x3c
  50:	ebfffffe 	bl	0 <mrp_gettable>
  54:	e596003c 	ldr	r0, [r6, #60]	; 0x3c
  58:	e3e01000 	mvn	r1, #0
  5c:	ebfffffe 	bl	0 <mrp_type>
  60:	e3500006 	cmp	r0, #6
  64:	1a000010 	bne	ac <_mr_smsIndiaction+0xac>
  68:	e596003c 	ldr	r0, [r6, #60]	; 0x3c
  6c:	e3a01007 	mov	r1, #7
  70:	ebfffffe 	bl	0 <mrp_pushnumber>
  74:	e596003c 	ldr	r0, [r6, #60]	; 0x3c
  78:	e1a02005 	mov	r2, r5
  7c:	e1a01004 	mov	r1, r4
  80:	ebfffffe 	bl	0 <mrp_pushlstring>
  84:	e596003c 	ldr	r0, [r6, #60]	; 0x3c
  88:	e1a01008 	mov	r1, r8
  8c:	ebfffffe 	bl	0 <mrp_pushstring>
  90:	e596003c 	ldr	r0, [r6, #60]	; 0x3c
  94:	e1a01007 	mov	r1, r7
  98:	ebfffffe 	bl	0 <mrp_pushnumber>
  9c:	e3a01000 	mov	r1, #0
  a0:	e3a00004 	mov	r0, #4
  a4:	ebfffffe 	bl	0 <_mr_smsIndiaction>
  a8:	ea000004 	b	c0 <_mr_smsIndiaction+0xc0>
  ac:	e28f0fa5 	add	r0, pc, #660	; 0x294
  b0:	ebfffffe 	bl	0 <mr_printf>
  b4:	e596003c 	ldr	r0, [r6, #60]	; 0x3c
  b8:	e3e01001 	mvn	r1, #1
  bc:	ebfffffe 	bl	0 <mrp_settop>
  c0:	e245000c 	sub	r0, r5, #12
  c4:	e3500095 	cmp	r0, #149	; 0x95
  c8:	2a000021 	bcs	154 <_mr_smsIndiaction+0x154>
  cc:	e3a010a0 	mov	r1, #160	; 0xa0
  d0:	e28d0048 	add	r0, sp, #72	; 0x48
  d4:	ebfffffe 	bl	0 <__aeabi_memclr4>
  d8:	e3570000 	cmp	r7, #0
  dc:	0a00001f 	beq	160 <_mr_smsIndiaction+0x160>
  e0:	e3570001 	cmp	r7, #1
  e4:	1a00001a 	bne	154 <_mr_smsIndiaction+0x154>
  e8:	e3a03008 	mov	r3, #8
  ec:	e28f2f99 	add	r2, pc, #612	; 0x264
  f0:	e1a01005 	mov	r1, r5
  f4:	e1a00004 	mov	r0, r4
  f8:	ebfffffe 	bl	0 <_mr_memfind>
  fc:	e1b06000 	movs	r6, r0
 100:	0a000013 	beq	154 <_mr_smsIndiaction+0x154>
 104:	e0460004 	sub	r0, r6, r4
 108:	e0451000 	sub	r1, r5, r0
 10c:	e1a00006 	mov	r0, r6
 110:	e3a03004 	mov	r3, #4
 114:	e28f2f92 	add	r2, pc, #584	; 0x248
 118:	ebfffffe 	bl	0 <_mr_memfind>
 11c:	e3500000 	cmp	r0, #0
 120:	0a00000b 	beq	154 <_mr_smsIndiaction+0x154>
 124:	e0400006 	sub	r0, r0, r6
 128:	e2401008 	sub	r1, r0, #8
 12c:	e2860008 	add	r0, r6, #8
 130:	e3a03046 	mov	r3, #70	; 0x46
 134:	e1a0200d 	mov	r2, sp
 138:	ebfffffe 	bl	0 <_mr_u2c>
 13c:	e1a01000 	mov	r1, r0
 140:	e1a0000d 	mov	r0, sp
 144:	e28d2048 	add	r2, sp, #72	; 0x48
 148:	ebfffffe 	bl	0 <_mr_decode>
 14c:	e2504000 	subs	r4, r0, #0
 150:	aa000022 	bge	1e0 <_mr_smsIndiaction+0x1e0>
 154:	e3a00001 	mov	r0, #1
 158:	e28dd0e8 	add	sp, sp, #232	; 0xe8
 15c:	e8bd81f0 	pop	{r4, r5, r6, r7, r8, pc}
 160:	e5d40000 	ldrb	r0, [r4]
 164:	e350004d 	cmp	r0, #77	; 0x4d
 168:	05d40001 	ldrbeq	r0, [r4, #1]
 16c:	03500052 	cmpeq	r0, #82	; 0x52
 170:	05d40002 	ldrbeq	r0, [r4, #2]
 174:	03500050 	cmpeq	r0, #80	; 0x50
 178:	05d40003 	ldrbeq	r0, [r4, #3]
 17c:	03500047 	cmpeq	r0, #71	; 0x47
 180:	028d2048 	addeq	r2, sp, #72	; 0x48
 184:	02451004 	subeq	r1, r5, #4
 188:	02840004 	addeq	r0, r4, #4
 18c:	0affffed 	beq	148 <_mr_smsIndiaction+0x148>
 190:	e3a03004 	mov	r3, #4
 194:	e28f2e1d 	add	r2, pc, #464	; 0x1d0
 198:	e1a01005 	mov	r1, r5
 19c:	e1a00004 	mov	r0, r4
 1a0:	ebfffffe 	bl	0 <_mr_memfind>
 1a4:	e1b06000 	movs	r6, r0
 1a8:	0affffe9 	beq	154 <_mr_smsIndiaction+0x154>
 1ac:	e0460004 	sub	r0, r6, r4
 1b0:	e0451000 	sub	r1, r5, r0
 1b4:	e1a00006 	mov	r0, r6
 1b8:	e3a03002 	mov	r3, #2
 1bc:	e28f2e1b 	add	r2, pc, #432	; 0x1b0
 1c0:	ebfffffe 	bl	0 <_mr_memfind>
 1c4:	e3500000 	cmp	r0, #0
 1c8:	0affffe1 	beq	154 <_mr_smsIndiaction+0x154>
 1cc:	e0400006 	sub	r0, r0, r6
 1d0:	e2401004 	sub	r1, r0, #4
 1d4:	e2860004 	add	r0, r6, #4
 1d8:	e28d2048 	add	r2, sp, #72	; 0x48
 1dc:	eaffffd9 	b	148 <_mr_smsIndiaction+0x148>
 1e0:	e28f0e19 	add	r0, pc, #400	; 0x190
 1e4:	ebfffffe 	bl	0 <mr_printf>
 1e8:	ebfffffe 	bl	0 <_mr_smsIndiaction>
 1ec:	e1a05000 	mov	r5, r0
 1f0:	e5dd0048 	ldrb	r0, [sp, #72]	; 0x48
 1f4:	e35000fc 	cmp	r0, #252	; 0xfc
 1f8:	1a000043 	bne	30c <_mr_smsIndiaction+0x30c>
 1fc:	e5dd0049 	ldrb	r0, [sp, #73]	; 0x49
 200:	e35000fc 	cmp	r0, #252	; 0xfc
 204:	1a000046 	bne	324 <_mr_smsIndiaction+0x324>
 208:	e28d004a 	add	r0, sp, #74	; 0x4a
 20c:	e58d0044 	str	r0, [sp, #68]	; 0x44
 210:	e2440002 	sub	r0, r4, #2
 214:	e58d0040 	str	r0, [sp, #64]	; 0x40
 218:	ea000033 	b	2ec <_mr_smsIndiaction+0x2ec>
 21c:	e59d303c 	ldr	r3, [sp, #60]	; 0x3c
 220:	e5d30000 	ldrb	r0, [r3]
 224:	e3500006 	cmp	r0, #6
 228:	05d30002 	ldrbeq	r0, [r3, #2]
 22c:	05d31001 	ldrbeq	r1, [r3, #1]
 230:	05d32003 	ldrbeq	r2, [r3, #3]
 234:	00800401 	addeq	r0, r0, r1, lsl #8
 238:	02831004 	addeq	r1, r3, #4
 23c:	0a000023 	beq	2d0 <_mr_smsIndiaction+0x2d0>
 240:	ca000008 	bgt	268 <_mr_smsIndiaction+0x268>
 244:	e3500005 	cmp	r0, #5
 248:	908ff100 	addls	pc, pc, r0, lsl #2
 24c:	ea000022 	b	2dc <_mr_smsIndiaction+0x2dc>
 250:	ea000021 	b	2dc <_mr_smsIndiaction+0x2dc>
 254:	ea000009 	b	280 <_mr_smsIndiaction+0x280>
 258:	ea00000c 	b	290 <_mr_smsIndiaction+0x290>
 25c:	ea00000e 	b	29c <_mr_smsIndiaction+0x29c>
 260:	ea000013 	b	2b4 <_mr_smsIndiaction+0x2b4>
 264:	ea000016 	b	2c4 <_mr_smsIndiaction+0x2c4>
 268:	e3500007 	cmp	r0, #7
 26c:	13500011 	cmpne	r0, #17
 270:	1350001b 	cmpne	r0, #27
 274:	13500025 	cmpne	r0, #37	; 0x25
 278:	0a00001b 	beq	2ec <_mr_smsIndiaction+0x2ec>
 27c:	ea000016 	b	2dc <_mr_smsIndiaction+0x2dc>
 280:	e5d30001 	ldrb	r0, [r3, #1]
 284:	e2831002 	add	r1, r3, #2
 288:	ebfffffe 	bl	0 <_mr_smsIndiaction>
 28c:	ea000010 	b	2d4 <_mr_smsIndiaction+0x2d4>
 290:	e5d30001 	ldrb	r0, [r3, #1]
 294:	ebfffffe 	bl	0 <_mr_smsIndiaction>
 298:	ea00000d 	b	2d4 <_mr_smsIndiaction+0x2d4>
 29c:	e59d0038 	ldr	r0, [sp, #56]	; 0x38
 2a0:	e2400001 	sub	r0, r0, #1
 2a4:	e20010ff 	and	r1, r0, #255	; 0xff
 2a8:	e2830001 	add	r0, r3, #1
 2ac:	ebfffffe 	bl	0 <_mr_smsIndiaction>
 2b0:	ea000007 	b	2d4 <_mr_smsIndiaction+0x2d4>
 2b4:	e3a01000 	mov	r1, #0
 2b8:	e1a00008 	mov	r0, r8
 2bc:	ebfffffe 	bl	0 <_mr_smsIndiaction>
 2c0:	ea000003 	b	2d4 <_mr_smsIndiaction+0x2d4>
 2c4:	e3a02001 	mov	r2, #1
 2c8:	e2831001 	add	r1, r3, #1
 2cc:	e3a00005 	mov	r0, #5
 2d0:	ebfffffe 	bl	0 <_mr_smsIndiaction>
 2d4:	e3500000 	cmp	r0, #0
 2d8:	0a000003 	beq	2ec <_mr_smsIndiaction+0x2ec>
 2dc:	e1a00005 	mov	r0, r5
 2e0:	ebfffffe 	bl	0 <_mr_smsIndiaction>
 2e4:	e3e00000 	mvn	r0, #0
 2e8:	eaffff9a 	b	158 <_mr_smsIndiaction+0x158>
 2ec:	e28d3038 	add	r3, sp, #56	; 0x38
 2f0:	e28d203c 	add	r2, sp, #60	; 0x3c
 2f4:	e28d1040 	add	r1, sp, #64	; 0x40
 2f8:	e28d0044 	add	r0, sp, #68	; 0x44
 2fc:	ebfffffe 	bl	0 <_mr_smsIndiaction>
 300:	e3500000 	cmp	r0, #0
 304:	0affffc4 	beq	21c <_mr_smsIndiaction+0x21c>
 308:	ea000005 	b	324 <_mr_smsIndiaction+0x324>
 30c:	e35000fa 	cmp	r0, #250	; 0xfa
 310:	05dd0049 	ldrbeq	r0, [sp, #73]	; 0x49
 314:	035000f2 	cmpeq	r0, #242	; 0xf2
 318:	01a01004 	moveq	r1, r4
 31c:	028d0048 	addeq	r0, sp, #72	; 0x48
 320:	0bfffffe 	bleq	0 <_mr_smsIndiaction>
 324:	e1a00005 	mov	r0, r5
 328:	ebfffffe 	bl	0 <_mr_smsIndiaction>
 32c:	e3a00000 	mov	r0, #0
 330:	eaffff88 	b	158 <_mr_smsIndiaction+0x158>
 334:	00000000 	.word	0x00000000
 338:	6c616564 	.word	0x6c616564
 33c:	6e657665 	.word	0x6e657665
 340:	00000074 	.word	0x00000074
 344:	ffffd8ef 	.word	0xffffd8ef
 348:	20646e69 	.word	0x20646e69
 34c:	69206564 	.word	0x69206564
 350:	696e2073 	.word	0x696e2073
 354:	0000216c 	.word	0x0000216c
 358:	23007e00 	.word	0x23007e00
 35c:	7e005e00 	.word	0x7e005e00
 360:	00000000 	.word	0x00000000
 364:	5e002600 	.word	0x5e002600
 368:	00000000 	.word	0x00000000
 36c:	7e5e237e 	.word	0x7e5e237e
 370:	00000000 	.word	0x00000000
 374:	00005e26 	.word	0x00005e26
 378:	735f726d 	.word	0x735f726d
 37c:	6e49736d 	.word	0x6e49736d
 380:	63616964 	.word	0x63616964
 384:	6e6f6974 	.word	0x6e6f6974
 388:	65686320 	.word	0x65686320
 38c:	6f206b63 	.word	0x6f206b63
 390:	0000216b 	.word	0x0000216b

Disassembly of section i.mr_smsIndiaction:

00000000 <mr_smsIndiaction>:
   0:	e92d4010 	push	{r4, lr}
   4:	e59f4018 	ldr	r4, [pc, #24]	; 24 <mr_smsIndiaction+0x24>
   8:	e3a0c000 	mov	ip, #0
   c:	e5c4c002 	strb	ip, [r4, #2]
  10:	ebfffffe 	bl	0 <mr_smsIndiaction>
  14:	e5d41002 	ldrb	r1, [r4, #2]
  18:	e3510001 	cmp	r1, #1
  1c:	0594008c 	ldreq	r0, [r4, #140]	; 0x8c
  20:	e8bd8010 	pop	{r4, pc}
  24:	00000000 	.word	0x00000000

Disassembly of section i.md5_process:

00000000 <md5_process>:
   0:	e92d4ff0 	push	{r4, r5, r6, r7, r8, r9, sl, fp, lr}
   4:	e5908008 	ldr	r8, [r0, #8]
   8:	e24dd09c 	sub	sp, sp, #156	; 0x9c
   c:	e58d8098 	str	r8, [sp, #152]	; 0x98
  10:	e590500c 	ldr	r5, [r0, #12]
  14:	e3110003 	tst	r1, #3
  18:	e58d5094 	str	r5, [sp, #148]	; 0x94
  1c:	e5906010 	ldr	r6, [r0, #16]
  20:	01a03001 	moveq	r3, r1
  24:	e58d6090 	str	r6, [sp, #144]	; 0x90
  28:	e5907014 	ldr	r7, [r0, #20]
  2c:	e1a04000 	mov	r4, r0
  30:	e58d708c 	str	r7, [sp, #140]	; 0x8c
  34:	0a000003 	beq	48 <md5_process+0x48>
  38:	e3a02040 	mov	r2, #64	; 0x40
  3c:	e28d0004 	add	r0, sp, #4
  40:	ebfffffe 	bl	0 <__aeabi_memcpy>
  44:	e28d3004 	add	r3, sp, #4
  48:	e593a000 	ldr	sl, [r3]
  4c:	e0050006 	and	r0, r5, r6
  50:	e1c71005 	bic	r1, r7, r5
  54:	e1800001 	orr	r0, r0, r1
  58:	e0800008 	add	r0, r0, r8
  5c:	e080000a 	add	r0, r0, sl
  60:	e59f18cc 	ldr	r1, [pc, #2252]	; 934 <md5_process+0x934>
  64:	e58da088 	str	sl, [sp, #136]	; 0x88
  68:	e0800001 	add	r0, r0, r1
  6c:	e0852ce0 	add	r2, r5, r0, ror #25
  70:	e58da084 	str	sl, [sp, #132]	; 0x84
  74:	e593a004 	ldr	sl, [r3, #4]
  78:	e0020005 	and	r0, r2, r5
  7c:	e1c61002 	bic	r1, r6, r2
  80:	e1800001 	orr	r0, r0, r1
  84:	e0800007 	add	r0, r0, r7
  88:	e59f18a8 	ldr	r1, [pc, #2216]	; 938 <md5_process+0x938>
  8c:	e080000a 	add	r0, r0, sl
  90:	e0800001 	add	r0, r0, r1
  94:	e0821a60 	add	r1, r2, r0, ror #20
  98:	e0010002 	and	r0, r1, r2
  9c:	e1c5c001 	bic	ip, r5, r1
  a0:	e180000c 	orr	r0, r0, ip
  a4:	e58da080 	str	sl, [sp, #128]	; 0x80
  a8:	e58da07c 	str	sl, [sp, #124]	; 0x7c
  ac:	e593c008 	ldr	ip, [r3, #8]
  b0:	e59fe884 	ldr	lr, [pc, #2180]	; 93c <md5_process+0x93c>
  b4:	e0800006 	add	r0, r0, r6
  b8:	e080000c 	add	r0, r0, ip
  bc:	e080000e 	add	r0, r0, lr
  c0:	e08107e0 	add	r0, r1, r0, ror #15
  c4:	e593a00c 	ldr	sl, [r3, #12]
  c8:	e000e001 	and	lr, r0, r1
  cc:	e1c26000 	bic	r6, r2, r0
  d0:	e18ee006 	orr	lr, lr, r6
  d4:	e08ee005 	add	lr, lr, r5
  d8:	e08ee00a 	add	lr, lr, sl
  dc:	e59f585c 	ldr	r5, [pc, #2140]	; 940 <md5_process+0x940>
  e0:	e58da078 	str	sl, [sp, #120]	; 0x78
  e4:	e08ee005 	add	lr, lr, r5
  e8:	e080e56e 	add	lr, r0, lr, ror #10
  ec:	e58da074 	str	sl, [sp, #116]	; 0x74
  f0:	e593a010 	ldr	sl, [r3, #16]
  f4:	e00e5000 	and	r5, lr, r0
  f8:	e1c1600e 	bic	r6, r1, lr
  fc:	e1855006 	orr	r5, r5, r6
 100:	e0852002 	add	r2, r5, r2
 104:	e082200a 	add	r2, r2, sl
 108:	e59f5834 	ldr	r5, [pc, #2100]	; 944 <md5_process+0x944>
 10c:	e58da070 	str	sl, [sp, #112]	; 0x70
 110:	e0422005 	sub	r2, r2, r5
 114:	e08e2ce2 	add	r2, lr, r2, ror #25
 118:	e58da06c 	str	sl, [sp, #108]	; 0x6c
 11c:	e593a014 	ldr	sl, [r3, #20]
 120:	e002500e 	and	r5, r2, lr
 124:	e1c06002 	bic	r6, r0, r2
 128:	e1855006 	orr	r5, r5, r6
 12c:	e0851001 	add	r1, r5, r1
 130:	e081100a 	add	r1, r1, sl
 134:	e59f580c 	ldr	r5, [pc, #2060]	; 948 <md5_process+0x948>
 138:	e58da068 	str	sl, [sp, #104]	; 0x68
 13c:	e0811005 	add	r1, r1, r5
 140:	e0821a61 	add	r1, r2, r1, ror #20
 144:	e58da064 	str	sl, [sp, #100]	; 0x64
 148:	e593a018 	ldr	sl, [r3, #24]
 14c:	e0015002 	and	r5, r1, r2
 150:	e1ce6001 	bic	r6, lr, r1
 154:	e1855006 	orr	r5, r5, r6
 158:	e0850000 	add	r0, r5, r0
 15c:	e59f57e8 	ldr	r5, [pc, #2024]	; 94c <md5_process+0x94c>
 160:	e080000a 	add	r0, r0, sl
 164:	e0800005 	add	r0, r0, r5
 168:	e08107e0 	add	r0, r1, r0, ror #15
 16c:	e0005001 	and	r5, r0, r1
 170:	e1c26000 	bic	r6, r2, r0
 174:	e1855006 	orr	r5, r5, r6
 178:	e085500e 	add	r5, r5, lr
 17c:	e58da060 	str	sl, [sp, #96]	; 0x60
 180:	e58da05c 	str	sl, [sp, #92]	; 0x5c
 184:	e593e01c 	ldr	lr, [r3, #28]
 188:	e59f67c0 	ldr	r6, [pc, #1984]	; 950 <md5_process+0x950>
 18c:	e085500e 	add	r5, r5, lr
 190:	e0855006 	add	r5, r5, r6
 194:	e0806565 	add	r6, r0, r5, ror #10
 198:	e0065000 	and	r5, r6, r0
 19c:	e1c17006 	bic	r7, r1, r6
 1a0:	e1855007 	orr	r5, r5, r7
 1a4:	e0852002 	add	r2, r5, r2
 1a8:	e5935020 	ldr	r5, [r3, #32]
 1ac:	e59f77a0 	ldr	r7, [pc, #1952]	; 954 <md5_process+0x954>
 1b0:	e0822005 	add	r2, r2, r5
 1b4:	e0822007 	add	r2, r2, r7
 1b8:	e0862ce2 	add	r2, r6, r2, ror #25
 1bc:	e593a024 	ldr	sl, [r3, #36]	; 0x24
 1c0:	e0027006 	and	r7, r2, r6
 1c4:	e1c08002 	bic	r8, r0, r2
 1c8:	e1877008 	orr	r7, r7, r8
 1cc:	e0871001 	add	r1, r7, r1
 1d0:	e081100a 	add	r1, r1, sl
 1d4:	e59f777c 	ldr	r7, [pc, #1916]	; 958 <md5_process+0x958>
 1d8:	e58da058 	str	sl, [sp, #88]	; 0x58
 1dc:	e0411007 	sub	r1, r1, r7
 1e0:	e0821a61 	add	r1, r2, r1, ror #20
 1e4:	e58da054 	str	sl, [sp, #84]	; 0x54
 1e8:	e593a028 	ldr	sl, [r3, #40]	; 0x28
 1ec:	e0017002 	and	r7, r1, r2
 1f0:	e1c68001 	bic	r8, r6, r1
 1f4:	e1877008 	orr	r7, r7, r8
 1f8:	e0870000 	add	r0, r7, r0
 1fc:	e080000a 	add	r0, r0, sl
 200:	e2400b29 	sub	r0, r0, #41984	; 0xa400
 204:	e240004f 	sub	r0, r0, #79	; 0x4f
 208:	e08107e0 	add	r0, r1, r0, ror #15
 20c:	e58da050 	str	sl, [sp, #80]	; 0x50
 210:	e58da04c 	str	sl, [sp, #76]	; 0x4c
 214:	e593a02c 	ldr	sl, [r3, #44]	; 0x2c
 218:	e0007001 	and	r7, r0, r1
 21c:	e1c28000 	bic	r8, r2, r0
 220:	e1877008 	orr	r7, r7, r8
 224:	e0876006 	add	r6, r7, r6
 228:	e59f772c 	ldr	r7, [pc, #1836]	; 95c <md5_process+0x95c>
 22c:	e086600a 	add	r6, r6, sl
 230:	e0466007 	sub	r6, r6, r7
 234:	e0809566 	add	r9, r0, r6, ror #10
 238:	e0096000 	and	r6, r9, r0
 23c:	e1c17009 	bic	r7, r1, r9
 240:	e1866007 	orr	r6, r6, r7
 244:	e0862002 	add	r2, r6, r2
 248:	e58da048 	str	sl, [sp, #72]	; 0x48
 24c:	e58da044 	str	sl, [sp, #68]	; 0x44
 250:	e5936030 	ldr	r6, [r3, #48]	; 0x30
 254:	e59f7704 	ldr	r7, [pc, #1796]	; 960 <md5_process+0x960>
 258:	e0822006 	add	r2, r2, r6
 25c:	e0822007 	add	r2, r2, r7
 260:	e0892ce2 	add	r2, r9, r2, ror #25
 264:	e0027009 	and	r7, r2, r9
 268:	e1c08002 	bic	r8, r0, r2
 26c:	e1877008 	orr	r7, r7, r8
 270:	e0871001 	add	r1, r7, r1
 274:	e5937034 	ldr	r7, [r3, #52]	; 0x34
 278:	e59f86e4 	ldr	r8, [pc, #1764]	; 964 <md5_process+0x964>
 27c:	e0811007 	add	r1, r1, r7
 280:	e0411008 	sub	r1, r1, r8
 284:	e0821a61 	add	r1, r2, r1, ror #20
 288:	e0018002 	and	r8, r1, r2
 28c:	e1c9a001 	bic	sl, r9, r1
 290:	e188800a 	orr	r8, r8, sl
 294:	e0880000 	add	r0, r8, r0
 298:	e5938038 	ldr	r8, [r3, #56]	; 0x38
 29c:	e59fa6c4 	ldr	sl, [pc, #1732]	; 968 <md5_process+0x968>
 2a0:	e0800008 	add	r0, r0, r8
 2a4:	e040000a 	sub	r0, r0, sl
 2a8:	e08107e0 	add	r0, r1, r0, ror #15
 2ac:	e000a001 	and	sl, r0, r1
 2b0:	e1c2b000 	bic	fp, r2, r0
 2b4:	e18aa00b 	orr	sl, sl, fp
 2b8:	e08aa009 	add	sl, sl, r9
 2bc:	e593903c 	ldr	r9, [r3, #60]	; 0x3c
 2c0:	e1c0b001 	bic	fp, r0, r1
 2c4:	e08a3009 	add	r3, sl, r9
 2c8:	e59fa69c 	ldr	sl, [pc, #1692]	; 96c <md5_process+0x96c>
 2cc:	e083300a 	add	r3, r3, sl
 2d0:	e0803563 	add	r3, r0, r3, ror #10
 2d4:	e003a001 	and	sl, r3, r1
 2d8:	e18aa00b 	orr	sl, sl, fp
 2dc:	e08a2002 	add	r2, sl, r2
 2e0:	e59da07c 	ldr	sl, [sp, #124]	; 0x7c
 2e4:	e1c3b000 	bic	fp, r3, r0
 2e8:	e082200a 	add	r2, r2, sl
 2ec:	e59fa67c 	ldr	sl, [pc, #1660]	; 970 <md5_process+0x970>
 2f0:	e082200a 	add	r2, r2, sl
 2f4:	e0832de2 	add	r2, r3, r2, ror #27
 2f8:	e002a000 	and	sl, r2, r0
 2fc:	e18aa00b 	orr	sl, sl, fp
 300:	e08a1001 	add	r1, sl, r1
 304:	e59da05c 	ldr	sl, [sp, #92]	; 0x5c
 308:	e1c2b003 	bic	fp, r2, r3
 30c:	e081100a 	add	r1, r1, sl
 310:	e59fa65c 	ldr	sl, [pc, #1628]	; 974 <md5_process+0x974>
 314:	e041100a 	sub	r1, r1, sl
 318:	e0821be1 	add	r1, r2, r1, ror #23
 31c:	e001a003 	and	sl, r1, r3
 320:	e18aa00b 	orr	sl, sl, fp
 324:	e08a0000 	add	r0, sl, r0
 328:	e59da044 	ldr	sl, [sp, #68]	; 0x44
 32c:	e1c1b002 	bic	fp, r1, r2
 330:	e080000a 	add	r0, r0, sl
 334:	e59fa63c 	ldr	sl, [pc, #1596]	; 978 <md5_process+0x978>
 338:	e080000a 	add	r0, r0, sl
 33c:	e0810960 	add	r0, r1, r0, ror #18
 340:	e000a002 	and	sl, r0, r2
 344:	e18aa00b 	orr	sl, sl, fp
 348:	e08a3003 	add	r3, sl, r3
 34c:	e59da084 	ldr	sl, [sp, #132]	; 0x84
 350:	e083300a 	add	r3, r3, sl
 354:	e59fa620 	ldr	sl, [pc, #1568]	; 97c <md5_process+0x97c>
 358:	e083300a 	add	r3, r3, sl
 35c:	e0803663 	add	r3, r0, r3, ror #12
 360:	e003a001 	and	sl, r3, r1
 364:	e1c0b001 	bic	fp, r0, r1
 368:	e18aa00b 	orr	sl, sl, fp
 36c:	e08a2002 	add	r2, sl, r2
 370:	e59da064 	ldr	sl, [sp, #100]	; 0x64
 374:	e1c3b000 	bic	fp, r3, r0
 378:	e082200a 	add	r2, r2, sl
 37c:	e59fa5fc 	ldr	sl, [pc, #1532]	; 980 <md5_process+0x980>
 380:	e042200a 	sub	r2, r2, sl
 384:	e0832de2 	add	r2, r3, r2, ror #27
 388:	e002a000 	and	sl, r2, r0
 38c:	e18aa00b 	orr	sl, sl, fp
 390:	e08a1001 	add	r1, sl, r1
 394:	e59da04c 	ldr	sl, [sp, #76]	; 0x4c
 398:	e1c2b003 	bic	fp, r2, r3
 39c:	e081100a 	add	r1, r1, sl
 3a0:	e59fa5dc 	ldr	sl, [pc, #1500]	; 984 <md5_process+0x984>
 3a4:	e081100a 	add	r1, r1, sl
 3a8:	e0821be1 	add	r1, r2, r1, ror #23
 3ac:	e001a003 	and	sl, r1, r3
 3b0:	e18aa00b 	orr	sl, sl, fp
 3b4:	e08a0000 	add	r0, sl, r0
 3b8:	e59fa5c8 	ldr	sl, [pc, #1480]	; 988 <md5_process+0x988>
 3bc:	e0800009 	add	r0, r0, r9
 3c0:	e040000a 	sub	r0, r0, sl
 3c4:	e0810960 	add	r0, r1, r0, ror #18
 3c8:	e000a002 	and	sl, r0, r2
 3cc:	e1c1b002 	bic	fp, r1, r2
 3d0:	e18aa00b 	orr	sl, sl, fp
 3d4:	e08a3003 	add	r3, sl, r3
 3d8:	e59da06c 	ldr	sl, [sp, #108]	; 0x6c
 3dc:	e1c0b001 	bic	fp, r0, r1
 3e0:	e083300a 	add	r3, r3, sl
 3e4:	e59fa5a0 	ldr	sl, [pc, #1440]	; 98c <md5_process+0x98c>
 3e8:	e043300a 	sub	r3, r3, sl
 3ec:	e0803663 	add	r3, r0, r3, ror #12
 3f0:	e003a001 	and	sl, r3, r1
 3f4:	e18aa00b 	orr	sl, sl, fp
 3f8:	e08a2002 	add	r2, sl, r2
 3fc:	e59da054 	ldr	sl, [sp, #84]	; 0x54
 400:	e1c3b000 	bic	fp, r3, r0
 404:	e082200a 	add	r2, r2, sl
 408:	e59fa580 	ldr	sl, [pc, #1408]	; 990 <md5_process+0x990>
 40c:	e082200a 	add	r2, r2, sl
 410:	e0832de2 	add	r2, r3, r2, ror #27
 414:	e002a000 	and	sl, r2, r0
 418:	e18aa00b 	orr	sl, sl, fp
 41c:	e08a1001 	add	r1, sl, r1
 420:	e59fa56c 	ldr	sl, [pc, #1388]	; 994 <md5_process+0x994>
 424:	e0811008 	add	r1, r1, r8
 428:	e081100a 	add	r1, r1, sl
 42c:	e0821be1 	add	r1, r2, r1, ror #23
 430:	e001a003 	and	sl, r1, r3
 434:	e1c2b003 	bic	fp, r2, r3
 438:	e18aa00b 	orr	sl, sl, fp
 43c:	e08a0000 	add	r0, sl, r0
 440:	e59da074 	ldr	sl, [sp, #116]	; 0x74
 444:	e1c1b002 	bic	fp, r1, r2
 448:	e080000a 	add	r0, r0, sl
 44c:	e59fa544 	ldr	sl, [pc, #1348]	; 998 <md5_process+0x998>
 450:	e040000a 	sub	r0, r0, sl
 454:	e0810960 	add	r0, r1, r0, ror #18
 458:	e000a002 	and	sl, r0, r2
 45c:	e18aa00b 	orr	sl, sl, fp
 460:	e08a3003 	add	r3, sl, r3
 464:	e59fa530 	ldr	sl, [pc, #1328]	; 99c <md5_process+0x99c>
 468:	e0833005 	add	r3, r3, r5
 46c:	e083300a 	add	r3, r3, sl
 470:	e0803663 	add	r3, r0, r3, ror #12
 474:	e003a001 	and	sl, r3, r1
 478:	e1c0b001 	bic	fp, r0, r1
 47c:	e18aa00b 	orr	sl, sl, fp
 480:	e08a2002 	add	r2, sl, r2
 484:	e59fa514 	ldr	sl, [pc, #1300]	; 9a0 <md5_process+0x9a0>
 488:	e0822007 	add	r2, r2, r7
 48c:	e042200a 	sub	r2, r2, sl
 490:	e0832de2 	add	r2, r3, r2, ror #27
 494:	e002a000 	and	sl, r2, r0
 498:	e1c3b000 	bic	fp, r3, r0
 49c:	e18aa00b 	orr	sl, sl, fp
 4a0:	e08a1001 	add	r1, sl, r1
 4a4:	e59fa4f8 	ldr	sl, [pc, #1272]	; 9a4 <md5_process+0x9a4>
 4a8:	e081100c 	add	r1, r1, ip
 4ac:	e081100a 	add	r1, r1, sl
 4b0:	e0821be1 	add	r1, r2, r1, ror #23
 4b4:	e001a003 	and	sl, r1, r3
 4b8:	e1c2b003 	bic	fp, r2, r3
 4bc:	e18aa00b 	orr	sl, sl, fp
 4c0:	e08a0000 	add	r0, sl, r0
 4c4:	e59fa4dc 	ldr	sl, [pc, #1244]	; 9a8 <md5_process+0x9a8>
 4c8:	e080000e 	add	r0, r0, lr
 4cc:	e080000a 	add	r0, r0, sl
 4d0:	e0810960 	add	r0, r1, r0, ror #18
 4d4:	e000a002 	and	sl, r0, r2
 4d8:	e1c1b002 	bic	fp, r1, r2
 4dc:	e18aa00b 	orr	sl, sl, fp
 4e0:	e08a3003 	add	r3, sl, r3
 4e4:	e59fa4c0 	ldr	sl, [pc, #1216]	; 9ac <md5_process+0x9ac>
 4e8:	e0833006 	add	r3, r3, r6
 4ec:	e083300a 	add	r3, r3, sl
 4f0:	e0803663 	add	r3, r0, r3, ror #12
 4f4:	e023a000 	eor	sl, r3, r0
 4f8:	e02aa001 	eor	sl, sl, r1
 4fc:	e08a2002 	add	r2, sl, r2
 500:	e59da068 	ldr	sl, [sp, #104]	; 0x68
 504:	e082200a 	add	r2, r2, sl
 508:	e59fa4a0 	ldr	sl, [pc, #1184]	; 9b0 <md5_process+0x9b0>
 50c:	e082200a 	add	r2, r2, sl
 510:	e0832e62 	add	r2, r3, r2, ror #28
 514:	e022a003 	eor	sl, r2, r3
 518:	e02aa000 	eor	sl, sl, r0
 51c:	e08a1001 	add	r1, sl, r1
 520:	e59fa48c 	ldr	sl, [pc, #1164]	; 9b4 <md5_process+0x9b4>
 524:	e0811005 	add	r1, r1, r5
 528:	e041100a 	sub	r1, r1, sl
 52c:	e0821ae1 	add	r1, r2, r1, ror #21
 530:	e021a002 	eor	sl, r1, r2
 534:	e02aa003 	eor	sl, sl, r3
 538:	e08a0000 	add	r0, sl, r0
 53c:	e59da048 	ldr	sl, [sp, #72]	; 0x48
 540:	e080000a 	add	r0, r0, sl
 544:	e59fa46c 	ldr	sl, [pc, #1132]	; 9b8 <md5_process+0x9b8>
 548:	e080000a 	add	r0, r0, sl
 54c:	e0810860 	add	r0, r1, r0, ror #16
 550:	e020a001 	eor	sl, r0, r1
 554:	e02aa002 	eor	sl, sl, r2
 558:	e08a3003 	add	r3, sl, r3
 55c:	e59fa458 	ldr	sl, [pc, #1112]	; 9bc <md5_process+0x9bc>
 560:	e0833008 	add	r3, r3, r8
 564:	e083300a 	add	r3, r3, sl
 568:	e08034e3 	add	r3, r0, r3, ror #9
 56c:	e023a000 	eor	sl, r3, r0
 570:	e02aa001 	eor	sl, sl, r1
 574:	e08a2002 	add	r2, sl, r2
 578:	e59da080 	ldr	sl, [sp, #128]	; 0x80
 57c:	e082200a 	add	r2, r2, sl
 580:	e59fa438 	ldr	sl, [pc, #1080]	; 9c0 <md5_process+0x9c0>
 584:	e042200a 	sub	r2, r2, sl
 588:	e0832e62 	add	r2, r3, r2, ror #28
 58c:	e022a003 	eor	sl, r2, r3
 590:	e02aa000 	eor	sl, sl, r0
 594:	e08a1001 	add	r1, sl, r1
 598:	e59da070 	ldr	sl, [sp, #112]	; 0x70
 59c:	e081100a 	add	r1, r1, sl
 5a0:	e59fa41c 	ldr	sl, [pc, #1052]	; 9c4 <md5_process+0x9c4>
 5a4:	e081100a 	add	r1, r1, sl
 5a8:	e0821ae1 	add	r1, r2, r1, ror #21
 5ac:	e021a002 	eor	sl, r1, r2
 5b0:	e02aa003 	eor	sl, sl, r3
 5b4:	e08a0000 	add	r0, sl, r0
 5b8:	e59fa408 	ldr	sl, [pc, #1032]	; 9c8 <md5_process+0x9c8>
 5bc:	e080000e 	add	r0, r0, lr
 5c0:	e040000a 	sub	r0, r0, sl
 5c4:	e0810860 	add	r0, r1, r0, ror #16
 5c8:	e020a001 	eor	sl, r0, r1
 5cc:	e02aa002 	eor	sl, sl, r2
 5d0:	e08a3003 	add	r3, sl, r3
 5d4:	e59da050 	ldr	sl, [sp, #80]	; 0x50
 5d8:	e083300a 	add	r3, r3, sl
 5dc:	e59fa3e8 	ldr	sl, [pc, #1000]	; 9cc <md5_process+0x9cc>
 5e0:	e043300a 	sub	r3, r3, sl
 5e4:	e08034e3 	add	r3, r0, r3, ror #9
 5e8:	e023a000 	eor	sl, r3, r0
 5ec:	e02aa001 	eor	sl, sl, r1
 5f0:	e08a2002 	add	r2, sl, r2
 5f4:	e59fa3d4 	ldr	sl, [pc, #980]	; 9d0 <md5_process+0x9d0>
 5f8:	e0822007 	add	r2, r2, r7
 5fc:	e082200a 	add	r2, r2, sl
 600:	e0832e62 	add	r2, r3, r2, ror #28
 604:	e022a003 	eor	sl, r2, r3
 608:	e02aa000 	eor	sl, sl, r0
 60c:	e08a1001 	add	r1, sl, r1
 610:	e59da088 	ldr	sl, [sp, #136]	; 0x88
 614:	e081100a 	add	r1, r1, sl
 618:	e59fa3b4 	ldr	sl, [pc, #948]	; 9d4 <md5_process+0x9d4>
 61c:	e041100a 	sub	r1, r1, sl
 620:	e0821ae1 	add	r1, r2, r1, ror #21
 624:	e021a002 	eor	sl, r1, r2
 628:	e02aa003 	eor	sl, sl, r3
 62c:	e08a0000 	add	r0, sl, r0
 630:	e59da078 	ldr	sl, [sp, #120]	; 0x78
 634:	e080000a 	add	r0, r0, sl
 638:	e59fa398 	ldr	sl, [pc, #920]	; 9d8 <md5_process+0x9d8>
 63c:	e040000a 	sub	r0, r0, sl
 640:	e0810860 	add	r0, r1, r0, ror #16
 644:	e020a001 	eor	sl, r0, r1
 648:	e02aa002 	eor	sl, sl, r2
 64c:	e08a3003 	add	r3, sl, r3
 650:	e59da060 	ldr	sl, [sp, #96]	; 0x60
 654:	e083300a 	add	r3, r3, sl
 658:	e59fa37c 	ldr	sl, [pc, #892]	; 9dc <md5_process+0x9dc>
 65c:	e083300a 	add	r3, r3, sl
 660:	e08034e3 	add	r3, r0, r3, ror #9
 664:	e023a000 	eor	sl, r3, r0
 668:	e02aa001 	eor	sl, sl, r1
 66c:	e08a2002 	add	r2, sl, r2
 670:	e59da058 	ldr	sl, [sp, #88]	; 0x58
 674:	e082200a 	add	r2, r2, sl
 678:	e59fa360 	ldr	sl, [pc, #864]	; 9e0 <md5_process+0x9e0>
 67c:	e042200a 	sub	r2, r2, sl
 680:	e0832e62 	add	r2, r3, r2, ror #28
 684:	e022a003 	eor	sl, r2, r3
 688:	e02aa000 	eor	sl, sl, r0
 68c:	e08a1001 	add	r1, sl, r1
 690:	e59fa34c 	ldr	sl, [pc, #844]	; 9e4 <md5_process+0x9e4>
 694:	e0811006 	add	r1, r1, r6
 698:	e081100a 	add	r1, r1, sl
 69c:	e0821ae1 	add	r1, r2, r1, ror #21
 6a0:	e021a002 	eor	sl, r1, r2
 6a4:	e02aa003 	eor	sl, sl, r3
 6a8:	e08a0000 	add	r0, sl, r0
 6ac:	e59fa334 	ldr	sl, [pc, #820]	; 9e8 <md5_process+0x9e8>
 6b0:	e0800009 	add	r0, r0, r9
 6b4:	e040000a 	sub	r0, r0, sl
 6b8:	e0810860 	add	r0, r1, r0, ror #16
 6bc:	e020a001 	eor	sl, r0, r1
 6c0:	e02aa002 	eor	sl, sl, r2
 6c4:	e08a3003 	add	r3, sl, r3
 6c8:	e59fa31c 	ldr	sl, [pc, #796]	; 9ec <md5_process+0x9ec>
 6cc:	e083300c 	add	r3, r3, ip
 6d0:	e083300a 	add	r3, r3, sl
 6d4:	e08034e3 	add	r3, r0, r3, ror #9
 6d8:	e1e0a001 	mvn	sl, r1
 6dc:	e183a00a 	orr	sl, r3, sl
 6e0:	e02aa000 	eor	sl, sl, r0
 6e4:	e08a2002 	add	r2, sl, r2
 6e8:	e59da088 	ldr	sl, [sp, #136]	; 0x88
 6ec:	e082200a 	add	r2, r2, sl
 6f0:	e59fa2f8 	ldr	sl, [pc, #760]	; 9f0 <md5_process+0x9f0>
 6f4:	e082200a 	add	r2, r2, sl
 6f8:	e0832d62 	add	r2, r3, r2, ror #26
 6fc:	e1e0a000 	mvn	sl, r0
 700:	e182a00a 	orr	sl, r2, sl
 704:	e02aa003 	eor	sl, sl, r3
 708:	e08a1001 	add	r1, sl, r1
 70c:	e081100e 	add	r1, r1, lr
 710:	e59fe2dc 	ldr	lr, [pc, #732]	; 9f4 <md5_process+0x9f4>
 714:	e59da068 	ldr	sl, [sp, #104]	; 0x68
 718:	e081100e 	add	r1, r1, lr
 71c:	e0821b61 	add	r1, r2, r1, ror #22
 720:	e1e0e003 	mvn	lr, r3
 724:	e181e00e 	orr	lr, r1, lr
 728:	e02ee002 	eor	lr, lr, r2
 72c:	e08e0000 	add	r0, lr, r0
 730:	e59fe2c0 	ldr	lr, [pc, #704]	; 9f8 <md5_process+0x9f8>
 734:	e0800008 	add	r0, r0, r8
 738:	e040000e 	sub	r0, r0, lr
 73c:	e08108e0 	add	r0, r1, r0, ror #17
 740:	e1e0e002 	mvn	lr, r2
 744:	e180e00e 	orr	lr, r0, lr
 748:	e02ee001 	eor	lr, lr, r1
 74c:	e08e3003 	add	r3, lr, r3
 750:	e59fe2a4 	ldr	lr, [pc, #676]	; 9fc <md5_process+0x9fc>
 754:	e083300a 	add	r3, r3, sl
 758:	e083300e 	add	r3, r3, lr
 75c:	e08035e3 	add	r3, r0, r3, ror #11
 760:	e1e0e001 	mvn	lr, r1
 764:	e183e00e 	orr	lr, r3, lr
 768:	e02ee000 	eor	lr, lr, r0
 76c:	e08e2002 	add	r2, lr, r2
 770:	e59fe288 	ldr	lr, [pc, #648]	; a00 <md5_process+0xa00>
 774:	e0822006 	add	r2, r2, r6
 778:	e082200e 	add	r2, r2, lr
 77c:	e0832d62 	add	r2, r3, r2, ror #26
 780:	e1e0e000 	mvn	lr, r0
 784:	e182e00e 	orr	lr, r2, lr
 788:	e02ee003 	eor	lr, lr, r3
 78c:	e59da078 	ldr	sl, [sp, #120]	; 0x78
 790:	e08e1001 	add	r1, lr, r1
 794:	e59fe268 	ldr	lr, [pc, #616]	; a04 <md5_process+0xa04>
 798:	e081100a 	add	r1, r1, sl
 79c:	e081100e 	add	r1, r1, lr
 7a0:	e0821b61 	add	r1, r2, r1, ror #22
 7a4:	e1e0e003 	mvn	lr, r3
 7a8:	e181e00e 	orr	lr, r1, lr
 7ac:	e02ee002 	eor	lr, lr, r2
 7b0:	e59da050 	ldr	sl, [sp, #80]	; 0x50
 7b4:	e08e0000 	add	r0, lr, r0
 7b8:	e59fe248 	ldr	lr, [pc, #584]	; a08 <md5_process+0xa08>
 7bc:	e080000a 	add	r0, r0, sl
 7c0:	e080000e 	add	r0, r0, lr
 7c4:	e08108e0 	add	r0, r1, r0, ror #17
 7c8:	e1e0e002 	mvn	lr, r2
 7cc:	e180e00e 	orr	lr, r0, lr
 7d0:	e02ee001 	eor	lr, lr, r1
 7d4:	e59da080 	ldr	sl, [sp, #128]	; 0x80
 7d8:	e08e3003 	add	r3, lr, r3
 7dc:	e59fe228 	ldr	lr, [pc, #552]	; a0c <md5_process+0xa0c>
 7e0:	e083300a 	add	r3, r3, sl
 7e4:	e083300e 	add	r3, r3, lr
 7e8:	e08035e3 	add	r3, r0, r3, ror #11
 7ec:	e1e0e001 	mvn	lr, r1
 7f0:	e183e00e 	orr	lr, r3, lr
 7f4:	e02ee000 	eor	lr, lr, r0
 7f8:	e08e2002 	add	r2, lr, r2
 7fc:	e59fe20c 	ldr	lr, [pc, #524]	; a10 <md5_process+0xa10>
 800:	e0822005 	add	r2, r2, r5
 804:	e082200e 	add	r2, r2, lr
 808:	e0832d62 	add	r2, r3, r2, ror #26
 80c:	e1e0e000 	mvn	lr, r0
 810:	e182e00e 	orr	lr, r2, lr
 814:	e02ee003 	eor	lr, lr, r3
 818:	e08e1001 	add	r1, lr, r1
 81c:	e59fe1f0 	ldr	lr, [pc, #496]	; a14 <md5_process+0xa14>
 820:	e0811009 	add	r1, r1, r9
 824:	e041100e 	sub	r1, r1, lr
 828:	e0821b61 	add	r1, r2, r1, ror #22
 82c:	e1e0e003 	mvn	lr, r3
 830:	e181e00e 	orr	lr, r1, lr
 834:	e02ee002 	eor	lr, lr, r2
 838:	e59da060 	ldr	sl, [sp, #96]	; 0x60
 83c:	e08e0000 	add	r0, lr, r0
 840:	e59fe1d0 	ldr	lr, [pc, #464]	; a18 <md5_process+0xa18>
 844:	e080000a 	add	r0, r0, sl
 848:	e080000e 	add	r0, r0, lr
 84c:	e08108e0 	add	r0, r1, r0, ror #17
 850:	e1e0e002 	mvn	lr, r2
 854:	e180e00e 	orr	lr, r0, lr
 858:	e02ee001 	eor	lr, lr, r1
 85c:	e08e3003 	add	r3, lr, r3
 860:	e59fe1b4 	ldr	lr, [pc, #436]	; a1c <md5_process+0xa1c>
 864:	e0833007 	add	r3, r3, r7
 868:	e083300e 	add	r3, r3, lr
 86c:	e08035e3 	add	r3, r0, r3, ror #11
 870:	e1e0e001 	mvn	lr, r1
 874:	e183e00e 	orr	lr, r3, lr
 878:	e02ee000 	eor	lr, lr, r0
 87c:	e59da070 	ldr	sl, [sp, #112]	; 0x70
 880:	e08e2002 	add	r2, lr, r2
 884:	e59fe194 	ldr	lr, [pc, #404]	; a20 <md5_process+0xa20>
 888:	e082200a 	add	r2, r2, sl
 88c:	e082200e 	add	r2, r2, lr
 890:	e0832d62 	add	r2, r3, r2, ror #26
 894:	e1e0e000 	mvn	lr, r0
 898:	e182e00e 	orr	lr, r2, lr
 89c:	e02ee003 	eor	lr, lr, r3
 8a0:	e59da048 	ldr	sl, [sp, #72]	; 0x48
 8a4:	e08e1001 	add	r1, lr, r1
 8a8:	e59fe174 	ldr	lr, [pc, #372]	; a24 <md5_process+0xa24>
 8ac:	e081100a 	add	r1, r1, sl
 8b0:	e081100e 	add	r1, r1, lr
 8b4:	e0821b61 	add	r1, r2, r1, ror #22
 8b8:	e1e0e003 	mvn	lr, r3
 8bc:	e181e00e 	orr	lr, r1, lr
 8c0:	e02ee002 	eor	lr, lr, r2
 8c4:	e08e0000 	add	r0, lr, r0
 8c8:	e080000c 	add	r0, r0, ip
 8cc:	e59fc154 	ldr	ip, [pc, #340]	; a28 <md5_process+0xa28>
 8d0:	e59da058 	ldr	sl, [sp, #88]	; 0x58
 8d4:	e080000c 	add	r0, r0, ip
 8d8:	e1e0c002 	mvn	ip, r2
 8dc:	e08108e0 	add	r0, r1, r0, ror #17
 8e0:	e180c00c 	orr	ip, r0, ip
 8e4:	e59d8098 	ldr	r8, [sp, #152]	; 0x98
 8e8:	e02cc001 	eor	ip, ip, r1
 8ec:	e08c3003 	add	r3, ip, r3
 8f0:	e59fc134 	ldr	ip, [pc, #308]	; a2c <md5_process+0xa2c>
 8f4:	e0882002 	add	r2, r8, r2
 8f8:	e083300a 	add	r3, r3, sl
 8fc:	e5842008 	str	r2, [r4, #8]
 900:	e59d5094 	ldr	r5, [sp, #148]	; 0x94
 904:	e083300c 	add	r3, r3, ip
 908:	e08035e3 	add	r3, r0, r3, ror #11
 90c:	e0852003 	add	r2, r5, r3
 910:	e584200c 	str	r2, [r4, #12]
 914:	e59d6090 	ldr	r6, [sp, #144]	; 0x90
 918:	e0860000 	add	r0, r6, r0
 91c:	e5840010 	str	r0, [r4, #16]
 920:	e59d708c 	ldr	r7, [sp, #140]	; 0x8c
 924:	e0870001 	add	r0, r7, r1
 928:	e5840014 	str	r0, [r4, #20]
 92c:	e28dd09c 	add	sp, sp, #156	; 0x9c
 930:	e8bd8ff0 	pop	{r4, r5, r6, r7, r8, r9, sl, fp, pc}
 934:	d76aa478 	.word	0xd76aa478
 938:	e8c7b756 	.word	0xe8c7b756
 93c:	242070db 	.word	0x242070db
 940:	c1bdceee 	.word	0xc1bdceee
 944:	0a83f051 	.word	0x0a83f051
 948:	4787c62a 	.word	0x4787c62a
 94c:	a8304613 	.word	0xa8304613
 950:	fd469501 	.word	0xfd469501
 954:	698098d8 	.word	0x698098d8
 958:	74bb0851 	.word	0x74bb0851
 95c:	76a32842 	.word	0x76a32842
 960:	6b901122 	.word	0x6b901122
 964:	02678e6d 	.word	0x02678e6d
 968:	5986bc72 	.word	0x5986bc72
 96c:	49b40821 	.word	0x49b40821
 970:	f61e2562 	.word	0xf61e2562
 974:	3fbf4cc0 	.word	0x3fbf4cc0
 978:	265e5a51 	.word	0x265e5a51
 97c:	e9b6c7aa 	.word	0xe9b6c7aa
 980:	29d0efa3 	.word	0x29d0efa3
 984:	02441453 	.word	0x02441453
 988:	275e197f 	.word	0x275e197f
 98c:	182c0438 	.word	0x182c0438
 990:	21e1cde6 	.word	0x21e1cde6
 994:	c33707d6 	.word	0xc33707d6
 998:	0b2af279 	.word	0x0b2af279
 99c:	455a14ed 	.word	0x455a14ed
 9a0:	561c16fb 	.word	0x561c16fb
 9a4:	fcefa3f8 	.word	0xfcefa3f8
 9a8:	676f02d9 	.word	0x676f02d9
 9ac:	8d2a4c8a 	.word	0x8d2a4c8a
 9b0:	fffa3942 	.word	0xfffa3942
 9b4:	788e097f 	.word	0x788e097f
 9b8:	6d9d6122 	.word	0x6d9d6122
 9bc:	fde5380c 	.word	0xfde5380c
 9c0:	5b4115bc 	.word	0x5b4115bc
 9c4:	4bdecfa9 	.word	0x4bdecfa9
 9c8:	0944b4a0 	.word	0x0944b4a0
 9cc:	41404390 	.word	0x41404390
 9d0:	289b7ec6 	.word	0x289b7ec6
 9d4:	155ed806 	.word	0x155ed806
 9d8:	2b10cf7b 	.word	0x2b10cf7b
 9dc:	04881d05 	.word	0x04881d05
 9e0:	262b2fc7 	.word	0x262b2fc7
 9e4:	e6db99e5 	.word	0xe6db99e5
 9e8:	e05d8308 	.word	0xe05d8308
 9ec:	c4ac5665 	.word	0xc4ac5665
 9f0:	f4292244 	.word	0xf4292244
 9f4:	432aff97 	.word	0x432aff97
 9f8:	546bdc59 	.word	0x546bdc59
 9fc:	fc93a039 	.word	0xfc93a039
 a00:	655b59c3 	.word	0x655b59c3
 a04:	8f0ccc92 	.word	0x8f0ccc92
 a08:	ffeff47d 	.word	0xffeff47d
 a0c:	85845dd1 	.word	0x85845dd1
 a10:	6fa87e4f 	.word	0x6fa87e4f
 a14:	01d31920 	.word	0x01d31920
 a18:	a3014314 	.word	0xa3014314
 a1c:	4e0811a1 	.word	0x4e0811a1
 a20:	f7537e82 	.word	0xf7537e82
 a24:	bd3af235 	.word	0xbd3af235
 a28:	2ad7d2bb 	.word	0x2ad7d2bb
 a2c:	eb86d391 	.word	0xeb86d391

Disassembly of section i.mr_md5_append:

00000000 <mr_md5_append>:
   0:	e92d41f0 	push	{r4, r5, r6, r7, r8, lr}
   4:	e1a06001 	mov	r6, r1
   8:	e5901000 	ldr	r1, [r0]
   c:	e1a05000 	mov	r5, r0
  10:	e1a00b81 	lsl	r0, r1, #23
  14:	e1a07d20 	lsr	r7, r0, #26
  18:	e2524000 	subs	r4, r2, #0
  1c:	e1a00182 	lsl	r0, r2, #3
  20:	d8bd81f0 	pople	{r4, r5, r6, r7, r8, pc}
  24:	e5953004 	ldr	r3, [r5, #4]
  28:	e0811000 	add	r1, r1, r0
  2c:	e0833ec2 	add	r3, r3, r2, asr #29
  30:	e1510000 	cmp	r1, r0
  34:	32830001 	addcc	r0, r3, #1
  38:	e885000a 	stm	r5, {r1, r3}
  3c:	35850004 	strcc	r0, [r5, #4]
  40:	e3570000 	cmp	r7, #0
  44:	0a000015 	beq	a0 <mr_md5_append+0xa0>
  48:	e0870002 	add	r0, r7, r2
  4c:	e3500040 	cmp	r0, #64	; 0x40
  50:	c2672040 	rsbgt	r2, r7, #64	; 0x40
  54:	e0850007 	add	r0, r5, r7
  58:	e2800018 	add	r0, r0, #24
  5c:	e1a08002 	mov	r8, r2
  60:	e1a01006 	mov	r1, r6
  64:	ebfffffe 	bl	0 <__aeabi_memcpy>
  68:	e0870008 	add	r0, r7, r8
  6c:	e3500040 	cmp	r0, #64	; 0x40
  70:	b8bd81f0 	poplt	{r4, r5, r6, r7, r8, pc}
  74:	e0866008 	add	r6, r6, r8
  78:	e0444008 	sub	r4, r4, r8
  7c:	e2851018 	add	r1, r5, #24
  80:	e1a00005 	mov	r0, r5
  84:	ebfffffe 	bl	0 <mr_md5_append>
  88:	ea000004 	b	a0 <mr_md5_append+0xa0>
  8c:	e1a01006 	mov	r1, r6
  90:	e1a00005 	mov	r0, r5
  94:	ebfffffe 	bl	0 <mr_md5_append>
  98:	e2866040 	add	r6, r6, #64	; 0x40
  9c:	e2444040 	sub	r4, r4, #64	; 0x40
  a0:	e3540040 	cmp	r4, #64	; 0x40
  a4:	aafffff8 	bge	8c <mr_md5_append+0x8c>
  a8:	e3540000 	cmp	r4, #0
  ac:	11a02004 	movne	r2, r4
  b0:	11a01006 	movne	r1, r6
  b4:	12850018 	addne	r0, r5, #24
  b8:	18bd41f0 	popne	{r4, r5, r6, r7, r8, lr}
  bc:	1afffffe 	bne	0 <__aeabi_memcpy>
  c0:	e8bd81f0 	pop	{r4, r5, r6, r7, r8, pc}

Disassembly of section i.mr_md5_finish:

00000000 <mr_md5_finish>:
   0:	e92d407c 	push	{r2, r3, r4, r5, r6, lr}
   4:	e1a04000 	mov	r4, r0
   8:	e3a00000 	mov	r0, #0
   c:	e1a0200d 	mov	r2, sp
  10:	e1a05001 	mov	r5, r1
  14:	e3c01003 	bic	r1, r0, #3
  18:	e1a03f00 	lsl	r3, r0, #30
  1c:	e7941001 	ldr	r1, [r4, r1]
  20:	e1a03da3 	lsr	r3, r3, #27
  24:	e1a01331 	lsr	r1, r1, r3
  28:	e7c21000 	strb	r1, [r2, r0]
  2c:	e2800001 	add	r0, r0, #1
  30:	e3500008 	cmp	r0, #8
  34:	bafffff6 	blt	14 <mr_md5_finish+0x14>
  38:	e5940000 	ldr	r0, [r4]
  3c:	e3a01037 	mov	r1, #55	; 0x37
  40:	e04101a0 	sub	r0, r1, r0, lsr #3
  44:	e200003f 	and	r0, r0, #63	; 0x3f
  48:	e2802001 	add	r2, r0, #1
  4c:	e59f1044 	ldr	r1, [pc, #68]	; 98 <mr_md5_finish+0x98>
  50:	e1a00004 	mov	r0, r4
  54:	ebfffffe 	bl	0 <mr_md5_finish>
  58:	e3a02008 	mov	r2, #8
  5c:	e1a0100d 	mov	r1, sp
  60:	e1a00004 	mov	r0, r4
  64:	ebfffffe 	bl	0 <mr_md5_finish>
  68:	e3a00000 	mov	r0, #0
  6c:	e3c01003 	bic	r1, r0, #3
  70:	e0811004 	add	r1, r1, r4
  74:	e1a02f00 	lsl	r2, r0, #30
  78:	e5911008 	ldr	r1, [r1, #8]
  7c:	e1a02da2 	lsr	r2, r2, #27
  80:	e1a01231 	lsr	r1, r1, r2
  84:	e7c51000 	strb	r1, [r5, r0]
  88:	e2800001 	add	r0, r0, #1
  8c:	e3500010 	cmp	r0, #16
  90:	bafffff5 	blt	6c <mr_md5_finish+0x6c>
  94:	e8bd807c 	pop	{r2, r3, r4, r5, r6, pc}
  98:	00000028 	.word	0x00000028

Disassembly of section i.mr_md5_init:

00000000 <mr_md5_init>:
   0:	e3a01000 	mov	r1, #0
   4:	e5801004 	str	r1, [r0, #4]
   8:	e5801000 	str	r1, [r0]
   c:	e59f101c 	ldr	r1, [pc, #28]	; 30 <mr_md5_init+0x30>
  10:	e5801008 	str	r1, [r0, #8]
  14:	e59f1018 	ldr	r1, [pc, #24]	; 34 <mr_md5_init+0x34>
  18:	e580100c 	str	r1, [r0, #12]
  1c:	e59f1014 	ldr	r1, [pc, #20]	; 38 <mr_md5_init+0x38>
  20:	e5801010 	str	r1, [r0, #16]
  24:	e59f1010 	ldr	r1, [pc, #16]	; 3c <mr_md5_init+0x3c>
  28:	e5801014 	str	r1, [r0, #20]
  2c:	e12fff1e 	bx	lr
  30:	67452301 	.word	0x67452301
  34:	efcdab89 	.word	0xefcdab89
  38:	98badcfe 	.word	0x98badcfe
  3c:	10325476 	.word	0x10325476

Disassembly of section i._mr_TestCom1:

00000000 <_mr_TestCom1>:
   0:	e92d4ff0 	push	{r4, r5, r6, r7, r8, r9, sl, fp, lr}
   4:	e59f5518 	ldr	r5, [pc, #1304]	; 524 <_mr_TestCom1+0x524>
   8:	e59fc518 	ldr	ip, [pc, #1304]	; 528 <_mr_TestCom1+0x528>
   c:	e24dd06c 	sub	sp, sp, #108	; 0x6c
  10:	e3a08000 	mov	r8, #0
  14:	e1a0b000 	mov	fp, r0
  18:	e58d8068 	str	r8, [sp, #104]	; 0x68
  1c:	e5950018 	ldr	r0, [r5, #24]
  20:	e151000c 	cmp	r1, ip
  24:	e283705d 	add	r7, r3, #93	; 0x5d
  28:	e1a06003 	mov	r6, r3
  2c:	e1a04002 	mov	r4, r2
  30:	0a0000f2 	beq	400 <_mr_TestCom1+0x400>
  34:	ca000027 	bgt	d8 <_mr_TestCom1+0xd8>
  38:	e3510006 	cmp	r1, #6
  3c:	05858014 	streq	r8, [r5, #20]
  40:	0a0000b1 	beq	30c <_mr_TestCom1+0x30c>
  44:	ca000008 	bgt	6c <_mr_TestCom1+0x6c>
  48:	e3510005 	cmp	r1, #5
  4c:	908ff101 	addls	pc, pc, r1, lsl #2
  50:	ea0000ad 	b	30c <_mr_TestCom1+0x30c>
  54:	ea0000ac 	b	30c <_mr_TestCom1+0x30c>
  58:	ea0000ab 	b	30c <_mr_TestCom1+0x30c>
  5c:	ea000073 	b	230 <_mr_TestCom1+0x230>
  60:	ea00007a 	b	250 <_mr_TestCom1+0x250>
  64:	ea00008e 	b	2a4 <_mr_TestCom1+0x2a4>
  68:	ea000097 	b	2cc <_mr_TestCom1+0x2cc>
  6c:	e35100c8 	cmp	r1, #200	; 0xc8
  70:	0a00009b 	beq	2e4 <_mr_TestCom1+0x2e4>
  74:	ca000007 	bgt	98 <_mr_TestCom1+0x98>
  78:	e3510009 	cmp	r1, #9
  7c:	0a000094 	beq	2d4 <_mr_TestCom1+0x2d4>
  80:	e3510064 	cmp	r1, #100	; 0x64
  84:	1a0000a0 	bne	30c <_mr_TestCom1+0x30c>
  88:	e1a01004 	mov	r1, r4
  8c:	e1a0000b 	mov	r0, fp
  90:	ebfffffe 	bl	0 <_mr_TestCom1>
  94:	ea00009b 	b	308 <_mr_TestCom1+0x308>
  98:	e3510f4b 	cmp	r1, #300	; 0x12c
  9c:	0a0000a2 	beq	32c <_mr_TestCom1+0x32c>
  a0:	e3510f7d 	cmp	r1, #500	; 0x1f4
  a4:	1a000098 	bne	30c <_mr_TestCom1+0x30c>
  a8:	e28d0010 	add	r0, sp, #16
  ac:	ebfffffe 	bl	0 <_mr_TestCom1>
  b0:	e1a02006 	mov	r2, r6
  b4:	e1a01004 	mov	r1, r4
  b8:	e28d0010 	add	r0, sp, #16
  bc:	ebfffffe 	bl	0 <_mr_TestCom1>
  c0:	e1a0100d 	mov	r1, sp
  c4:	e28d0010 	add	r0, sp, #16
  c8:	ebfffffe 	bl	0 <_mr_TestCom1>
  cc:	e3a02010 	mov	r2, #16
  d0:	e1a0100d 	mov	r1, sp
  d4:	ea00009e 	b	354 <_mr_TestCom1+0x354>
  d8:	e3510faf 	cmp	r1, #700	; 0x2bc
  dc:	0a00012f 	beq	5a0 <_mr_TestCom1+0x5a0>
  e0:	ca000032 	bgt	1b0 <_mr_TestCom1+0x1b0>
  e4:	e59fc440 	ldr	ip, [pc, #1088]	; 52c <_mr_TestCom1+0x52c>
  e8:	e151000c 	cmp	r1, ip
  ec:	0a0000f2 	beq	4bc <_mr_TestCom1+0x4bc>
  f0:	ca000021 	bgt	17c <_mr_TestCom1+0x17c>
  f4:	e241cc01 	sub	ip, r1, #256	; 0x100
  f8:	e25cc0f6 	subs	ip, ip, #246	; 0xf6
  fc:	0a0000d7 	beq	460 <_mr_TestCom1+0x460>
 100:	e3510f96 	cmp	r1, #600	; 0x258
 104:	1a000080 	bne	30c <_mr_TestCom1+0x30c>
 108:	e5d41000 	ldrb	r1, [r4]
 10c:	e351002a 	cmp	r1, #42	; 0x2a
 110:	11a06000 	movne	r6, r0
 114:	1a000006 	bne	134 <_mr_TestCom1+0x134>
 118:	e5d40001 	ldrb	r0, [r4, #1]
 11c:	e2500041 	subs	r0, r0, #65	; 0x41
 120:	4a0000dc 	bmi	498 <_mr_TestCom1+0x498>
 124:	e3500032 	cmp	r0, #50	; 0x32
 128:	2a0000da 	bcs	498 <_mr_TestCom1+0x498>
 12c:	e59f13fc 	ldr	r1, [pc, #1020]	; 530 <_mr_TestCom1+0x530>
 130:	e7916100 	ldr	r6, [r1, r0, lsl #2]
 134:	e3560000 	cmp	r6, #0
 138:	0a0000d6 	beq	498 <_mr_TestCom1+0x498>
 13c:	e3a02000 	mov	r2, #0
 140:	e3a01003 	mov	r1, #3
 144:	e1a0000b 	mov	r0, fp
 148:	ebfffffe 	bl	0 <to_mr_tonumber>
 14c:	e1a07000 	mov	r7, r0
 150:	e1a0000b 	mov	r0, fp
 154:	e3a02000 	mov	r2, #0
 158:	e3a01004 	mov	r1, #4
 15c:	ebfffffe 	bl	0 <to_mr_tonumber>
 160:	e3700001 	cmn	r0, #1
 164:	05d41000 	ldrbeq	r1, [r4]
 168:	03510024 	cmpeq	r1, #36	; 0x24
 16c:	05950054 	ldreq	r0, [r5, #84]	; 0x54
 170:	e0861007 	add	r1, r6, r7
 174:	e1a02000 	mov	r2, r0
 178:	ea000075 	b	354 <_mr_TestCom1+0x354>
 17c:	e241cc02 	sub	ip, r1, #512	; 0x200
 180:	e25cc05a 	subs	ip, ip, #90	; 0x5a
 184:	0a0000dc 	beq	4fc <_mr_TestCom1+0x4fc>
 188:	e241cc02 	sub	ip, r1, #512	; 0x200
 18c:	e25cc05b 	subs	ip, ip, #91	; 0x5b
 190:	1a00005d 	bne	30c <_mr_TestCom1+0x30c>
 194:	e3a02002 	mov	r2, #2
 198:	e28d1068 	add	r1, sp, #104	; 0x68
 19c:	e1a00004 	mov	r0, r4
 1a0:	ebfffffe 	bl	0 <_mr_TestCom1>
 1a4:	e3500000 	cmp	r0, #0
 1a8:	1a0000f7 	bne	58c <_mr_TestCom1+0x58c>
 1ac:	ea0000cf 	b	4f0 <_mr_TestCom1+0x4f0>
 1b0:	e59fc380 	ldr	ip, [pc, #896]	; 538 <_mr_TestCom1+0x538>
 1b4:	e59fa378 	ldr	sl, [pc, #888]	; 534 <_mr_TestCom1+0x534>
 1b8:	e151000c 	cmp	r1, ip
 1bc:	e2849008 	add	r9, r4, #8
 1c0:	0a00010d 	beq	5fc <_mr_TestCom1+0x5fc>
 1c4:	ca00000c 	bgt	1fc <_mr_TestCom1+0x1fc>
 1c8:	e241cc02 	sub	ip, r1, #512	; 0x200
 1cc:	e25cc0bd 	subs	ip, ip, #189	; 0xbd
 1d0:	0a0000fb 	beq	5c4 <_mr_TestCom1+0x5c4>
 1d4:	e3510e32 	cmp	r1, #800	; 0x320
 1d8:	1a00004b 	bne	30c <_mr_TestCom1+0x30c>
 1dc:	e3a02000 	mov	r2, #0
 1e0:	e3a01003 	mov	r1, #3
 1e4:	e1a0000b 	mov	r0, fp
 1e8:	ebfffffe 	bl	0 <mr_L_optnumber>
 1ec:	e5859090 	str	r9, [r5, #144]	; 0x90
 1f0:	e1a06000 	mov	r6, r0
 1f4:	e584a000 	str	sl, [r4]
 1f8:	ea00012b 	b	6ac <_mr_TestCom1+0x6ac>
 1fc:	e241cc03 	sub	ip, r1, #768	; 0x300
 200:	e25cc022 	subs	ip, ip, #34	; 0x22
 204:	0a00011c 	beq	67c <_mr_TestCom1+0x67c>
 208:	e3510fe1 	cmp	r1, #900	; 0x384
 20c:	1a00003e 	bne	30c <_mr_TestCom1+0x30c>
 210:	e3a03000 	mov	r3, #0
 214:	e59f1320 	ldr	r1, [pc, #800]	; 53c <_mr_TestCom1+0x53c>
 218:	e59f0320 	ldr	r0, [pc, #800]	; 540 <_mr_TestCom1+0x540>
 21c:	e3a02010 	mov	r2, #16
 220:	e58d3000 	str	r3, [sp]
 224:	e58d3004 	str	r3, [sp, #4]
 228:	ebfffffe 	bl	0 <mr_platEx>
 22c:	ea000035 	b	308 <_mr_TestCom1+0x308>
 230:	e3500000 	cmp	r0, #0
 234:	0a000002 	beq	244 <_mr_TestCom1+0x244>
 238:	e5951054 	ldr	r1, [r5, #84]	; 0x54
 23c:	ebfffffe 	bl	0 <_mr_TestCom1>
 240:	e5858018 	str	r8, [r5, #24]
 244:	e5a54018 	str	r4, [r5, #24]!
 248:	e585603c 	str	r6, [r5, #60]	; 0x3c
 24c:	ea00002e 	b	30c <_mr_TestCom1+0x30c>
 250:	e3a03000 	mov	r3, #0
 254:	e28f2fba 	add	r2, pc, #744	; 0x2e8
 258:	e3a01003 	mov	r1, #3
 25c:	e1a0000b 	mov	r0, fp
 260:	ebfffffe 	bl	0 <mr_L_optlstring>
 264:	e1a05000 	mov	r5, r0
 268:	e59f02e0 	ldr	r0, [pc, #736]	; 550 <_mr_TestCom1+0x550>
 26c:	e3a01080 	mov	r1, #128	; 0x80
 270:	ebfffffe 	bl	0 <__aeabi_memclr4>
 274:	e3540000 	cmp	r4, #0
 278:	159f02d0 	ldrne	r0, [pc, #720]	; 550 <_mr_TestCom1+0x550>
 27c:	13a0207f 	movne	r2, #127	; 0x7f
 280:	11a01004 	movne	r1, r4
 284:	1bfffffe 	blne	0 <_mr_TestCom1>
 288:	e59f02c4 	ldr	r0, [pc, #708]	; 554 <_mr_TestCom1+0x554>
 28c:	e3a01080 	mov	r1, #128	; 0x80
 290:	ebfffffe 	bl	0 <__aeabi_memclr4>
 294:	e59f02b8 	ldr	r0, [pc, #696]	; 554 <_mr_TestCom1+0x554>
 298:	e3a0207f 	mov	r2, #127	; 0x7f
 29c:	e1a01005 	mov	r1, r5
 2a0:	ea000007 	b	2c4 <_mr_TestCom1+0x2c4>
 2a4:	e59f02ac 	ldr	r0, [pc, #684]	; 558 <_mr_TestCom1+0x558>
 2a8:	e3a01080 	mov	r1, #128	; 0x80
 2ac:	ebfffffe 	bl	0 <__aeabi_memclr4>
 2b0:	e3540000 	cmp	r4, #0
 2b4:	0a000014 	beq	30c <_mr_TestCom1+0x30c>
 2b8:	e59f0298 	ldr	r0, [pc, #664]	; 558 <_mr_TestCom1+0x558>
 2bc:	e3a0207f 	mov	r2, #127	; 0x7f
 2c0:	e1a01004 	mov	r1, r4
 2c4:	ebfffffe 	bl	0 <_mr_TestCom1>
 2c8:	ea00000f 	b	30c <_mr_TestCom1+0x30c>
 2cc:	e5854014 	str	r4, [r5, #20]
 2d0:	ea00000d 	b	30c <_mr_TestCom1+0x30c>
 2d4:	e3c7101f 	bic	r1, r7, #31
 2d8:	e3c4001f 	bic	r0, r4, #31
 2dc:	ebfffffe 	bl	0 <mr_cacheSync>
 2e0:	ea00006c 	b	498 <_mr_TestCom1+0x498>
 2e4:	e3a01000 	mov	r1, #0
 2e8:	e3a00000 	mov	r0, #0
 2ec:	ebfffffe 	bl	0 <mr_updcrc>
 2f0:	e1a01006 	mov	r1, r6
 2f4:	e1a00004 	mov	r0, r4
 2f8:	ebfffffe 	bl	0 <mr_updcrc>
 2fc:	e3a01000 	mov	r1, #0
 300:	e1a00004 	mov	r0, r4
 304:	ebfffffe 	bl	0 <mr_updcrc>
 308:	e58d0068 	str	r0, [sp, #104]	; 0x68
 30c:	e35b0000 	cmp	fp, #0
 310:	0a000060 	beq	498 <_mr_TestCom1+0x498>
 314:	e59d1068 	ldr	r1, [sp, #104]	; 0x68
 318:	e1a0000b 	mov	r0, fp
 31c:	ebfffffe 	bl	0 <to_mr_pushnumber>
 320:	e3a00001 	mov	r0, #1
 324:	e28dd06c 	add	sp, sp, #108	; 0x6c
 328:	e8bd8ff0 	pop	{r4, r5, r6, r7, r8, r9, sl, fp, pc}
 32c:	e5854058 	str	r4, [r5, #88]	; 0x58
 330:	e5858064 	str	r8, [r5, #100]	; 0x64
 334:	e1a00006 	mov	r0, r6
 338:	e5858060 	str	r8, [r5, #96]	; 0x60
 33c:	ebfffffe 	bl	0 <mr_get_method>
 340:	e3500000 	cmp	r0, #0
 344:	e58d0068 	str	r0, [sp, #104]	; 0x68
 348:	aa000004 	bge	360 <_mr_TestCom1+0x360>
 34c:	e1a02006 	mov	r2, r6
 350:	e1a01004 	mov	r1, r4
 354:	e1a0000b 	mov	r0, fp
 358:	ebfffffe 	bl	0 <mrp_pushlstring>
 35c:	eaffffef 	b	320 <_mr_TestCom1+0x320>
 360:	e5950068 	ldr	r0, [r5, #104]	; 0x68
 364:	e3500002 	cmp	r0, #2
 368:	1a000009 	bne	394 <_mr_TestCom1+0x394>
 36c:	e5950058 	ldr	r0, [r5, #88]	; 0x58
 370:	e5d01016 	ldrb	r1, [r0, #22]
 374:	e5d02017 	ldrb	r2, [r0, #23]
 378:	e1811402 	orr	r1, r1, r2, lsl #8
 37c:	e5d02018 	ldrb	r2, [r0, #24]
 380:	e5d00019 	ldrb	r0, [r0, #25]
 384:	e1820400 	orr	r0, r2, r0, lsl #8
 388:	e1810800 	orr	r0, r1, r0, lsl #16
 38c:	e58d0064 	str	r0, [sp, #100]	; 0x64
 390:	ea000005 	b	3ac <_mr_TestCom1+0x3ac>
 394:	e0840006 	add	r0, r4, r6
 398:	e2401004 	sub	r1, r0, #4
 39c:	e28d0064 	add	r0, sp, #100	; 0x64
 3a0:	e3a02004 	mov	r2, #4
 3a4:	ebfffffe 	bl	0 <__aeabi_memcpy>
 3a8:	e59d0064 	ldr	r0, [sp, #100]	; 0x64
 3ac:	ebfffffe 	bl	0 <_mr_TestCom1>
 3b0:	e3500000 	cmp	r0, #0
 3b4:	e585005c 	str	r0, [r5, #92]	; 0x5c
 3b8:	028f0f67 	addeq	r0, pc, #412	; 0x19c
 3bc:	0a000006 	beq	3dc <_mr_TestCom1+0x3dc>
 3c0:	ebfffffe 	bl	0 <mr_unzip>
 3c4:	e3500000 	cmp	r0, #0
 3c8:	0a000005 	beq	3e4 <_mr_TestCom1+0x3e4>
 3cc:	e59d1064 	ldr	r1, [sp, #100]	; 0x64
 3d0:	e595005c 	ldr	r0, [r5, #92]	; 0x5c
 3d4:	ebfffffe 	bl	0 <_mr_TestCom1>
 3d8:	e28f0f66 	add	r0, pc, #408	; 0x198
 3dc:	ebfffffe 	bl	0 <mr_printf>
 3e0:	ea00002c 	b	498 <_mr_TestCom1+0x498>
 3e4:	e59d2064 	ldr	r2, [sp, #100]	; 0x64
 3e8:	e595105c 	ldr	r1, [r5, #92]	; 0x5c
 3ec:	e1a0000b 	mov	r0, fp
 3f0:	ebfffffe 	bl	0 <mrp_pushlstring>
 3f4:	e59d1064 	ldr	r1, [sp, #100]	; 0x64
 3f8:	e595005c 	ldr	r0, [r5, #92]	; 0x5c
 3fc:	ea000015 	b	458 <_mr_TestCom1+0x458>
 400:	e1a00106 	lsl	r0, r6, #2
 404:	e3a01003 	mov	r1, #3
 408:	ebfffffe 	bl	0 <__aeabi_idivmod>
 40c:	e2807008 	add	r7, r0, #8
 410:	e1a00007 	mov	r0, r7
 414:	ebfffffe 	bl	0 <_mr_TestCom1>
 418:	e1b05000 	movs	r5, r0
 41c:	0a00001d 	beq	498 <_mr_TestCom1+0x498>
 420:	e1a02005 	mov	r2, r5
 424:	e1a01006 	mov	r1, r6
 428:	e1a00004 	mov	r0, r4
 42c:	ebfffffe 	bl	0 <_mr_encode>
 430:	e3700001 	cmn	r0, #1
 434:	01a01007 	moveq	r1, r7
 438:	e58d0068 	str	r0, [sp, #104]	; 0x68
 43c:	0a000013 	beq	490 <_mr_TestCom1+0x490>
 440:	e1a02000 	mov	r2, r0
 444:	e1a0000b 	mov	r0, fp
 448:	e1a01005 	mov	r1, r5
 44c:	ebfffffe 	bl	0 <mrp_pushlstring>
 450:	e1a01007 	mov	r1, r7
 454:	ea000016 	b	4b4 <_mr_TestCom1+0x4b4>
 458:	ebfffffe 	bl	0 <_mr_TestCom1>
 45c:	eaffffaf 	b	320 <_mr_TestCom1+0x320>
 460:	e1a00006 	mov	r0, r6
 464:	ebfffffe 	bl	0 <_mr_TestCom1>
 468:	e1b05000 	movs	r5, r0
 46c:	0a000009 	beq	498 <_mr_TestCom1+0x498>
 470:	e1a02005 	mov	r2, r5
 474:	e1a01006 	mov	r1, r6
 478:	e1a00004 	mov	r0, r4
 47c:	ebfffffe 	bl	0 <_mr_decode>
 480:	e3700001 	cmn	r0, #1
 484:	e58d0068 	str	r0, [sp, #104]	; 0x68
 488:	1a000004 	bne	4a0 <_mr_TestCom1+0x4a0>
 48c:	e1a01006 	mov	r1, r6
 490:	e1a00005 	mov	r0, r5
 494:	ebfffffe 	bl	0 <_mr_TestCom1>
 498:	e3a00000 	mov	r0, #0
 49c:	eaffffa0 	b	324 <_mr_TestCom1+0x324>
 4a0:	e1a02000 	mov	r2, r0
 4a4:	e1a0000b 	mov	r0, fp
 4a8:	e1a01005 	mov	r1, r5
 4ac:	ebfffffe 	bl	0 <mrp_pushlstring>
 4b0:	e1a01006 	mov	r1, r6
 4b4:	e1a00005 	mov	r0, r5
 4b8:	eaffffe6 	b	458 <_mr_TestCom1+0x458>
 4bc:	e3a02000 	mov	r2, #0
 4c0:	e28d1068 	add	r1, sp, #104	; 0x68
 4c4:	e1a00004 	mov	r0, r4
 4c8:	ebfffffe 	bl	0 <_mr_TestCom1>
 4cc:	e1b04000 	movs	r4, r0
 4d0:	0a000006 	beq	4f0 <_mr_TestCom1+0x4f0>
 4d4:	e59d2068 	ldr	r2, [sp, #104]	; 0x68
 4d8:	e1a01004 	mov	r1, r4
 4dc:	e1a0000b 	mov	r0, fp
 4e0:	ebfffffe 	bl	0 <mrp_pushlstring>
 4e4:	e59d1068 	ldr	r1, [sp, #104]	; 0x68
 4e8:	e1a00004 	mov	r0, r4
 4ec:	eaffffd9 	b	458 <_mr_TestCom1+0x458>
 4f0:	e1a0000b 	mov	r0, fp
 4f4:	ebfffffe 	bl	0 <mrp_pushnil>
 4f8:	eaffff88 	b	320 <_mr_TestCom1+0x320>
 4fc:	e3a02001 	mov	r2, #1
 500:	e28d1068 	add	r1, sp, #104	; 0x68
 504:	e1a00004 	mov	r0, r4
 508:	ebfffffe 	bl	0 <_mr_TestCom1>
 50c:	e3500000 	cmp	r0, #0
 510:	0afffff6 	beq	4f0 <_mr_TestCom1+0x4f0>
 514:	e3a01000 	mov	r1, #0
 518:	e1a0000b 	mov	r0, fp
 51c:	ebfffffe 	bl	0 <mrp_pushnumber>
 520:	eaffff7e 	b	320 <_mr_TestCom1+0x320>
 524:	00000000 	.word	0x00000000
 528:	000001f5 	.word	0x000001f5
 52c:	00000259 	.word	0x00000259
 530:	00000000 	.word	0x00000000
 534:	000000b0 	.word	0x000000b0
 538:	00000321 	.word	0x00000321
 53c:	000000c8 	.word	0x000000c8
 540:	00030d41 	.word	0x00030d41
 544:	72617473 	.word	0x72617473
 548:	726d2e74 	.word	0x726d2e74
 54c:	00000000 	.word	0x00000000
 550:	000004e0 	.word	0x000004e0
 554:	00000560 	.word	0x00000560
 558:	00000460 	.word	0x00000460
 55c:	697a6e75 	.word	0x697a6e75
 560:	4e202070 	.word	0x4e202070
 564:	6d20746f 	.word	0x6d20746f
 568:	726f6d65 	.word	0x726f6d65
 56c:	6e752079 	.word	0x6e752079
 570:	2170697a 	.word	0x2170697a
 574:	00000000 	.word	0x00000000
 578:	697a6e75 	.word	0x697a6e75
 57c:	20203a70 	.word	0x20203a70
 580:	697a6e55 	.word	0x697a6e55
 584:	72652070 	.word	0x72652070
 588:	00213172 	.word	0x00213172
 58c:	e1a01000 	mov	r1, r0
 590:	e1a0000b 	mov	r0, fp
 594:	ebfffffe 	bl	0 <mrp_pushnumber>
 598:	e59d1068 	ldr	r1, [sp, #104]	; 0x68
 59c:	ea000032 	b	66c <_mr_TestCom1+0x66c>
 5a0:	e3a02000 	mov	r2, #0
 5a4:	e3a01003 	mov	r1, #3
 5a8:	e1a0000b 	mov	r0, fp
 5ac:	ebfffffe 	bl	0 <to_mr_tonumber>
 5b0:	e1a00800 	lsl	r0, r0, #16
 5b4:	e1a00840 	asr	r0, r0, #16
 5b8:	e1a01004 	mov	r1, r4
 5bc:	ebfffffe 	bl	0 <_mr_TestCom1>
 5c0:	eaffff50 	b	308 <_mr_TestCom1+0x308>
 5c4:	e3a01003 	mov	r1, #3
 5c8:	e1a0000b 	mov	r0, fp
 5cc:	ebfffffe 	bl	0 <mrp_tostring>
 5d0:	e1a05000 	mov	r5, r0
 5d4:	e1a0000b 	mov	r0, fp
 5d8:	e3a02000 	mov	r2, #0
 5dc:	e3a01004 	mov	r1, #4
 5e0:	ebfffffe 	bl	0 <mr_L_optnumber>
 5e4:	e1a03000 	mov	r3, r0
 5e8:	e1a00004 	mov	r0, r4
 5ec:	e1a02005 	mov	r2, r5
 5f0:	e1a01006 	mov	r1, r6
 5f4:	ebfffffe 	bl	0 <_mr_TestCom1>
 5f8:	eaffff42 	b	308 <_mr_TestCom1+0x308>
 5fc:	e3a02000 	mov	r2, #0
 600:	e3a01003 	mov	r1, #3
 604:	e1a0000b 	mov	r0, fp
 608:	ebfffffe 	bl	0 <to_mr_tonumber>
 60c:	e28d3064 	add	r3, sp, #100	; 0x64
 610:	e28d2060 	add	r2, sp, #96	; 0x60
 614:	e58d8064 	str	r8, [sp, #100]	; 0x64
 618:	e1cd20f0 	strd	r2, [sp]
 61c:	e58d8060 	str	r8, [sp, #96]	; 0x60
 620:	e5b5c094 	ldr	ip, [r5, #148]!	; 0x94
 624:	e1a01000 	mov	r1, r0
 628:	e5950004 	ldr	r0, [r5, #4]
 62c:	e1a03006 	mov	r3, r6
 630:	e1a02004 	mov	r2, r4
 634:	e12fff3c 	blx	ip
 638:	e59d1060 	ldr	r1, [sp, #96]	; 0x60
 63c:	e1a04000 	mov	r4, r0
 640:	e3510000 	cmp	r1, #0
 644:	159d2064 	ldrne	r2, [sp, #100]	; 0x64
 648:	13520000 	cmpne	r2, #0
 64c:	0a000002 	beq	65c <_mr_TestCom1+0x65c>
 650:	e1a0000b 	mov	r0, fp
 654:	ebfffffe 	bl	0 <mrp_pushlstring>
 658:	ea000002 	b	668 <_mr_TestCom1+0x668>
 65c:	e24f1f46 	sub	r1, pc, #280	; 0x118
 660:	e1a0000b 	mov	r0, fp
 664:	ebfffffe 	bl	0 <mrp_pushstring>
 668:	e1a01004 	mov	r1, r4
 66c:	e1a0000b 	mov	r0, fp
 670:	ebfffffe 	bl	0 <mrp_pushnumber>
 674:	e3a00002 	mov	r0, #2
 678:	eaffff29 	b	324 <_mr_TestCom1+0x324>
 67c:	e3a02000 	mov	r2, #0
 680:	e3a01003 	mov	r1, #3
 684:	e1a0000b 	mov	r0, fp
 688:	ebfffffe 	bl	0 <mr_L_optnumber>
 68c:	e1a06000 	mov	r6, r0
 690:	e1a0000b 	mov	r0, fp
 694:	e3a02000 	mov	r2, #0
 698:	e3a01004 	mov	r1, #4
 69c:	ebfffffe 	bl	0 <mr_L_optnumber>
 6a0:	e58500a0 	str	r0, [r5, #160]	; 0xa0
 6a4:	e5859090 	str	r9, [r5, #144]	; 0x90
 6a8:	e580a000 	str	sl, [r0]
 6ac:	e3c7101f 	bic	r1, r7, #31
 6b0:	e3c4001f 	bic	r0, r4, #31
 6b4:	ebfffffe 	bl	0 <mr_cacheSync>
 6b8:	e5951090 	ldr	r1, [r5, #144]	; 0x90
 6bc:	e1a00006 	mov	r0, r6
 6c0:	e12fff31 	blx	r1
 6c4:	e1a01000 	mov	r1, r0
 6c8:	eaffff92 	b	518 <_mr_TestCom1+0x518>

Disassembly of section i.TestCom1:

00000000 <TestCom1>:
   0:	e92d4038 	push	{r3, r4, r5, lr}
   4:	e1a05000 	mov	r5, r0
   8:	e3a00000 	mov	r0, #0
   c:	e58d0000 	str	r0, [sp]
  10:	e1a00005 	mov	r0, r5
  14:	e3a02000 	mov	r2, #0
  18:	e3a01001 	mov	r1, #1
  1c:	ebfffffe 	bl	0 <to_mr_tonumber>
  20:	e1a04000 	mov	r4, r0
  24:	e1a00005 	mov	r0, r5
  28:	e1a0200d 	mov	r2, sp
  2c:	e3a01002 	mov	r1, #2
  30:	ebfffffe 	bl	0 <mr_L_checklstring>
  34:	e1a02000 	mov	r2, r0
  38:	e59d3000 	ldr	r3, [sp]
  3c:	e1a00005 	mov	r0, r5
  40:	e1a01004 	mov	r1, r4
  44:	ebfffffe 	bl	0 <TestCom1>
  48:	e8bd8038 	pop	{r3, r4, r5, pc}

Disassembly of section i.mr_ntohl:

00000000 <mr_ntohl>:
   0:	e5d01000 	ldrb	r1, [r0]
   4:	e5d02001 	ldrb	r2, [r0, #1]
   8:	e1a01c01 	lsl	r1, r1, #24
   c:	e1811802 	orr	r1, r1, r2, lsl #16
  10:	e5d02002 	ldrb	r2, [r0, #2]
  14:	e5d00003 	ldrb	r0, [r0, #3]
  18:	e1811402 	orr	r1, r1, r2, lsl #8
  1c:	e1810000 	orr	r0, r1, r0
  20:	e12fff1e 	bx	lr

Disassembly of section i.mr_ltoh:

00000000 <mr_ltoh>:
   0:	e5d01003 	ldrb	r1, [r0, #3]
   4:	e5d02002 	ldrb	r2, [r0, #2]
   8:	e1a01c01 	lsl	r1, r1, #24
   c:	e1811802 	orr	r1, r1, r2, lsl #16
  10:	e5d02001 	ldrb	r2, [r0, #1]
  14:	e5d00000 	ldrb	r0, [r0]
  18:	e1811402 	orr	r1, r1, r2, lsl #8
  1c:	e1810000 	orr	r0, r1, r0
  20:	e12fff1e 	bx	lr

Disassembly of section i._mr_getMetaMemLimit:

00000000 <_mr_getMetaMemLimit>:
   0:	e92d43f0 	push	{r4, r5, r6, r7, r8, r9, lr}
   4:	e59f6320 	ldr	r6, [pc, #800]	; 32c <_mr_getMetaMemLimit+0x32c>
   8:	e24dd094 	sub	sp, sp, #148	; 0x94
   c:	e5d60000 	ldrb	r0, [r6]
  10:	e28d9014 	add	r9, sp, #20
  14:	e3a08000 	mov	r8, #0
  18:	e350002a 	cmp	r0, #42	; 0x2a
  1c:	13500024 	cmpne	r0, #36	; 0x24
  20:	1a000052 	bne	170 <_mr_getMetaMemLimit+0x170>
  24:	e350002a 	cmp	r0, #42	; 0x2a
  28:	05d60001 	ldrbeq	r0, [r6, #1]
  2c:	059f1300 	ldreq	r1, [pc, #768]	; 334 <_mr_getMetaMemLimit+0x334>
  30:	e59f72f8 	ldr	r7, [pc, #760]	; 330 <_mr_getMetaMemLimit+0x330>
  34:	00810100 	addeq	r0, r1, r0, lsl #2
  38:	05104104 	ldreq	r4, [r0, #-260]	; 0xfffffefc
  3c:	15974018 	ldrne	r4, [r7, #24]
  40:	e3540000 	cmp	r4, #0
  44:	0a000041 	beq	150 <_mr_getMetaMemLimit+0x150>
  48:	e2841004 	add	r1, r4, #4
  4c:	e3a02004 	mov	r2, #4
  50:	e1a0000d 	mov	r0, sp
  54:	ebfffffe 	bl	0 <__aeabi_memcpy>
  58:	e1a0000d 	mov	r0, sp
  5c:	ebfffffe 	bl	0 <_mr_getMetaMemLimit>
  60:	e1a05000 	mov	r5, r0
  64:	e5d60000 	ldrb	r0, [r6]
  68:	e3500024 	cmp	r0, #36	; 0x24
  6c:	05976054 	ldreq	r6, [r7, #84]	; 0x54
  70:	0a000006 	beq	90 <_mr_getMetaMemLimit+0x90>
  74:	e2841008 	add	r1, r4, #8
  78:	e3a02004 	mov	r2, #4
  7c:	e1a0000d 	mov	r0, sp
  80:	ebfffffe 	bl	0 <__aeabi_memcpy>
  84:	e1a0000d 	mov	r0, sp
  88:	ebfffffe 	bl	0 <_mr_getMetaMemLimit>
  8c:	e1a06000 	mov	r6, r0
  90:	e2857008 	add	r7, r5, #8
  94:	e2870004 	add	r0, r7, #4
  98:	e1500006 	cmp	r0, r6
  9c:	2a00002b 	bcs	150 <_mr_getMetaMemLimit+0x150>
  a0:	e3550001 	cmp	r5, #1
  a4:	ba000029 	blt	150 <_mr_getMetaMemLimit+0x150>
  a8:	e3750106 	cmn	r5, #-2147483647	; 0x80000001
  ac:	0a000027 	beq	150 <_mr_getMetaMemLimit+0x150>
  b0:	e0841007 	add	r1, r4, r7
  b4:	e3a02004 	mov	r2, #4
  b8:	e1a0000d 	mov	r0, sp
  bc:	ebfffffe 	bl	0 <__aeabi_memcpy>
  c0:	e1a0000d 	mov	r0, sp
  c4:	ebfffffe 	bl	0 <_mr_getMetaMemLimit>
  c8:	e1a05000 	mov	r5, r0
  cc:	e2877004 	add	r7, r7, #4
  d0:	e0800007 	add	r0, r0, r7
  d4:	e1500006 	cmp	r0, r6
  d8:	2a00001c 	bcs	150 <_mr_getMetaMemLimit+0x150>
  dc:	e3550001 	cmp	r5, #1
  e0:	ba00001a 	blt	150 <_mr_getMetaMemLimit+0x150>
  e4:	e3550080 	cmp	r5, #128	; 0x80
  e8:	aa000018 	bge	150 <_mr_getMetaMemLimit+0x150>
  ec:	e0841007 	add	r1, r4, r7
  f0:	e1a02005 	mov	r2, r5
  f4:	e28d0014 	add	r0, sp, #20
  f8:	ebfffffe 	bl	0 <__aeabi_memcpy>
  fc:	e7c98005 	strb	r8, [r9, r5]
 100:	e0875005 	add	r5, r7, r5
 104:	e28d1014 	add	r1, sp, #20
 108:	e28f0f8a 	add	r0, pc, #552	; 0x228
 10c:	ebfffffe 	bl	0 <strcmp>
 110:	e3500000 	cmp	r0, #0
 114:	1a00000d 	bne	150 <_mr_getMetaMemLimit+0x150>
 118:	e0841005 	add	r1, r4, r5
 11c:	e3a02004 	mov	r2, #4
 120:	e1a0000d 	mov	r0, sp
 124:	ebfffffe 	bl	0 <__aeabi_memcpy>
 128:	e1a0000d 	mov	r0, sp
 12c:	ebfffffe 	bl	0 <_mr_getMetaMemLimit>
 130:	e2851004 	add	r1, r5, #4
 134:	e0802001 	add	r2, r0, r1
 138:	e1520006 	cmp	r2, r6
 13c:	8a000003 	bhi	150 <_mr_getMetaMemLimit+0x150>
 140:	e3500001 	cmp	r0, #1
 144:	ba000001 	blt	150 <_mr_getMetaMemLimit+0x150>
 148:	e3700106 	cmn	r0, #-2147483647	; 0x80000001
 14c:	1a000002 	bne	15c <_mr_getMetaMemLimit+0x15c>
 150:	e3a00000 	mov	r0, #0
 154:	e28dd094 	add	sp, sp, #148	; 0x94
 158:	e8bd83f0 	pop	{r4, r5, r6, r7, r8, r9, pc}
 15c:	e0841001 	add	r1, r4, r1
 160:	e3a02004 	mov	r2, #4
 164:	e1a0000d 	mov	r0, sp
 168:	ebfffffe 	bl	0 <__aeabi_memcpy>
 16c:	ea00006b 	b	320 <_mr_getMetaMemLimit+0x320>
 170:	e3a01001 	mov	r1, #1
 174:	e1a00006 	mov	r0, r6
 178:	ebfffffe 	bl	0 <mr_open>
 17c:	e28d4004 	add	r4, sp, #4
 180:	e3a01000 	mov	r1, #0
 184:	e3a02000 	mov	r2, #0
 188:	e8a40006 	stmia	r4!, {r1, r2}
 18c:	e8840006 	stm	r4, {r1, r2}
 190:	e2444008 	sub	r4, r4, #8
 194:	e3a02010 	mov	r2, #16
 198:	e28d1004 	add	r1, sp, #4
 19c:	e1a06000 	mov	r6, r0
 1a0:	ebfffffe 	bl	0 <mr_read>
 1a4:	e1a03000 	mov	r3, r0
 1a8:	e28d0004 	add	r0, sp, #4
 1ac:	ebfffffe 	bl	0 <_mr_getMetaMemLimit>
 1b0:	e58d0004 	str	r0, [sp, #4]
 1b4:	e2840004 	add	r0, r4, #4
 1b8:	ebfffffe 	bl	0 <_mr_getMetaMemLimit>
 1bc:	e58d0008 	str	r0, [sp, #8]
 1c0:	e2840008 	add	r0, r4, #8
 1c4:	ebfffffe 	bl	0 <_mr_getMetaMemLimit>
 1c8:	e58d000c 	str	r0, [sp, #12]
 1cc:	e284000c 	add	r0, r4, #12
 1d0:	ebfffffe 	bl	0 <_mr_getMetaMemLimit>
 1d4:	e3530010 	cmp	r3, #16
 1d8:	e58d0010 	str	r0, [sp, #16]
 1dc:	059d0004 	ldreq	r0, [sp, #4]
 1e0:	059f115c 	ldreq	r1, [pc, #348]	; 344 <_mr_getMetaMemLimit+0x344>
 1e4:	01500001 	cmpeq	r0, r1
 1e8:	1a00003f 	bne	2ec <_mr_getMetaMemLimit+0x2ec>
 1ec:	e59d0008 	ldr	r0, [sp, #8]
 1f0:	e35000e8 	cmp	r0, #232	; 0xe8
 1f4:	9a00003c 	bls	2ec <_mr_getMetaMemLimit+0x2ec>
 1f8:	e59d0008 	ldr	r0, [sp, #8]
 1fc:	e59d1010 	ldr	r1, [sp, #16]
 200:	e3a02001 	mov	r2, #1
 204:	e0400001 	sub	r0, r0, r1
 208:	e2805008 	add	r5, r0, #8
 20c:	e1a00006 	mov	r0, r6
 210:	e2411010 	sub	r1, r1, #16
 214:	ebfffffe 	bl	0 <mr_seek>
 218:	e3500000 	cmp	r0, #0
 21c:	ba000032 	blt	2ec <_mr_getMetaMemLimit+0x2ec>
 220:	e3a02004 	mov	r2, #4
 224:	e1a0100d 	mov	r1, sp
 228:	e1a00006 	mov	r0, r6
 22c:	ebfffffe 	bl	0 <mr_read>
 230:	e3500004 	cmp	r0, #4
 234:	1a00002c 	bne	2ec <_mr_getMetaMemLimit+0x2ec>
 238:	e1a0000d 	mov	r0, sp
 23c:	ebfffffe 	bl	0 <_mr_getMetaMemLimit>
 240:	e1a04000 	mov	r4, r0
 244:	e2800004 	add	r0, r0, #4
 248:	e1500005 	cmp	r0, r5
 24c:	8a000026 	bhi	2ec <_mr_getMetaMemLimit+0x2ec>
 250:	e3540001 	cmp	r4, #1
 254:	ba000024 	blt	2ec <_mr_getMetaMemLimit+0x2ec>
 258:	e3540080 	cmp	r4, #128	; 0x80
 25c:	aa000022 	bge	2ec <_mr_getMetaMemLimit+0x2ec>
 260:	e1a02004 	mov	r2, r4
 264:	e28d1014 	add	r1, sp, #20
 268:	e1a00006 	mov	r0, r6
 26c:	ebfffffe 	bl	0 <mr_read>
 270:	e1500004 	cmp	r0, r4
 274:	1a00001c 	bne	2ec <_mr_getMetaMemLimit+0x2ec>
 278:	e28d1014 	add	r1, sp, #20
 27c:	e28f00b4 	add	r0, pc, #180	; 0xb4
 280:	e7c98004 	strb	r8, [r9, r4]
 284:	ebfffffe 	bl	0 <strcmp>
 288:	e3500000 	cmp	r0, #0
 28c:	1a000016 	bne	2ec <_mr_getMetaMemLimit+0x2ec>
 290:	e3a02004 	mov	r2, #4
 294:	e1a0100d 	mov	r1, sp
 298:	e1a00006 	mov	r0, r6
 29c:	ebfffffe 	bl	0 <mr_read>
 2a0:	e1a0000d 	mov	r0, sp
 2a4:	ebfffffe 	bl	0 <_mr_getMetaMemLimit>
 2a8:	e1a04000 	mov	r4, r0
 2ac:	e1a00006 	mov	r0, r6
 2b0:	e3a02004 	mov	r2, #4
 2b4:	e1a0100d 	mov	r1, sp
 2b8:	ebfffffe 	bl	0 <mr_read>
 2bc:	e1a0000d 	mov	r0, sp
 2c0:	ebfffffe 	bl	0 <_mr_getMetaMemLimit>
 2c4:	e59d100c 	ldr	r1, [sp, #12]
 2c8:	e0840000 	add	r0, r4, r0
 2cc:	e1500001 	cmp	r0, r1
 2d0:	8a000005 	bhi	2ec <_mr_getMetaMemLimit+0x2ec>
 2d4:	e3a02000 	mov	r2, #0
 2d8:	e1a01004 	mov	r1, r4
 2dc:	e1a00006 	mov	r0, r6
 2e0:	ebfffffe 	bl	0 <mr_seek>
 2e4:	e3500000 	cmp	r0, #0
 2e8:	aa000002 	bge	2f8 <_mr_getMetaMemLimit+0x2f8>
 2ec:	e1a00006 	mov	r0, r6
 2f0:	ebfffffe 	bl	0 <mr_close>
 2f4:	eaffff95 	b	150 <_mr_getMetaMemLimit+0x150>
 2f8:	e3a02004 	mov	r2, #4
 2fc:	e1a0100d 	mov	r1, sp
 300:	e1a00006 	mov	r0, r6
 304:	ebfffffe 	bl	0 <mr_read>
 308:	e1a04000 	mov	r4, r0
 30c:	e1a00006 	mov	r0, r6
 310:	ebfffffe 	bl	0 <mr_close>
 314:	e3540004 	cmp	r4, #4
 318:	11a00004 	movne	r0, r4
 31c:	1affff8c 	bne	154 <_mr_getMetaMemLimit+0x154>
 320:	e1a0000d 	mov	r0, sp
 324:	ebfffffe 	bl	0 <_mr_getMetaMemLimit>
 328:	eaffff89 	b	154 <_mr_getMetaMemLimit+0x154>
 32c:	00000360 	.word	0x00000360
	...
 338:	37303823 	.word	0x37303823
 33c:	23323230 	.word	0x23323230
 340:	0000002a 	.word	0x0000002a
 344:	4750524d 	.word	0x4750524d

Disassembly of section i._mr_intra_start:

00000000 <_mr_intra_start>:
       0:	e92d4ffe 	push	{r1, r2, r3, r4, r5, r6, r7, r8, r9, sl, fp, lr}
       4:	e1a0a000 	mov	sl, r0
       8:	e1a05001 	mov	r5, r1
       c:	ebfffffe 	bl	0 <_mr_intra_start>
      10:	e59f8568 	ldr	r8, [pc, #1384]	; 580 <_mr_intra_start+0x580>
      14:	e5880080 	str	r0, [r8, #128]	; 0x80
      18:	ebfffffe 	bl	0 <_mr_intra_start>
      1c:	e3500000 	cmp	r0, #0
      20:	1a00006c 	bne	1d8 <_mr_intra_start+0x1d8>
      24:	e3a04000 	mov	r4, #0
      28:	e5884024 	str	r4, [r8, #36]	; 0x24
      2c:	e5884028 	str	r4, [r8, #40]	; 0x28
      30:	e588402c 	str	r4, [r8, #44]	; 0x2c
      34:	e5884030 	str	r4, [r8, #48]	; 0x30
      38:	e5884034 	str	r4, [r8, #52]	; 0x34
      3c:	e5884018 	str	r4, [r8, #24]
      40:	e5884098 	str	r4, [r8, #152]	; 0x98
      44:	e588409c 	str	r4, [r8, #156]	; 0x9c
      48:	e58840a0 	str	r4, [r8, #160]	; 0xa0
      4c:	e5884014 	str	r4, [r8, #20]
      50:	e58d4008 	str	r4, [sp, #8]
      54:	e3a03000 	mov	r3, #0
      58:	e28d2008 	add	r2, sp, #8
      5c:	e5884040 	str	r4, [r8, #64]	; 0x40
      60:	e1cd20f0 	strd	r2, [sp]
      64:	e59f0518 	ldr	r0, [pc, #1304]	; 584 <_mr_intra_start+0x584>
      68:	e2883040 	add	r3, r8, #64	; 0x40
      6c:	e3a02000 	mov	r2, #0
      70:	e3a01000 	mov	r1, #0
      74:	ebfffffe 	bl	0 <mr_platEx>
      78:	e59f6508 	ldr	r6, [pc, #1288]	; 588 <_mr_intra_start+0x588>
      7c:	e3500000 	cmp	r0, #0
      80:	e3a09001 	mov	r9, #1
      84:	1a000012 	bne	d4 <_mr_intra_start+0xd4>
      88:	e5981040 	ldr	r1, [r8, #64]	; 0x40
      8c:	e1a07008 	mov	r7, r8
      90:	e3510000 	cmp	r1, #0
      94:	0a000011 	beq	e0 <_mr_intra_start+0xe0>
      98:	e5970044 	ldr	r0, [r7, #68]	; 0x44
      9c:	e5972048 	ldr	r2, [r7, #72]	; 0x48
      a0:	e0020290 	mul	r2, r0, r2
      a4:	e59d0008 	ldr	r0, [sp, #8]
      a8:	e1500082 	cmp	r0, r2, lsl #1
      ac:	a58691e8 	strge	r9, [r6, #488]	; 0x1e8
      b0:	aa000015 	bge	10c <_mr_intra_start+0x10c>
      b4:	e3a03000 	mov	r3, #0
      b8:	e1a02000 	mov	r2, r0
      bc:	e59f04c8 	ldr	r0, [pc, #1224]	; 58c <_mr_intra_start+0x58c>
      c0:	e58d3000 	str	r3, [sp]
      c4:	e58d3004 	str	r3, [sp, #4]
      c8:	ebfffffe 	bl	0 <mr_platEx>
      cc:	e5874040 	str	r4, [r7, #64]	; 0x40
      d0:	ea000002 	b	e0 <_mr_intra_start+0xe0>
      d4:	e5980040 	ldr	r0, [r8, #64]	; 0x40
      d8:	e3500000 	cmp	r0, #0
      dc:	1a00000b 	bne	110 <_mr_intra_start+0x110>
      e0:	e5980044 	ldr	r0, [r8, #68]	; 0x44
      e4:	e5981048 	ldr	r1, [r8, #72]	; 0x48
      e8:	e0000091 	mul	r0, r1, r0
      ec:	e1a00080 	lsl	r0, r0, #1
      f0:	ebfffffe 	bl	0 <_mr_intra_start>
      f4:	e5880040 	str	r0, [r8, #64]	; 0x40
      f8:	e58641e8 	str	r4, [r6, #488]	; 0x1e8
      fc:	e5980044 	ldr	r0, [r8, #68]	; 0x44
     100:	e5981048 	ldr	r1, [r8, #72]	; 0x48
     104:	e0000091 	mul	r0, r1, r0
     108:	e1a00080 	lsl	r0, r0, #1
     10c:	e58601e4 	str	r0, [r6, #484]	; 0x1e4
     110:	e5980040 	ldr	r0, [r8, #64]	; 0x40
     114:	e3a01e1e 	mov	r1, #480	; 0x1e0
     118:	e58601ec 	str	r0, [r6, #492]	; 0x1ec
     11c:	e5986048 	ldr	r6, [r8, #72]	; 0x48
     120:	e59f0468 	ldr	r0, [pc, #1128]	; 590 <_mr_intra_start+0x590>
     124:	e1c06eb2 	strh	r6, [r0, #226]	; 0xe2
     128:	e5987044 	ldr	r7, [r8, #68]	; 0x44
     12c:	e1c07eb0 	strh	r7, [r0, #224]	; 0xe0
     130:	e588403c 	str	r4, [r8, #60]	; 0x3c
     134:	e588400c 	str	r4, [r8, #12]
     138:	e5884010 	str	r4, [r8, #16]
     13c:	e5980008 	ldr	r0, [r8, #8]
     140:	e2000002 	and	r0, r0, #2
     144:	e5880008 	str	r0, [r8, #8]
     148:	e59f0438 	ldr	r0, [pc, #1080]	; 588 <_mr_intra_start+0x588>
     14c:	ebfffffe 	bl	0 <__aeabi_memclr4>
     150:	e59f043c 	ldr	r0, [pc, #1084]	; 594 <_mr_intra_start+0x594>
     154:	e3a0103c 	mov	r1, #60	; 0x3c
     158:	ebfffffe 	bl	0 <__aeabi_memclr4>
     15c:	e59f0434 	ldr	r0, [pc, #1076]	; 598 <_mr_intra_start+0x598>
     160:	e3a01014 	mov	r1, #20
     164:	ebfffffe 	bl	0 <__aeabi_memclr>
     168:	e59f042c 	ldr	r0, [pc, #1068]	; 59c <_mr_intra_start+0x59c>
     16c:	e3a0103c 	mov	r1, #60	; 0x3c
     170:	ebfffffe 	bl	0 <__aeabi_memclr>
     174:	e59f0424 	ldr	r0, [pc, #1060]	; 5a0 <_mr_intra_start+0x5a0>
     178:	e3a01000 	mov	r1, #0
     17c:	e3a02000 	mov	r2, #0
     180:	e8a00006 	stmia	r0!, {r1, r2}
     184:	e5801000 	str	r1, [r0]
     188:	e59f140c 	ldr	r1, [pc, #1036]	; 59c <_mr_intra_start+0x59c>
     18c:	e1a02806 	lsl	r2, r6, #16
     190:	e1a03807 	lsl	r3, r7, #16
     194:	e1a03843 	asr	r3, r3, #16
     198:	e1a02842 	asr	r2, r2, #16
     19c:	e3a00000 	mov	r0, #0
     1a0:	e080c100 	add	ip, r0, r0, lsl #2
     1a4:	e081c10c 	add	ip, r1, ip, lsl #2
     1a8:	e1cc40b8 	strh	r4, [ip, #8]
     1ac:	e1cc40ba 	strh	r4, [ip, #10]
     1b0:	e2800001 	add	r0, r0, #1
     1b4:	e1cc30bc 	strh	r3, [ip, #12]
     1b8:	e3500003 	cmp	r0, #3
     1bc:	e1cc20be 	strh	r2, [ip, #14]
     1c0:	bafffff6 	blt	1a0 <_mr_intra_start+0x1a0>
     1c4:	ebfffffe 	bl	0 <mrp_open>
     1c8:	e3500000 	cmp	r0, #0
     1cc:	e1a04008 	mov	r4, r8
     1d0:	e588003c 	str	r0, [r8, #60]	; 0x3c
     1d4:	1a000001 	bne	1e0 <_mr_intra_start+0x1e0>
     1d8:	e3e00000 	mvn	r0, #0
     1dc:	e8bd8ffe 	pop	{r1, r2, r3, r4, r5, r6, r7, r8, r9, sl, fp, pc}
     1e0:	ebfffffe 	bl	0 <mrp_open_base>
     1e4:	e594003c 	ldr	r0, [r4, #60]	; 0x3c
     1e8:	ebfffffe 	bl	0 <mrp_open_string>
     1ec:	e594003c 	ldr	r0, [r4, #60]	; 0x3c
     1f0:	ebfffffe 	bl	0 <mrp_open_table>
     1f4:	e594003c 	ldr	r0, [r4, #60]	; 0x3c
     1f8:	ebfffffe 	bl	0 <mrp_open_file>
     1fc:	e594003c 	ldr	r0, [r4, #60]	; 0x3c
     200:	ebfffffe 	bl	0 <mr_store_open>
     204:	e594003c 	ldr	r0, [r4, #60]	; 0x3c
     208:	e28f1fe5 	add	r1, pc, #916	; 0x394
     20c:	ebfffffe 	bl	0 <mrp_pushstring>
     210:	e59f1398 	ldr	r1, [pc, #920]	; 5b0 <_mr_intra_start+0x5b0>
     214:	e594003c 	ldr	r0, [r4, #60]	; 0x3c
     218:	e3a02000 	mov	r2, #0
     21c:	ebfffffe 	bl	0 <mrp_pushcclosure>
     220:	e59f638c 	ldr	r6, [pc, #908]	; 5b4 <_mr_intra_start+0x5b4>
     224:	e594003c 	ldr	r0, [r4, #60]	; 0x3c
     228:	e1a01006 	mov	r1, r6
     22c:	ebfffffe 	bl	0 <mrp_settable>
     230:	e594003c 	ldr	r0, [r4, #60]	; 0x3c
     234:	e28f1fdf 	add	r1, pc, #892	; 0x37c
     238:	ebfffffe 	bl	0 <mrp_pushstring>
     23c:	e59f1380 	ldr	r1, [pc, #896]	; 5c4 <_mr_intra_start+0x5c4>
     240:	e594003c 	ldr	r0, [r4, #60]	; 0x3c
     244:	e3a02000 	mov	r2, #0
     248:	ebfffffe 	bl	0 <mrp_pushcclosure>
     24c:	e594003c 	ldr	r0, [r4, #60]	; 0x3c
     250:	e1a01006 	mov	r1, r6
     254:	ebfffffe 	bl	0 <mrp_settable>
     258:	e594003c 	ldr	r0, [r4, #60]	; 0x3c
     25c:	e28f1fd9 	add	r1, pc, #868	; 0x364
     260:	ebfffffe 	bl	0 <mrp_pushstring>
     264:	e59f1368 	ldr	r1, [pc, #872]	; 5d4 <_mr_intra_start+0x5d4>
     268:	e594003c 	ldr	r0, [r4, #60]	; 0x3c
     26c:	e3a02000 	mov	r2, #0
     270:	ebfffffe 	bl	0 <mrp_pushcclosure>
     274:	e594003c 	ldr	r0, [r4, #60]	; 0x3c
     278:	e1a01006 	mov	r1, r6
     27c:	ebfffffe 	bl	0 <mrp_settable>
     280:	e594003c 	ldr	r0, [r4, #60]	; 0x3c
     284:	e28f1fd3 	add	r1, pc, #844	; 0x34c
     288:	ebfffffe 	bl	0 <mrp_pushstring>
     28c:	e59f1350 	ldr	r1, [pc, #848]	; 5e4 <_mr_intra_start+0x5e4>
     290:	e594003c 	ldr	r0, [r4, #60]	; 0x3c
     294:	e3a02000 	mov	r2, #0
     298:	ebfffffe 	bl	0 <mrp_pushcclosure>
     29c:	e594003c 	ldr	r0, [r4, #60]	; 0x3c
     2a0:	e1a01006 	mov	r1, r6
     2a4:	ebfffffe 	bl	0 <mrp_settable>
     2a8:	e594003c 	ldr	r0, [r4, #60]	; 0x3c
     2ac:	e28f1fcd 	add	r1, pc, #820	; 0x334
     2b0:	ebfffffe 	bl	0 <mrp_pushstring>
     2b4:	e59f1334 	ldr	r1, [pc, #820]	; 5f0 <_mr_intra_start+0x5f0>
     2b8:	e594003c 	ldr	r0, [r4, #60]	; 0x3c
     2bc:	e3a02000 	mov	r2, #0
     2c0:	ebfffffe 	bl	0 <mrp_pushcclosure>
     2c4:	e594003c 	ldr	r0, [r4, #60]	; 0x3c
     2c8:	e1a01006 	mov	r1, r6
     2cc:	ebfffffe 	bl	0 <mrp_settable>
     2d0:	e594003c 	ldr	r0, [r4, #60]	; 0x3c
     2d4:	e28f1fc6 	add	r1, pc, #792	; 0x318
     2d8:	ebfffffe 	bl	0 <mrp_pushstring>
     2dc:	e59f1318 	ldr	r1, [pc, #792]	; 5fc <_mr_intra_start+0x5fc>
     2e0:	e594003c 	ldr	r0, [r4, #60]	; 0x3c
     2e4:	e3a02000 	mov	r2, #0
     2e8:	ebfffffe 	bl	0 <mrp_pushcclosure>
     2ec:	e594003c 	ldr	r0, [r4, #60]	; 0x3c
     2f0:	e1a01006 	mov	r1, r6
     2f4:	ebfffffe 	bl	0 <mrp_settable>
     2f8:	e594003c 	ldr	r0, [r4, #60]	; 0x3c
     2fc:	e28f1fbf 	add	r1, pc, #764	; 0x2fc
     300:	ebfffffe 	bl	0 <mrp_pushstring>
     304:	e59f1304 	ldr	r1, [pc, #772]	; 610 <_mr_intra_start+0x610>
     308:	e594003c 	ldr	r0, [r4, #60]	; 0x3c
     30c:	e3a02000 	mov	r2, #0
     310:	ebfffffe 	bl	0 <mrp_pushcclosure>
     314:	e594003c 	ldr	r0, [r4, #60]	; 0x3c
     318:	e1a01006 	mov	r1, r6
     31c:	ebfffffe 	bl	0 <mrp_settable>
     320:	e594003c 	ldr	r0, [r4, #60]	; 0x3c
     324:	e28f1fba 	add	r1, pc, #744	; 0x2e8
     328:	ebfffffe 	bl	0 <mrp_pushstring>
     32c:	e59f12ec 	ldr	r1, [pc, #748]	; 620 <_mr_intra_start+0x620>
     330:	e594003c 	ldr	r0, [r4, #60]	; 0x3c
     334:	e3a02000 	mov	r2, #0
     338:	ebfffffe 	bl	0 <mrp_pushcclosure>
     33c:	e594003c 	ldr	r0, [r4, #60]	; 0x3c
     340:	e1a01006 	mov	r1, r6
     344:	ebfffffe 	bl	0 <mrp_settable>
     348:	e594003c 	ldr	r0, [r4, #60]	; 0x3c
     34c:	e28f1e2d 	add	r1, pc, #720	; 0x2d0
     350:	ebfffffe 	bl	0 <mrp_pushstring>
     354:	e59f12d4 	ldr	r1, [pc, #724]	; 630 <_mr_intra_start+0x630>
     358:	e594003c 	ldr	r0, [r4, #60]	; 0x3c
     35c:	e3a02000 	mov	r2, #0
     360:	ebfffffe 	bl	0 <mrp_pushcclosure>
     364:	e594003c 	ldr	r0, [r4, #60]	; 0x3c
     368:	e1a01006 	mov	r1, r6
     36c:	ebfffffe 	bl	0 <mrp_settable>
     370:	e594003c 	ldr	r0, [r4, #60]	; 0x3c
     374:	e28f1fae 	add	r1, pc, #696	; 0x2b8
     378:	ebfffffe 	bl	0 <mrp_pushstring>
     37c:	e59f12b8 	ldr	r1, [pc, #696]	; 63c <_mr_intra_start+0x63c>
     380:	e594003c 	ldr	r0, [r4, #60]	; 0x3c
     384:	e3a02000 	mov	r2, #0
     388:	ebfffffe 	bl	0 <mrp_pushcclosure>
     38c:	e594003c 	ldr	r0, [r4, #60]	; 0x3c
     390:	e1a01006 	mov	r1, r6
     394:	ebfffffe 	bl	0 <mrp_settable>
     398:	e594003c 	ldr	r0, [r4, #60]	; 0x3c
     39c:	e28f1fa7 	add	r1, pc, #668	; 0x29c
     3a0:	ebfffffe 	bl	0 <mrp_pushstring>
     3a4:	e59f1298 	ldr	r1, [pc, #664]	; 644 <_mr_intra_start+0x644>
     3a8:	e594003c 	ldr	r0, [r4, #60]	; 0x3c
     3ac:	e3a02000 	mov	r2, #0
     3b0:	ebfffffe 	bl	0 <mrp_pushcclosure>
     3b4:	e594003c 	ldr	r0, [r4, #60]	; 0x3c
     3b8:	e1a01006 	mov	r1, r6
     3bc:	ebfffffe 	bl	0 <mrp_settable>
     3c0:	e594003c 	ldr	r0, [r4, #60]	; 0x3c
     3c4:	e28f1f9f 	add	r1, pc, #636	; 0x27c
     3c8:	ebfffffe 	bl	0 <mrp_pushstring>
     3cc:	e59f127c 	ldr	r1, [pc, #636]	; 650 <_mr_intra_start+0x650>
     3d0:	e594003c 	ldr	r0, [r4, #60]	; 0x3c
     3d4:	e3a02000 	mov	r2, #0
     3d8:	ebfffffe 	bl	0 <mrp_pushcclosure>
     3dc:	e594003c 	ldr	r0, [r4, #60]	; 0x3c
     3e0:	e1a01006 	mov	r1, r6
     3e4:	ebfffffe 	bl	0 <mrp_settable>
     3e8:	e594003c 	ldr	r0, [r4, #60]	; 0x3c
     3ec:	e28f1e26 	add	r1, pc, #608	; 0x260
     3f0:	ebfffffe 	bl	0 <mrp_pushstring>
     3f4:	e59f125c 	ldr	r1, [pc, #604]	; 658 <_mr_intra_start+0x658>
     3f8:	e594003c 	ldr	r0, [r4, #60]	; 0x3c
     3fc:	e3a02000 	mov	r2, #0
     400:	ebfffffe 	bl	0 <mrp_pushcclosure>
     404:	e594003c 	ldr	r0, [r4, #60]	; 0x3c
     408:	e1a01006 	mov	r1, r6
     40c:	ebfffffe 	bl	0 <mrp_settable>
     410:	e594003c 	ldr	r0, [r4, #60]	; 0x3c
     414:	e28f1d09 	add	r1, pc, #576	; 0x240
     418:	ebfffffe 	bl	0 <mrp_pushstring>
     41c:	e59f1244 	ldr	r1, [pc, #580]	; 668 <_mr_intra_start+0x668>
     420:	e594003c 	ldr	r0, [r4, #60]	; 0x3c
     424:	e3a02000 	mov	r2, #0
     428:	ebfffffe 	bl	0 <mrp_pushcclosure>
     42c:	e594003c 	ldr	r0, [r4, #60]	; 0x3c
     430:	e1a01006 	mov	r1, r6
     434:	ebfffffe 	bl	0 <mrp_settable>
     438:	e594003c 	ldr	r0, [r4, #60]	; 0x3c
     43c:	e28f1f8a 	add	r1, pc, #552	; 0x228
     440:	ebfffffe 	bl	0 <mrp_pushstring>
     444:	e59f122c 	ldr	r1, [pc, #556]	; 678 <_mr_intra_start+0x678>
     448:	e594003c 	ldr	r0, [r4, #60]	; 0x3c
     44c:	e3a02000 	mov	r2, #0
     450:	ebfffffe 	bl	0 <mrp_pushcclosure>
     454:	e594003c 	ldr	r0, [r4, #60]	; 0x3c
     458:	e1a01006 	mov	r1, r6
     45c:	ebfffffe 	bl	0 <mrp_settable>
     460:	e594003c 	ldr	r0, [r4, #60]	; 0x3c
     464:	e28f1e21 	add	r1, pc, #528	; 0x210
     468:	ebfffffe 	bl	0 <mrp_pushstring>
     46c:	e59f1214 	ldr	r1, [pc, #532]	; 688 <_mr_intra_start+0x688>
     470:	e594003c 	ldr	r0, [r4, #60]	; 0x3c
     474:	e3a02000 	mov	r2, #0
     478:	ebfffffe 	bl	0 <mrp_pushcclosure>
     47c:	e594003c 	ldr	r0, [r4, #60]	; 0x3c
     480:	e1a01006 	mov	r1, r6
     484:	ebfffffe 	bl	0 <mrp_settable>
     488:	e594003c 	ldr	r0, [r4, #60]	; 0x3c
     48c:	e28f1f7e 	add	r1, pc, #504	; 0x1f8
     490:	ebfffffe 	bl	0 <mrp_pushstring>
     494:	e59f11fc 	ldr	r1, [pc, #508]	; 698 <_mr_intra_start+0x698>
     498:	e594003c 	ldr	r0, [r4, #60]	; 0x3c
     49c:	e3a02000 	mov	r2, #0
     4a0:	ebfffffe 	bl	0 <mrp_pushcclosure>
     4a4:	e594003c 	ldr	r0, [r4, #60]	; 0x3c
     4a8:	e1a01006 	mov	r1, r6
     4ac:	ebfffffe 	bl	0 <mrp_settable>
     4b0:	e594003c 	ldr	r0, [r4, #60]	; 0x3c
     4b4:	e28f1e1e 	add	r1, pc, #480	; 0x1e0
     4b8:	ebfffffe 	bl	0 <mrp_pushstring>
     4bc:	e59f11e4 	ldr	r1, [pc, #484]	; 6a8 <_mr_intra_start+0x6a8>
     4c0:	e594003c 	ldr	r0, [r4, #60]	; 0x3c
     4c4:	e3a02000 	mov	r2, #0
     4c8:	ebfffffe 	bl	0 <mrp_pushcclosure>
     4cc:	e594003c 	ldr	r0, [r4, #60]	; 0x3c
     4d0:	e1a01006 	mov	r1, r6
     4d4:	ebfffffe 	bl	0 <mrp_settable>
     4d8:	e594003c 	ldr	r0, [r4, #60]	; 0x3c
     4dc:	e28f1f72 	add	r1, pc, #456	; 0x1c8
     4e0:	ebfffffe 	bl	0 <mrp_pushstring>
     4e4:	e59f11d0 	ldr	r1, [pc, #464]	; 6bc <_mr_intra_start+0x6bc>
     4e8:	e594003c 	ldr	r0, [r4, #60]	; 0x3c
     4ec:	e3a02000 	mov	r2, #0
     4f0:	ebfffffe 	bl	0 <mrp_pushcclosure>
     4f4:	e594003c 	ldr	r0, [r4, #60]	; 0x3c
     4f8:	e1a01006 	mov	r1, r6
     4fc:	ebfffffe 	bl	0 <mrp_settable>
     500:	e594003c 	ldr	r0, [r4, #60]	; 0x3c
     504:	e28f1f6d 	add	r1, pc, #436	; 0x1b4
     508:	ebfffffe 	bl	0 <mrp_pushstring>
     50c:	e59f11b8 	ldr	r1, [pc, #440]	; 6cc <_mr_intra_start+0x6cc>
     510:	e594003c 	ldr	r0, [r4, #60]	; 0x3c
     514:	e3a02000 	mov	r2, #0
     518:	ebfffffe 	bl	0 <mrp_pushcclosure>
     51c:	e594003c 	ldr	r0, [r4, #60]	; 0x3c
     520:	e1a01006 	mov	r1, r6
     524:	ebfffffe 	bl	0 <mrp_settable>
     528:	e594003c 	ldr	r0, [r4, #60]	; 0x3c
     52c:	e28f1f67 	add	r1, pc, #412	; 0x19c
     530:	ebfffffe 	bl	0 <mrp_pushstring>
     534:	e59f11a0 	ldr	r1, [pc, #416]	; 6dc <_mr_intra_start+0x6dc>
     538:	e594003c 	ldr	r0, [r4, #60]	; 0x3c
     53c:	e3a02000 	mov	r2, #0
     540:	ebfffffe 	bl	0 <mrp_pushcclosure>
     544:	e594003c 	ldr	r0, [r4, #60]	; 0x3c
     548:	e1a01006 	mov	r1, r6
     54c:	ebfffffe 	bl	0 <mrp_settable>
     550:	e594003c 	ldr	r0, [r4, #60]	; 0x3c
     554:	e28f1f61 	add	r1, pc, #388	; 0x184
     558:	ebfffffe 	bl	0 <mrp_pushstring>
     55c:	e59f1188 	ldr	r1, [pc, #392]	; 6ec <_mr_intra_start+0x6ec>
     560:	e594003c 	ldr	r0, [r4, #60]	; 0x3c
     564:	e3a02000 	mov	r2, #0
     568:	ebfffffe 	bl	0 <mrp_pushcclosure>
     56c:	e594003c 	ldr	r0, [r4, #60]	; 0x3c
     570:	e1a01006 	mov	r1, r6
     574:	ebfffffe 	bl	0 <mrp_settable>
     578:	e28f1e17 	add	r1, pc, #368	; 0x170
     57c:	ea00005e 	b	6fc <_mr_intra_start+0x6fc>
     580:	00000000 	.word	0x00000000
     584:	000003e9 	.word	0x000003e9
     588:	000000d8 	.word	0x000000d8
     58c:	000003ea 	.word	0x000003ea
     590:	000001d8 	.word	0x000001d8
     594:	00000310 	.word	0x00000310
     598:	0000034c 	.word	0x0000034c
     59c:	000002c8 	.word	0x000002c8
     5a0:	00000304 	.word	0x00000304
     5a4:	65766153 	.word	0x65766153
     5a8:	6c626154 	.word	0x6c626154
     5ac:	00000065 	.word	0x00000065
     5b0:	00000000 	.word	0x00000000
     5b4:	ffffd8ef 	.word	0xffffd8ef
     5b8:	64616f4c 	.word	0x64616f4c
     5bc:	6c626154 	.word	0x6c626154
     5c0:	00000065 	.word	0x00000065
     5c4:	00000000 	.word	0x00000000
     5c8:	53746547 	.word	0x53746547
     5cc:	6e497379 	.word	0x6e497379
     5d0:	00006f66 	.word	0x00006f66
     5d4:	00000000 	.word	0x00000000
     5d8:	44746547 	.word	0x44746547
     5dc:	74657461 	.word	0x74657461
     5e0:	00656d69 	.word	0x00656d69
     5e4:	00000000 	.word	0x00000000
     5e8:	6c6c6143 	.word	0x6c6c6143
	...
     5f4:	646e6553 	.word	0x646e6553
     5f8:	00736d53 	.word	0x00736d53
     5fc:	00000000 	.word	0x00000000
     600:	4e746547 	.word	0x4e746547
     604:	6f777465 	.word	0x6f777465
     608:	44496b72 	.word	0x44496b72
	...
     614:	6e6e6f43 	.word	0x6e6e6f43
     618:	57746365 	.word	0x57746365
     61c:	00005041 	.word	0x00005041
     620:	00000000 	.word	0x00000000
     624:	64616f4c 	.word	0x64616f4c
     628:	6b636150 	.word	0x6b636150
	...
     634:	466e7552 	.word	0x466e7552
     638:	00656c69 	.word	0x00656c69
     63c:	00000000 	.word	0x00000000
     640:	00753263 	.word	0x00753263
     644:	00000000 	.word	0x00000000
     648:	52746547 	.word	0x52746547
     64c:	00646e61 	.word	0x00646e61
     650:	00000000 	.word	0x00000000
     654:	00646f6d 	.word	0x00646f6d
     658:	00000000 	.word	0x00000000
     65c:	77617244 	.word	0x77617244
     660:	74786554 	.word	0x74786554
	...
     66c:	77617244 	.word	0x77617244
     670:	74636552 	.word	0x74636552
	...
     67c:	77617244 	.word	0x77617244
     680:	656e694c 	.word	0x656e694c
	...
     68c:	77617244 	.word	0x77617244
     690:	6e696f50 	.word	0x6e696f50
     694:	00000074 	.word	0x00000074
     698:	00000000 	.word	0x00000000
     69c:	754d6742 	.word	0x754d6742
     6a0:	53636973 	.word	0x53636973
     6a4:	00007465 	.word	0x00007465
     6a8:	00000000 	.word	0x00000000
     6ac:	754d6742 	.word	0x754d6742
     6b0:	53636973 	.word	0x53636973
     6b4:	74726174 	.word	0x74726174
	...
     6c0:	754d6742 	.word	0x754d6742
     6c4:	53636973 	.word	0x53636973
     6c8:	00706f74 	.word	0x00706f74
     6cc:	00000000 	.word	0x00000000
     6d0:	6e756f53 	.word	0x6e756f53
     6d4:	74655364 	.word	0x74655364
	...
     6e0:	6e756f53 	.word	0x6e756f53
     6e4:	616c5064 	.word	0x616c5064
     6e8:	00000079 	.word	0x00000079
     6ec:	00000000 	.word	0x00000000
     6f0:	6e756f53 	.word	0x6e756f53
     6f4:	6f745364 	.word	0x6f745364
     6f8:	00000070 	.word	0x00000070
     6fc:	e594003c 	ldr	r0, [r4, #60]	; 0x3c
     700:	ebfffffe 	bl	0 <mrp_pushstring>
     704:	e59f13b4 	ldr	r1, [pc, #948]	; ac0 <_mr_intra_start+0xac0>
     708:	e594003c 	ldr	r0, [r4, #60]	; 0x3c
     70c:	e3a02000 	mov	r2, #0
     710:	ebfffffe 	bl	0 <mrp_pushcclosure>
     714:	e594003c 	ldr	r0, [r4, #60]	; 0x3c
     718:	e1a01006 	mov	r1, r6
     71c:	ebfffffe 	bl	0 <mrp_settable>
     720:	e594003c 	ldr	r0, [r4, #60]	; 0x3c
     724:	e28f1fe6 	add	r1, pc, #920	; 0x398
     728:	ebfffffe 	bl	0 <mrp_pushstring>
     72c:	e59f139c 	ldr	r1, [pc, #924]	; ad0 <_mr_intra_start+0xad0>
     730:	e594003c 	ldr	r0, [r4, #60]	; 0x3c
     734:	e3a02000 	mov	r2, #0
     738:	ebfffffe 	bl	0 <mrp_pushcclosure>
     73c:	e594003c 	ldr	r0, [r4, #60]	; 0x3c
     740:	e1a01006 	mov	r1, r6
     744:	ebfffffe 	bl	0 <mrp_settable>
     748:	e594003c 	ldr	r0, [r4, #60]	; 0x3c
     74c:	e28f1d0e 	add	r1, pc, #896	; 0x380
     750:	ebfffffe 	bl	0 <mrp_pushstring>
     754:	e59f1384 	ldr	r1, [pc, #900]	; ae0 <_mr_intra_start+0xae0>
     758:	e594003c 	ldr	r0, [r4, #60]	; 0x3c
     75c:	e3a02000 	mov	r2, #0
     760:	ebfffffe 	bl	0 <mrp_pushcclosure>
     764:	e594003c 	ldr	r0, [r4, #60]	; 0x3c
     768:	e1a01006 	mov	r1, r6
     76c:	ebfffffe 	bl	0 <mrp_settable>
     770:	e594003c 	ldr	r0, [r4, #60]	; 0x3c
     774:	e28f1fda 	add	r1, pc, #872	; 0x368
     778:	ebfffffe 	bl	0 <mrp_pushstring>
     77c:	e59f136c 	ldr	r1, [pc, #876]	; af0 <_mr_intra_start+0xaf0>
     780:	e594003c 	ldr	r0, [r4, #60]	; 0x3c
     784:	e3a02000 	mov	r2, #0
     788:	ebfffffe 	bl	0 <mrp_pushcclosure>
     78c:	e594003c 	ldr	r0, [r4, #60]	; 0x3c
     790:	e1a01006 	mov	r1, r6
     794:	ebfffffe 	bl	0 <mrp_settable>
     798:	e594003c 	ldr	r0, [r4, #60]	; 0x3c
     79c:	e28f1e35 	add	r1, pc, #848	; 0x350
     7a0:	ebfffffe 	bl	0 <mrp_pushstring>
     7a4:	e59f1354 	ldr	r1, [pc, #852]	; b00 <_mr_intra_start+0xb00>
     7a8:	e594003c 	ldr	r0, [r4, #60]	; 0x3c
     7ac:	e3a02000 	mov	r2, #0
     7b0:	ebfffffe 	bl	0 <mrp_pushcclosure>
     7b4:	e594003c 	ldr	r0, [r4, #60]	; 0x3c
     7b8:	e1a01006 	mov	r1, r6
     7bc:	ebfffffe 	bl	0 <mrp_settable>
     7c0:	e594003c 	ldr	r0, [r4, #60]	; 0x3c
     7c4:	e28f1fce 	add	r1, pc, #824	; 0x338
     7c8:	ebfffffe 	bl	0 <mrp_pushstring>
     7cc:	e59f133c 	ldr	r1, [pc, #828]	; b10 <_mr_intra_start+0xb10>
     7d0:	e594003c 	ldr	r0, [r4, #60]	; 0x3c
     7d4:	e3a02000 	mov	r2, #0
     7d8:	ebfffffe 	bl	0 <mrp_pushcclosure>
     7dc:	e594003c 	ldr	r0, [r4, #60]	; 0x3c
     7e0:	e1a01006 	mov	r1, r6
     7e4:	ebfffffe 	bl	0 <mrp_settable>
     7e8:	e594003c 	ldr	r0, [r4, #60]	; 0x3c
     7ec:	e28f1e32 	add	r1, pc, #800	; 0x320
     7f0:	ebfffffe 	bl	0 <mrp_pushstring>
     7f4:	e59f1320 	ldr	r1, [pc, #800]	; b1c <_mr_intra_start+0xb1c>
     7f8:	e594003c 	ldr	r0, [r4, #60]	; 0x3c
     7fc:	e3a02000 	mov	r2, #0
     800:	ebfffffe 	bl	0 <mrp_pushcclosure>
     804:	e594003c 	ldr	r0, [r4, #60]	; 0x3c
     808:	e1a01006 	mov	r1, r6
     80c:	ebfffffe 	bl	0 <mrp_settable>
     810:	e594003c 	ldr	r0, [r4, #60]	; 0x3c
     814:	e28f1fc1 	add	r1, pc, #772	; 0x304
     818:	ebfffffe 	bl	0 <mrp_pushstring>
     81c:	e59f1308 	ldr	r1, [pc, #776]	; b2c <_mr_intra_start+0xb2c>
     820:	e594003c 	ldr	r0, [r4, #60]	; 0x3c
     824:	e3a02000 	mov	r2, #0
     828:	ebfffffe 	bl	0 <mrp_pushcclosure>
     82c:	e594003c 	ldr	r0, [r4, #60]	; 0x3c
     830:	e1a01006 	mov	r1, r6
     834:	ebfffffe 	bl	0 <mrp_settable>
     838:	e594003c 	ldr	r0, [r4, #60]	; 0x3c
     83c:	e28f1fbb 	add	r1, pc, #748	; 0x2ec
     840:	ebfffffe 	bl	0 <mrp_pushstring>
     844:	e59f12ec 	ldr	r1, [pc, #748]	; b38 <_mr_intra_start+0xb38>
     848:	e594003c 	ldr	r0, [r4, #60]	; 0x3c
     84c:	e3a02000 	mov	r2, #0
     850:	ebfffffe 	bl	0 <mrp_pushcclosure>
     854:	e594003c 	ldr	r0, [r4, #60]	; 0x3c
     858:	e1a01006 	mov	r1, r6
     85c:	ebfffffe 	bl	0 <mrp_settable>
     860:	e594003c 	ldr	r0, [r4, #60]	; 0x3c
     864:	e28f1e2d 	add	r1, pc, #720	; 0x2d0
     868:	ebfffffe 	bl	0 <mrp_pushstring>
     86c:	e59f12d4 	ldr	r1, [pc, #724]	; b48 <_mr_intra_start+0xb48>
     870:	e594003c 	ldr	r0, [r4, #60]	; 0x3c
     874:	e3a02000 	mov	r2, #0
     878:	ebfffffe 	bl	0 <mrp_pushcclosure>
     87c:	e594003c 	ldr	r0, [r4, #60]	; 0x3c
     880:	e1a01006 	mov	r1, r6
     884:	ebfffffe 	bl	0 <mrp_settable>
     888:	e594003c 	ldr	r0, [r4, #60]	; 0x3c
     88c:	e28f1fae 	add	r1, pc, #696	; 0x2b8
     890:	ebfffffe 	bl	0 <mrp_pushstring>
     894:	e59f12bc 	ldr	r1, [pc, #700]	; b58 <_mr_intra_start+0xb58>
     898:	e594003c 	ldr	r0, [r4, #60]	; 0x3c
     89c:	e3a02000 	mov	r2, #0
     8a0:	ebfffffe 	bl	0 <mrp_pushcclosure>
     8a4:	e594003c 	ldr	r0, [r4, #60]	; 0x3c
     8a8:	e1a01006 	mov	r1, r6
     8ac:	ebfffffe 	bl	0 <mrp_settable>
     8b0:	e594003c 	ldr	r0, [r4, #60]	; 0x3c
     8b4:	e28f1e2a 	add	r1, pc, #672	; 0x2a0
     8b8:	ebfffffe 	bl	0 <mrp_pushstring>
     8bc:	e59f12a4 	ldr	r1, [pc, #676]	; b68 <_mr_intra_start+0xb68>
     8c0:	e594003c 	ldr	r0, [r4, #60]	; 0x3c
     8c4:	e3a02000 	mov	r2, #0
     8c8:	ebfffffe 	bl	0 <mrp_pushcclosure>
     8cc:	e594003c 	ldr	r0, [r4, #60]	; 0x3c
     8d0:	e1a01006 	mov	r1, r6
     8d4:	ebfffffe 	bl	0 <mrp_settable>
     8d8:	e594003c 	ldr	r0, [r4, #60]	; 0x3c
     8dc:	e28f1fa2 	add	r1, pc, #648	; 0x288
     8e0:	ebfffffe 	bl	0 <mrp_pushstring>
     8e4:	e59f128c 	ldr	r1, [pc, #652]	; b78 <_mr_intra_start+0xb78>
     8e8:	e594003c 	ldr	r0, [r4, #60]	; 0x3c
     8ec:	e3a02000 	mov	r2, #0
     8f0:	ebfffffe 	bl	0 <mrp_pushcclosure>
     8f4:	e594003c 	ldr	r0, [r4, #60]	; 0x3c
     8f8:	e1a01006 	mov	r1, r6
     8fc:	ebfffffe 	bl	0 <mrp_settable>
     900:	e594003c 	ldr	r0, [r4, #60]	; 0x3c
     904:	e28f1e27 	add	r1, pc, #624	; 0x270
     908:	ebfffffe 	bl	0 <mrp_pushstring>
     90c:	e59f1274 	ldr	r1, [pc, #628]	; b88 <_mr_intra_start+0xb88>
     910:	e594003c 	ldr	r0, [r4, #60]	; 0x3c
     914:	e3a02000 	mov	r2, #0
     918:	ebfffffe 	bl	0 <mrp_pushcclosure>
     91c:	e594003c 	ldr	r0, [r4, #60]	; 0x3c
     920:	e1a01006 	mov	r1, r6
     924:	ebfffffe 	bl	0 <mrp_settable>
     928:	e594003c 	ldr	r0, [r4, #60]	; 0x3c
     92c:	e28f1f96 	add	r1, pc, #600	; 0x258
     930:	ebfffffe 	bl	0 <mrp_pushstring>
     934:	e59f125c 	ldr	r1, [pc, #604]	; b98 <_mr_intra_start+0xb98>
     938:	e594003c 	ldr	r0, [r4, #60]	; 0x3c
     93c:	e3a02000 	mov	r2, #0
     940:	ebfffffe 	bl	0 <mrp_pushcclosure>
     944:	e594003c 	ldr	r0, [r4, #60]	; 0x3c
     948:	e1a01006 	mov	r1, r6
     94c:	ebfffffe 	bl	0 <mrp_settable>
     950:	e594003c 	ldr	r0, [r4, #60]	; 0x3c
     954:	e28f1d09 	add	r1, pc, #576	; 0x240
     958:	ebfffffe 	bl	0 <mrp_pushstring>
     95c:	e59f1248 	ldr	r1, [pc, #584]	; bac <_mr_intra_start+0xbac>
     960:	e594003c 	ldr	r0, [r4, #60]	; 0x3c
     964:	e3a02000 	mov	r2, #0
     968:	ebfffffe 	bl	0 <mrp_pushcclosure>
     96c:	e594003c 	ldr	r0, [r4, #60]	; 0x3c
     970:	e1a01006 	mov	r1, r6
     974:	ebfffffe 	bl	0 <mrp_settable>
     978:	e594003c 	ldr	r0, [r4, #60]	; 0x3c
     97c:	e28f1f8b 	add	r1, pc, #556	; 0x22c
     980:	ebfffffe 	bl	0 <mrp_pushstring>
     984:	e59f1230 	ldr	r1, [pc, #560]	; bbc <_mr_intra_start+0xbbc>
     988:	e594003c 	ldr	r0, [r4, #60]	; 0x3c
     98c:	e3a02000 	mov	r2, #0
     990:	ebfffffe 	bl	0 <mrp_pushcclosure>
     994:	e594003c 	ldr	r0, [r4, #60]	; 0x3c
     998:	e1a01006 	mov	r1, r6
     99c:	ebfffffe 	bl	0 <mrp_settable>
     9a0:	e594003c 	ldr	r0, [r4, #60]	; 0x3c
     9a4:	e28f1f85 	add	r1, pc, #532	; 0x214
     9a8:	ebfffffe 	bl	0 <mrp_pushstring>
     9ac:	e59f1218 	ldr	r1, [pc, #536]	; bcc <_mr_intra_start+0xbcc>
     9b0:	e594003c 	ldr	r0, [r4, #60]	; 0x3c
     9b4:	e3a02000 	mov	r2, #0
     9b8:	ebfffffe 	bl	0 <mrp_pushcclosure>
     9bc:	e594003c 	ldr	r0, [r4, #60]	; 0x3c
     9c0:	e1a01006 	mov	r1, r6
     9c4:	ebfffffe 	bl	0 <mrp_settable>
     9c8:	e594003c 	ldr	r0, [r4, #60]	; 0x3c
     9cc:	e28f1f7f 	add	r1, pc, #508	; 0x1fc
     9d0:	ebfffffe 	bl	0 <mrp_pushstring>
     9d4:	e59f11fc 	ldr	r1, [pc, #508]	; bd8 <_mr_intra_start+0xbd8>
     9d8:	e594003c 	ldr	r0, [r4, #60]	; 0x3c
     9dc:	e3a02000 	mov	r2, #0
     9e0:	ebfffffe 	bl	0 <mrp_pushcclosure>
     9e4:	e594003c 	ldr	r0, [r4, #60]	; 0x3c
     9e8:	e1a01006 	mov	r1, r6
     9ec:	ebfffffe 	bl	0 <mrp_settable>
     9f0:	e594003c 	ldr	r0, [r4, #60]	; 0x3c
     9f4:	e28f1e1e 	add	r1, pc, #480	; 0x1e0
     9f8:	ebfffffe 	bl	0 <mrp_pushstring>
     9fc:	e59f11e4 	ldr	r1, [pc, #484]	; be8 <_mr_intra_start+0xbe8>
     a00:	e594003c 	ldr	r0, [r4, #60]	; 0x3c
     a04:	e3a02000 	mov	r2, #0
     a08:	ebfffffe 	bl	0 <mrp_pushcclosure>
     a0c:	e594003c 	ldr	r0, [r4, #60]	; 0x3c
     a10:	e1a01006 	mov	r1, r6
     a14:	ebfffffe 	bl	0 <mrp_settable>
     a18:	e594003c 	ldr	r0, [r4, #60]	; 0x3c
     a1c:	e28f1f72 	add	r1, pc, #456	; 0x1c8
     a20:	ebfffffe 	bl	0 <mrp_pushstring>
     a24:	e59f11cc 	ldr	r1, [pc, #460]	; bf8 <_mr_intra_start+0xbf8>
     a28:	e594003c 	ldr	r0, [r4, #60]	; 0x3c
     a2c:	e3a02000 	mov	r2, #0
     a30:	ebfffffe 	bl	0 <mrp_pushcclosure>
     a34:	e594003c 	ldr	r0, [r4, #60]	; 0x3c
     a38:	e1a01006 	mov	r1, r6
     a3c:	ebfffffe 	bl	0 <mrp_settable>
     a40:	e594003c 	ldr	r0, [r4, #60]	; 0x3c
     a44:	e28f1e1b 	add	r1, pc, #432	; 0x1b0
     a48:	ebfffffe 	bl	0 <mrp_pushstring>
     a4c:	e59f11b0 	ldr	r1, [pc, #432]	; c04 <_mr_intra_start+0xc04>
     a50:	e594003c 	ldr	r0, [r4, #60]	; 0x3c
     a54:	e3a02000 	mov	r2, #0
     a58:	ebfffffe 	bl	0 <mrp_pushcclosure>
     a5c:	e594003c 	ldr	r0, [r4, #60]	; 0x3c
     a60:	e1a01006 	mov	r1, r6
     a64:	ebfffffe 	bl	0 <mrp_settable>
     a68:	e594003c 	ldr	r0, [r4, #60]	; 0x3c
     a6c:	e28f1f65 	add	r1, pc, #404	; 0x194
     a70:	ebfffffe 	bl	0 <mrp_pushstring>
     a74:	e59f1194 	ldr	r1, [pc, #404]	; c10 <_mr_intra_start+0xc10>
     a78:	e594003c 	ldr	r0, [r4, #60]	; 0x3c
     a7c:	e3a02000 	mov	r2, #0
     a80:	ebfffffe 	bl	0 <mrp_pushcclosure>
     a84:	e594003c 	ldr	r0, [r4, #60]	; 0x3c
     a88:	e1a01006 	mov	r1, r6
     a8c:	ebfffffe 	bl	0 <mrp_settable>
     a90:	e594003c 	ldr	r0, [r4, #60]	; 0x3c
     a94:	e28f1f5e 	add	r1, pc, #376	; 0x178
     a98:	ebfffffe 	bl	0 <mrp_pushstring>
     a9c:	e59f117c 	ldr	r1, [pc, #380]	; c20 <_mr_intra_start+0xc20>
     aa0:	e594003c 	ldr	r0, [r4, #60]	; 0x3c
     aa4:	e3a02000 	mov	r2, #0
     aa8:	ebfffffe 	bl	0 <mrp_pushcclosure>
     aac:	e594003c 	ldr	r0, [r4, #60]	; 0x3c
     ab0:	e1a01006 	mov	r1, r6
     ab4:	ebfffffe 	bl	0 <mrp_settable>
     ab8:	e28f1f59 	add	r1, pc, #356	; 0x164
     abc:	ea00005b 	b	c30 <_mr_intra_start+0xc30>
     ac0:	00000000 	.word	0x00000000
     ac4:	6d746942 	.word	0x6d746942
     ac8:	6f4c7061 	.word	0x6f4c7061
     acc:	00006461 	.word	0x00006461
     ad0:	00000000 	.word	0x00000000
     ad4:	6d746942 	.word	0x6d746942
     ad8:	68537061 	.word	0x68537061
     adc:	0000776f 	.word	0x0000776f
     ae0:	00000000 	.word	0x00000000
     ae4:	6d746942 	.word	0x6d746942
     ae8:	654e7061 	.word	0x654e7061
     aec:	00000077 	.word	0x00000077
     af0:	00000000 	.word	0x00000000
     af4:	6d746942 	.word	0x6d746942
     af8:	72447061 	.word	0x72447061
     afc:	00007761 	.word	0x00007761
     b00:	00000000 	.word	0x00000000
     b04:	65476d42 	.word	0x65476d42
     b08:	72635374 	.word	0x72635374
	...
     b14:	74697845 	.word	0x74697845
	...
     b20:	53666645 	.word	0x53666645
     b24:	6f437465 	.word	0x6f437465
     b28:	0000006e 	.word	0x0000006e
     b2c:	00000000 	.word	0x00000000
     b30:	74736554 	.word	0x74736554
     b34:	006d6f43 	.word	0x006d6f43
     b38:	00000000 	.word	0x00000000
     b3c:	74736554 	.word	0x74736554
     b40:	316d6f43 	.word	0x316d6f43
	...
     b4c:	70736944 	.word	0x70736944
     b50:	78457055 	.word	0x78457055
	...
     b5c:	656d6954 	.word	0x656d6954
     b60:	61745372 	.word	0x61745372
     b64:	00007472 	.word	0x00007472
     b68:	00000000 	.word	0x00000000
     b6c:	656d6954 	.word	0x656d6954
     b70:	6f745372 	.word	0x6f745372
     b74:	00000070 	.word	0x00000070
     b78:	00000000 	.word	0x00000000
     b7c:	69727053 	.word	0x69727053
     b80:	65536574 	.word	0x65536574
     b84:	00000074 	.word	0x00000074
     b88:	00000000 	.word	0x00000000
     b8c:	69727053 	.word	0x69727053
     b90:	72446574 	.word	0x72446574
     b94:	00007761 	.word	0x00007761
     b98:	00000000 	.word	0x00000000
     b9c:	69727053 	.word	0x69727053
     ba0:	72446574 	.word	0x72446574
     ba4:	78457761 	.word	0x78457761
	...
     bb0:	69727053 	.word	0x69727053
     bb4:	68436574 	.word	0x68436574
     bb8:	006b6365 	.word	0x006b6365
     bbc:	00000000 	.word	0x00000000
     bc0:	61656c43 	.word	0x61656c43
     bc4:	72635372 	.word	0x72635372
     bc8:	006e6565 	.word	0x006e6565
     bcc:	00000000 	.word	0x00000000
     bd0:	656c6954 	.word	0x656c6954
     bd4:	00746553 	.word	0x00746553
     bd8:	00000000 	.word	0x00000000
     bdc:	656c6954 	.word	0x656c6954
     be0:	52746553 	.word	0x52746553
     be4:	00746365 	.word	0x00746365
     be8:	00000000 	.word	0x00000000
     bec:	656c6954 	.word	0x656c6954
     bf0:	77617244 	.word	0x77617244
	...
     bfc:	54746547 	.word	0x54746547
     c00:	00656c69 	.word	0x00656c69
     c04:	00000000 	.word	0x00000000
     c08:	54746553 	.word	0x54746553
     c0c:	00656c69 	.word	0x00656c69
     c10:	00000000 	.word	0x00000000
     c14:	656c6954 	.word	0x656c6954
     c18:	66696853 	.word	0x66696853
     c1c:	00000074 	.word	0x00000074
     c20:	00000000 	.word	0x00000000
     c24:	656c6954 	.word	0x656c6954
     c28:	64616f4c 	.word	0x64616f4c
     c2c:	00000000 	.word	0x00000000
     c30:	e594003c 	ldr	r0, [r4, #60]	; 0x3c
     c34:	ebfffffe 	bl	0 <mrp_pushstring>
     c38:	e59f13b0 	ldr	r1, [pc, #944]	; ff0 <_mr_intra_start+0xff0>
     c3c:	e594003c 	ldr	r0, [r4, #60]	; 0x3c
     c40:	e3a02000 	mov	r2, #0
     c44:	ebfffffe 	bl	0 <mrp_pushcclosure>
     c48:	e594003c 	ldr	r0, [r4, #60]	; 0x3c
     c4c:	e1a01006 	mov	r1, r6
     c50:	ebfffffe 	bl	0 <mrp_settable>
     c54:	e59f2398 	ldr	r2, [pc, #920]	; ff4 <_mr_intra_start+0xff4>
     c58:	e594003c 	ldr	r0, [r4, #60]	; 0x3c
     c5c:	e3a03000 	mov	r3, #0
     c60:	e28f1e39 	add	r1, pc, #912	; 0x390
     c64:	ebfffffe 	bl	0 <mr_L_openlib>
     c68:	e594003c 	ldr	r0, [r4, #60]	; 0x3c
     c6c:	e28f1fe3 	add	r1, pc, #908	; 0x38c
     c70:	ebfffffe 	bl	0 <mrp_pushstring>
     c74:	e51f164c 	ldr	r1, [pc, #-1612]	; 630 <_mr_intra_start+0x630>
     c78:	e594003c 	ldr	r0, [r4, #60]	; 0x3c
     c7c:	e3a02000 	mov	r2, #0
     c80:	ebfffffe 	bl	0 <mrp_pushcclosure>
     c84:	e594003c 	ldr	r0, [r4, #60]	; 0x3c
     c88:	e1a01006 	mov	r1, r6
     c8c:	ebfffffe 	bl	0 <mrp_settable>
     c90:	e594003c 	ldr	r0, [r4, #60]	; 0x3c
     c94:	e28f1e37 	add	r1, pc, #880	; 0x370
     c98:	ebfffffe 	bl	0 <mrp_pushstring>
     c9c:	e51f1668 	ldr	r1, [pc, #-1640]	; 63c <_mr_intra_start+0x63c>
     ca0:	e594003c 	ldr	r0, [r4, #60]	; 0x3c
     ca4:	e3a02000 	mov	r2, #0
     ca8:	ebfffffe 	bl	0 <mrp_pushcclosure>
     cac:	e594003c 	ldr	r0, [r4, #60]	; 0x3c
     cb0:	e1a01006 	mov	r1, r6
     cb4:	ebfffffe 	bl	0 <mrp_settable>
     cb8:	e594003c 	ldr	r0, [r4, #60]	; 0x3c
     cbc:	e28f1fd5 	add	r1, pc, #852	; 0x354
     cc0:	ebfffffe 	bl	0 <mrp_pushstring>
     cc4:	e51f167c 	ldr	r1, [pc, #-1660]	; 650 <_mr_intra_start+0x650>
     cc8:	e594003c 	ldr	r0, [r4, #60]	; 0x3c
     ccc:	e3a02000 	mov	r2, #0
     cd0:	ebfffffe 	bl	0 <mrp_pushcclosure>
     cd4:	e594003c 	ldr	r0, [r4, #60]	; 0x3c
     cd8:	e1a01006 	mov	r1, r6
     cdc:	ebfffffe 	bl	0 <mrp_settable>
     ce0:	e594003c 	ldr	r0, [r4, #60]	; 0x3c
     ce4:	e28f1fcd 	add	r1, pc, #820	; 0x334
     ce8:	ebfffffe 	bl	0 <mrp_pushstring>
     cec:	e51f169c 	ldr	r1, [pc, #-1692]	; 658 <_mr_intra_start+0x658>
     cf0:	e594003c 	ldr	r0, [r4, #60]	; 0x3c
     cf4:	e3a02000 	mov	r2, #0
     cf8:	ebfffffe 	bl	0 <mrp_pushcclosure>
     cfc:	e594003c 	ldr	r0, [r4, #60]	; 0x3c
     d00:	e1a01006 	mov	r1, r6
     d04:	ebfffffe 	bl	0 <mrp_settable>
     d08:	e594003c 	ldr	r0, [r4, #60]	; 0x3c
     d0c:	e28f1fc5 	add	r1, pc, #788	; 0x314
     d10:	ebfffffe 	bl	0 <mrp_pushstring>
     d14:	e59f1314 	ldr	r1, [pc, #788]	; 1030 <_mr_intra_start+0x1030>
     d18:	e594003c 	ldr	r0, [r4, #60]	; 0x3c
     d1c:	e3a02000 	mov	r2, #0
     d20:	ebfffffe 	bl	0 <mrp_pushcclosure>
     d24:	e594003c 	ldr	r0, [r4, #60]	; 0x3c
     d28:	e1a01006 	mov	r1, r6
     d2c:	ebfffffe 	bl	0 <mrp_settable>
     d30:	e594003c 	ldr	r0, [r4, #60]	; 0x3c
     d34:	e28f1fbe 	add	r1, pc, #760	; 0x2f8
     d38:	ebfffffe 	bl	0 <mrp_pushstring>
     d3c:	e59f12f4 	ldr	r1, [pc, #756]	; 1038 <_mr_intra_start+0x1038>
     d40:	e594003c 	ldr	r0, [r4, #60]	; 0x3c
     d44:	e3a02000 	mov	r2, #0
     d48:	ebfffffe 	bl	0 <mrp_pushcclosure>
     d4c:	e594003c 	ldr	r0, [r4, #60]	; 0x3c
     d50:	e1a01006 	mov	r1, r6
     d54:	ebfffffe 	bl	0 <mrp_settable>
     d58:	e594003c 	ldr	r0, [r4, #60]	; 0x3c
     d5c:	e28f1fb6 	add	r1, pc, #728	; 0x2d8
     d60:	ebfffffe 	bl	0 <mrp_pushstring>
     d64:	e59f12d8 	ldr	r1, [pc, #728]	; 1044 <_mr_intra_start+0x1044>
     d68:	e594003c 	ldr	r0, [r4, #60]	; 0x3c
     d6c:	e3a02000 	mov	r2, #0
     d70:	ebfffffe 	bl	0 <mrp_pushcclosure>
     d74:	e594003c 	ldr	r0, [r4, #60]	; 0x3c
     d78:	e1a01006 	mov	r1, r6
     d7c:	ebfffffe 	bl	0 <mrp_settable>
     d80:	e594003c 	ldr	r0, [r4, #60]	; 0x3c
     d84:	e28f1faf 	add	r1, pc, #700	; 0x2bc
     d88:	ebfffffe 	bl	0 <mrp_pushstring>
     d8c:	e59f12bc 	ldr	r1, [pc, #700]	; 1050 <_mr_intra_start+0x1050>
     d90:	e594003c 	ldr	r0, [r4, #60]	; 0x3c
     d94:	e3a02000 	mov	r2, #0
     d98:	ebfffffe 	bl	0 <mrp_pushcclosure>
     d9c:	e594003c 	ldr	r0, [r4, #60]	; 0x3c
     da0:	e1a01006 	mov	r1, r6
     da4:	ebfffffe 	bl	0 <mrp_settable>
     da8:	e594003c 	ldr	r0, [r4, #60]	; 0x3c
     dac:	e28f1e2a 	add	r1, pc, #672	; 0x2a0
     db0:	ebfffffe 	bl	0 <mrp_pushstring>
     db4:	e51f1754 	ldr	r1, [pc, #-1876]	; 668 <_mr_intra_start+0x668>
     db8:	e594003c 	ldr	r0, [r4, #60]	; 0x3c
     dbc:	e3a02000 	mov	r2, #0
     dc0:	ebfffffe 	bl	0 <mrp_pushcclosure>
     dc4:	e594003c 	ldr	r0, [r4, #60]	; 0x3c
     dc8:	e1a01006 	mov	r1, r6
     dcc:	ebfffffe 	bl	0 <mrp_settable>
     dd0:	e594003c 	ldr	r0, [r4, #60]	; 0x3c
     dd4:	e28f1fa1 	add	r1, pc, #644	; 0x284
     dd8:	ebfffffe 	bl	0 <mrp_pushstring>
     ddc:	e59f1288 	ldr	r1, [pc, #648]	; 106c <_mr_intra_start+0x106c>
     de0:	e594003c 	ldr	r0, [r4, #60]	; 0x3c
     de4:	e3a02000 	mov	r2, #0
     de8:	ebfffffe 	bl	0 <mrp_pushcclosure>
     dec:	e594003c 	ldr	r0, [r4, #60]	; 0x3c
     df0:	e1a01006 	mov	r1, r6
     df4:	ebfffffe 	bl	0 <mrp_settable>
     df8:	e594003c 	ldr	r0, [r4, #60]	; 0x3c
     dfc:	e28f1f9b 	add	r1, pc, #620	; 0x26c
     e00:	ebfffffe 	bl	0 <mrp_pushstring>
     e04:	e51f1794 	ldr	r1, [pc, #-1940]	; 678 <_mr_intra_start+0x678>
     e08:	e594003c 	ldr	r0, [r4, #60]	; 0x3c
     e0c:	e3a02000 	mov	r2, #0
     e10:	ebfffffe 	bl	0 <mrp_pushcclosure>
     e14:	e594003c 	ldr	r0, [r4, #60]	; 0x3c
     e18:	e1a01006 	mov	r1, r6
     e1c:	ebfffffe 	bl	0 <mrp_settable>
     e20:	e594003c 	ldr	r0, [r4, #60]	; 0x3c
     e24:	e28f1e25 	add	r1, pc, #592	; 0x250
     e28:	ebfffffe 	bl	0 <mrp_pushstring>
     e2c:	e51f17ac 	ldr	r1, [pc, #-1964]	; 688 <_mr_intra_start+0x688>
     e30:	e594003c 	ldr	r0, [r4, #60]	; 0x3c
     e34:	e3a02000 	mov	r2, #0
     e38:	ebfffffe 	bl	0 <mrp_pushcclosure>
     e3c:	e594003c 	ldr	r0, [r4, #60]	; 0x3c
     e40:	e1a01006 	mov	r1, r6
     e44:	ebfffffe 	bl	0 <mrp_settable>
     e48:	e594003c 	ldr	r0, [r4, #60]	; 0x3c
     e4c:	e28f1f8d 	add	r1, pc, #564	; 0x234
     e50:	ebfffffe 	bl	0 <mrp_pushstring>
     e54:	e51f17c4 	ldr	r1, [pc, #-1988]	; 698 <_mr_intra_start+0x698>
     e58:	e594003c 	ldr	r0, [r4, #60]	; 0x3c
     e5c:	e3a02000 	mov	r2, #0
     e60:	ebfffffe 	bl	0 <mrp_pushcclosure>
     e64:	e594003c 	ldr	r0, [r4, #60]	; 0x3c
     e68:	e1a01006 	mov	r1, r6
     e6c:	ebfffffe 	bl	0 <mrp_settable>
     e70:	e594003c 	ldr	r0, [r4, #60]	; 0x3c
     e74:	e28f1f86 	add	r1, pc, #536	; 0x218
     e78:	ebfffffe 	bl	0 <mrp_pushstring>
     e7c:	e51f12b8 	ldr	r1, [pc, #-696]	; bcc <_mr_intra_start+0xbcc>
     e80:	e594003c 	ldr	r0, [r4, #60]	; 0x3c
     e84:	e3a02000 	mov	r2, #0
     e88:	ebfffffe 	bl	0 <mrp_pushcclosure>
     e8c:	e594003c 	ldr	r0, [r4, #60]	; 0x3c
     e90:	e1a01006 	mov	r1, r6
     e94:	ebfffffe 	bl	0 <mrp_settable>
     e98:	e594003c 	ldr	r0, [r4, #60]	; 0x3c
     e9c:	e28f1f7f 	add	r1, pc, #508	; 0x1fc
     ea0:	ebfffffe 	bl	0 <mrp_pushstring>
     ea4:	e51f1354 	ldr	r1, [pc, #-852]	; b58 <_mr_intra_start+0xb58>
     ea8:	e594003c 	ldr	r0, [r4, #60]	; 0x3c
     eac:	e3a02000 	mov	r2, #0
     eb0:	ebfffffe 	bl	0 <mrp_pushcclosure>
     eb4:	e594003c 	ldr	r0, [r4, #60]	; 0x3c
     eb8:	e1a01006 	mov	r1, r6
     ebc:	ebfffffe 	bl	0 <mrp_settable>
     ec0:	e594003c 	ldr	r0, [r4, #60]	; 0x3c
     ec4:	e28f1e1e 	add	r1, pc, #480	; 0x1e0
     ec8:	ebfffffe 	bl	0 <mrp_pushstring>
     ecc:	e59f11e0 	ldr	r1, [pc, #480]	; 10b4 <_mr_intra_start+0x10b4>
     ed0:	e594003c 	ldr	r0, [r4, #60]	; 0x3c
     ed4:	e3a02000 	mov	r2, #0
     ed8:	ebfffffe 	bl	0 <mrp_pushcclosure>
     edc:	e594003c 	ldr	r0, [r4, #60]	; 0x3c
     ee0:	e1a01006 	mov	r1, r6
     ee4:	ebfffffe 	bl	0 <mrp_settable>
     ee8:	e594003c 	ldr	r0, [r4, #60]	; 0x3c
     eec:	e28f1f71 	add	r1, pc, #452	; 0x1c4
     ef0:	ebfffffe 	bl	0 <mrp_pushstring>
     ef4:	e59f11c8 	ldr	r1, [pc, #456]	; 10c4 <_mr_intra_start+0x10c4>
     ef8:	e594003c 	ldr	r0, [r4, #60]	; 0x3c
     efc:	e3a02000 	mov	r2, #0
     f00:	ebfffffe 	bl	0 <mrp_pushcclosure>
     f04:	e594003c 	ldr	r0, [r4, #60]	; 0x3c
     f08:	e1a01006 	mov	r1, r6
     f0c:	ebfffffe 	bl	0 <mrp_settable>
     f10:	e594003c 	ldr	r0, [r4, #60]	; 0x3c
     f14:	e28f1f6b 	add	r1, pc, #428	; 0x1ac
     f18:	ebfffffe 	bl	0 <mrp_pushstring>
     f1c:	e51f1454 	ldr	r1, [pc, #-1108]	; ad0 <_mr_intra_start+0xad0>
     f20:	e594003c 	ldr	r0, [r4, #60]	; 0x3c
     f24:	e3a02000 	mov	r2, #0
     f28:	ebfffffe 	bl	0 <mrp_pushcclosure>
     f2c:	e594003c 	ldr	r0, [r4, #60]	; 0x3c
     f30:	e1a01006 	mov	r1, r6
     f34:	ebfffffe 	bl	0 <mrp_settable>
     f38:	e594003c 	ldr	r0, [r4, #60]	; 0x3c
     f3c:	e28f1e19 	add	r1, pc, #400	; 0x190
     f40:	ebfffffe 	bl	0 <mrp_pushstring>
     f44:	e51f146c 	ldr	r1, [pc, #-1132]	; ae0 <_mr_intra_start+0xae0>
     f48:	e594003c 	ldr	r0, [r4, #60]	; 0x3c
     f4c:	e3a02000 	mov	r2, #0
     f50:	ebfffffe 	bl	0 <mrp_pushcclosure>
     f54:	e594003c 	ldr	r0, [r4, #60]	; 0x3c
     f58:	e1a01006 	mov	r1, r6
     f5c:	ebfffffe 	bl	0 <mrp_settable>
     f60:	e594003c 	ldr	r0, [r4, #60]	; 0x3c
     f64:	e28f1f5d 	add	r1, pc, #372	; 0x174
     f68:	ebfffffe 	bl	0 <mrp_pushstring>
     f6c:	e59f1178 	ldr	r1, [pc, #376]	; 10ec <_mr_intra_start+0x10ec>
     f70:	e594003c 	ldr	r0, [r4, #60]	; 0x3c
     f74:	e3a02000 	mov	r2, #0
     f78:	ebfffffe 	bl	0 <mrp_pushcclosure>
     f7c:	e594003c 	ldr	r0, [r4, #60]	; 0x3c
     f80:	e1a01006 	mov	r1, r6
     f84:	ebfffffe 	bl	0 <mrp_settable>
     f88:	e594003c 	ldr	r0, [r4, #60]	; 0x3c
     f8c:	e28f1f57 	add	r1, pc, #348	; 0x15c
     f90:	ebfffffe 	bl	0 <mrp_pushstring>
     f94:	e51f14ac 	ldr	r1, [pc, #-1196]	; af0 <_mr_intra_start+0xaf0>
     f98:	e594003c 	ldr	r0, [r4, #60]	; 0x3c
     f9c:	e3a02000 	mov	r2, #0
     fa0:	ebfffffe 	bl	0 <mrp_pushcclosure>
     fa4:	e594003c 	ldr	r0, [r4, #60]	; 0x3c
     fa8:	e1a01006 	mov	r1, r6
     fac:	ebfffffe 	bl	0 <mrp_settable>
     fb0:	e594003c 	ldr	r0, [r4, #60]	; 0x3c
     fb4:	e28f1f4f 	add	r1, pc, #316	; 0x13c
     fb8:	ebfffffe 	bl	0 <mrp_pushstring>
     fbc:	e51f14c4 	ldr	r1, [pc, #-1220]	; b00 <_mr_intra_start+0xb00>
     fc0:	e594003c 	ldr	r0, [r4, #60]	; 0x3c
     fc4:	e3a02000 	mov	r2, #0
     fc8:	ebfffffe 	bl	0 <mrp_pushcclosure>
     fcc:	e594003c 	ldr	r0, [r4, #60]	; 0x3c
     fd0:	e1a01006 	mov	r1, r6
     fd4:	ebfffffe 	bl	0 <mrp_settable>
     fd8:	e594003c 	ldr	r0, [r4, #60]	; 0x3c
     fdc:	e28f1e12 	add	r1, pc, #288	; 0x120
     fe0:	ebfffffe 	bl	0 <mrp_pushstring>
     fe4:	e51f14dc 	ldr	r1, [pc, #-1244]	; b10 <_mr_intra_start+0xb10>
     fe8:	e3a02000 	mov	r2, #0
     fec:	ea000047 	b	1110 <_mr_intra_start+0x1110>
	...
     ff8:	6e6f6870 	.word	0x6e6f6870
     ffc:	00000065 	.word	0x00000065
    1000:	616f6c5f 	.word	0x616f6c5f
    1004:	63615064 	.word	0x63615064
    1008:	0000006b 	.word	0x0000006b
    100c:	6e75725f 	.word	0x6e75725f
    1010:	656c6946 	.word	0x656c6946
    1014:	00000000 	.word	0x00000000
    1018:	6e61725f 	.word	0x6e61725f
    101c:	00000064 	.word	0x00000064
    1020:	646f6d5f 	.word	0x646f6d5f
    1024:	00000000 	.word	0x00000000
    1028:	646e615f 	.word	0x646e615f
	...
    1034:	00726f5f 	.word	0x00726f5f
    1038:	00000000 	.word	0x00000000
    103c:	746f6e5f 	.word	0x746f6e5f
	...
    1048:	726f785f 	.word	0x726f785f
	...
    1054:	6172645f 	.word	0x6172645f
    1058:	78655477 	.word	0x78655477
    105c:	00000074 	.word	0x00000074
    1060:	6172645f 	.word	0x6172645f
    1064:	78655477 	.word	0x78655477
    1068:	00784574 	.word	0x00784574
    106c:	00000000 	.word	0x00000000
    1070:	6172645f 	.word	0x6172645f
    1074:	63655277 	.word	0x63655277
    1078:	00000074 	.word	0x00000074
    107c:	6172645f 	.word	0x6172645f
    1080:	6e694c77 	.word	0x6e694c77
    1084:	00000065 	.word	0x00000065
    1088:	6172645f 	.word	0x6172645f
    108c:	696f5077 	.word	0x696f5077
    1090:	0000746e 	.word	0x0000746e
    1094:	656c635f 	.word	0x656c635f
    1098:	63537261 	.word	0x63537261
    109c:	00000072 	.word	0x00000072
    10a0:	7369645f 	.word	0x7369645f
    10a4:	45705570 	.word	0x45705570
    10a8:	00000078 	.word	0x00000078
    10ac:	7369645f 	.word	0x7369645f
    10b0:	00705570 	.word	0x00705570
    10b4:	00000000 	.word	0x00000000
    10b8:	7865745f 	.word	0x7865745f
    10bc:	64695774 	.word	0x64695774
    10c0:	00006874 	.word	0x00006874
    10c4:	00000000 	.word	0x00000000
    10c8:	706d625f 	.word	0x706d625f
    10cc:	64616f4c 	.word	0x64616f4c
    10d0:	00000000 	.word	0x00000000
    10d4:	706d625f 	.word	0x706d625f
    10d8:	776f6853 	.word	0x776f6853
    10dc:	00000000 	.word	0x00000000
    10e0:	706d625f 	.word	0x706d625f
    10e4:	776f6853 	.word	0x776f6853
    10e8:	00007845 	.word	0x00007845
    10ec:	00000000 	.word	0x00000000
    10f0:	706d625f 	.word	0x706d625f
    10f4:	0077654e 	.word	0x0077654e
    10f8:	706d625f 	.word	0x706d625f
    10fc:	77617244 	.word	0x77617244
    1100:	00000000 	.word	0x00000000
    1104:	706d625f 	.word	0x706d625f
    1108:	53746547 	.word	0x53746547
    110c:	00007263 	.word	0x00007263
    1110:	e594003c 	ldr	r0, [r4, #60]	; 0x3c
    1114:	ebfffffe 	bl	0 <mrp_pushcclosure>
    1118:	e594003c 	ldr	r0, [r4, #60]	; 0x3c
    111c:	e1a01006 	mov	r1, r6
    1120:	ebfffffe 	bl	0 <mrp_settable>
    1124:	e594003c 	ldr	r0, [r4, #60]	; 0x3c
    1128:	e28f1e27 	add	r1, pc, #624	; 0x270
    112c:	ebfffffe 	bl	0 <mrp_pushstring>
    1130:	e59f1274 	ldr	r1, [pc, #628]	; 13ac <_mr_intra_start+0x13ac>
    1134:	e594003c 	ldr	r0, [r4, #60]	; 0x3c
    1138:	e3a02000 	mov	r2, #0
    113c:	ebfffffe 	bl	0 <mrp_pushcclosure>
    1140:	e594003c 	ldr	r0, [r4, #60]	; 0x3c
    1144:	e1a01006 	mov	r1, r6
    1148:	ebfffffe 	bl	0 <mrp_settable>
    114c:	e594003c 	ldr	r0, [r4, #60]	; 0x3c
    1150:	e28f1f96 	add	r1, pc, #600	; 0x258
    1154:	ebfffffe 	bl	0 <mrp_pushstring>
    1158:	e51f1644 	ldr	r1, [pc, #-1604]	; b1c <_mr_intra_start+0xb1c>
    115c:	e594003c 	ldr	r0, [r4, #60]	; 0x3c
    1160:	e3a02000 	mov	r2, #0
    1164:	ebfffffe 	bl	0 <mrp_pushcclosure>
    1168:	e594003c 	ldr	r0, [r4, #60]	; 0x3c
    116c:	e1a01006 	mov	r1, r6
    1170:	ebfffffe 	bl	0 <mrp_settable>
    1174:	e594003c 	ldr	r0, [r4, #60]	; 0x3c
    1178:	e28f1f8e 	add	r1, pc, #568	; 0x238
    117c:	ebfffffe 	bl	0 <mrp_pushstring>
    1180:	e51f165c 	ldr	r1, [pc, #-1628]	; b2c <_mr_intra_start+0xb2c>
    1184:	e594003c 	ldr	r0, [r4, #60]	; 0x3c
    1188:	e3a02000 	mov	r2, #0
    118c:	ebfffffe 	bl	0 <mrp_pushcclosure>
    1190:	e594003c 	ldr	r0, [r4, #60]	; 0x3c
    1194:	e1a01006 	mov	r1, r6
    1198:	ebfffffe 	bl	0 <mrp_settable>
    119c:	e594003c 	ldr	r0, [r4, #60]	; 0x3c
    11a0:	e28f1f87 	add	r1, pc, #540	; 0x21c
    11a4:	ebfffffe 	bl	0 <mrp_pushstring>
    11a8:	e51f1678 	ldr	r1, [pc, #-1656]	; b38 <_mr_intra_start+0xb38>
    11ac:	e594003c 	ldr	r0, [r4, #60]	; 0x3c
    11b0:	e3a02000 	mov	r2, #0
    11b4:	ebfffffe 	bl	0 <mrp_pushcclosure>
    11b8:	e594003c 	ldr	r0, [r4, #60]	; 0x3c
    11bc:	e1a01006 	mov	r1, r6
    11c0:	ebfffffe 	bl	0 <mrp_settable>
    11c4:	e594003c 	ldr	r0, [r4, #60]	; 0x3c
    11c8:	e28f1f7f 	add	r1, pc, #508	; 0x1fc
    11cc:	ebfffffe 	bl	0 <mrp_pushstring>
    11d0:	e51f1690 	ldr	r1, [pc, #-1680]	; b48 <_mr_intra_start+0xb48>
    11d4:	e594003c 	ldr	r0, [r4, #60]	; 0x3c
    11d8:	e3a02000 	mov	r2, #0
    11dc:	ebfffffe 	bl	0 <mrp_pushcclosure>
    11e0:	e594003c 	ldr	r0, [r4, #60]	; 0x3c
    11e4:	e1a01006 	mov	r1, r6
    11e8:	ebfffffe 	bl	0 <mrp_settable>
    11ec:	e594003c 	ldr	r0, [r4, #60]	; 0x3c
    11f0:	e28f1f77 	add	r1, pc, #476	; 0x1dc
    11f4:	ebfffffe 	bl	0 <mrp_pushstring>
    11f8:	e59f11dc 	ldr	r1, [pc, #476]	; 13dc <_mr_intra_start+0x13dc>
    11fc:	e594003c 	ldr	r0, [r4, #60]	; 0x3c
    1200:	e3a02000 	mov	r2, #0
    1204:	ebfffffe 	bl	0 <mrp_pushcclosure>
    1208:	e594003c 	ldr	r0, [r4, #60]	; 0x3c
    120c:	e1a01006 	mov	r1, r6
    1210:	ebfffffe 	bl	0 <mrp_settable>
    1214:	e594003c 	ldr	r0, [r4, #60]	; 0x3c
    1218:	e28f1d07 	add	r1, pc, #448	; 0x1c0
    121c:	ebfffffe 	bl	0 <mrp_pushstring>
    1220:	e59f11c0 	ldr	r1, [pc, #448]	; 13e8 <_mr_intra_start+0x13e8>
    1224:	e594003c 	ldr	r0, [r4, #60]	; 0x3c
    1228:	e3a02000 	mov	r2, #0
    122c:	ebfffffe 	bl	0 <mrp_pushcclosure>
    1230:	e594003c 	ldr	r0, [r4, #60]	; 0x3c
    1234:	e1a01006 	mov	r1, r6
    1238:	ebfffffe 	bl	0 <mrp_settable>
    123c:	e594003c 	ldr	r0, [r4, #60]	; 0x3c
    1240:	e28f1f69 	add	r1, pc, #420	; 0x1a4
    1244:	ebfffffe 	bl	0 <mrp_pushstring>
    1248:	e59f11a8 	ldr	r1, [pc, #424]	; 13f8 <_mr_intra_start+0x13f8>
    124c:	e594003c 	ldr	r0, [r4, #60]	; 0x3c
    1250:	e3a02000 	mov	r2, #0
    1254:	ebfffffe 	bl	0 <mrp_pushcclosure>
    1258:	e594003c 	ldr	r0, [r4, #60]	; 0x3c
    125c:	e1a01006 	mov	r1, r6
    1260:	ebfffffe 	bl	0 <mrp_settable>
    1264:	e594003c 	ldr	r0, [r4, #60]	; 0x3c
    1268:	e28f1f63 	add	r1, pc, #396	; 0x18c
    126c:	ebfffffe 	bl	0 <mrp_pushstring>
    1270:	e59f1190 	ldr	r1, [pc, #400]	; 1408 <_mr_intra_start+0x1408>
    1274:	e594003c 	ldr	r0, [r4, #60]	; 0x3c
    1278:	e3a02000 	mov	r2, #0
    127c:	ebfffffe 	bl	0 <mrp_pushcclosure>
    1280:	e594003c 	ldr	r0, [r4, #60]	; 0x3c
    1284:	e1a01006 	mov	r1, r6
    1288:	ebfffffe 	bl	0 <mrp_settable>
    128c:	e594003c 	ldr	r0, [r4, #60]	; 0x3c
    1290:	e28f1f5d 	add	r1, pc, #372	; 0x174
    1294:	ebfffffe 	bl	0 <mrp_pushstring>
    1298:	e51f1738 	ldr	r1, [pc, #-1848]	; b68 <_mr_intra_start+0xb68>
    129c:	e594003c 	ldr	r0, [r4, #60]	; 0x3c
    12a0:	e3a02000 	mov	r2, #0
    12a4:	ebfffffe 	bl	0 <mrp_pushcclosure>
    12a8:	e594003c 	ldr	r0, [r4, #60]	; 0x3c
    12ac:	e1a01006 	mov	r1, r6
    12b0:	ebfffffe 	bl	0 <mrp_settable>
    12b4:	e594003c 	ldr	r0, [r4, #60]	; 0x3c
    12b8:	e28f1f56 	add	r1, pc, #344	; 0x158
    12bc:	ebfffffe 	bl	0 <mrp_pushstring>
    12c0:	e51f1750 	ldr	r1, [pc, #-1872]	; b78 <_mr_intra_start+0xb78>
    12c4:	e594003c 	ldr	r0, [r4, #60]	; 0x3c
    12c8:	e3a02000 	mov	r2, #0
    12cc:	ebfffffe 	bl	0 <mrp_pushcclosure>
    12d0:	e594003c 	ldr	r0, [r4, #60]	; 0x3c
    12d4:	e1a01006 	mov	r1, r6
    12d8:	ebfffffe 	bl	0 <mrp_settable>
    12dc:	e3550000 	cmp	r5, #0
    12e0:	028f5f4f 	addeq	r5, pc, #316	; 0x13c
    12e4:	e594003c 	ldr	r0, [r4, #60]	; 0x3c
    12e8:	e1a01005 	mov	r1, r5
    12ec:	ebfffffe 	bl	0 <mrp_pushstring>
    12f0:	e594003c 	ldr	r0, [r4, #60]	; 0x3c
    12f4:	e28f1e13 	add	r1, pc, #304	; 0x130
    12f8:	ebfffffe 	bl	0 <mrp_pushstring>
    12fc:	e594003c 	ldr	r0, [r4, #60]	; 0x3c
    1300:	e3e01001 	mvn	r1, #1
    1304:	ebfffffe 	bl	0 <mrp_insert>
    1308:	e594003c 	ldr	r0, [r4, #60]	; 0x3c
    130c:	e1a01006 	mov	r1, r6
    1310:	ebfffffe 	bl	0 <mrp_settable>
    1314:	e59f011c 	ldr	r0, [pc, #284]	; 1438 <_mr_intra_start+0x1438>
    1318:	e3a0207f 	mov	r2, #127	; 0x7f
    131c:	e1a01005 	mov	r1, r5
    1320:	ebfffffe 	bl	0 <_mr_intra_start>
    1324:	e59f1110 	ldr	r1, [pc, #272]	; 143c <_mr_intra_start+0x143c>
    1328:	e594003c 	ldr	r0, [r4, #60]	; 0x3c
    132c:	ebfffffe 	bl	0 <mrp_pushstring>
    1330:	e594003c 	ldr	r0, [r4, #60]	; 0x3c
    1334:	e28f1f41 	add	r1, pc, #260	; 0x104
    1338:	ebfffffe 	bl	0 <mrp_pushstring>
    133c:	e594003c 	ldr	r0, [r4, #60]	; 0x3c
    1340:	e3e01001 	mvn	r1, #1
    1344:	ebfffffe 	bl	0 <mrp_insert>
    1348:	e594003c 	ldr	r0, [r4, #60]	; 0x3c
    134c:	e1a01006 	mov	r1, r6
    1350:	ebfffffe 	bl	0 <mrp_settable>
    1354:	e5849004 	str	r9, [r4, #4]
    1358:	e594003c 	ldr	r0, [r4, #60]	; 0x3c
    135c:	e1a0100a 	mov	r1, sl
    1360:	ebfffffe 	bl	0 <mrp_dofile>
    1364:	e3500000 	cmp	r0, #0
    1368:	08bd8ffe 	popeq	{r1, r2, r3, r4, r5, r6, r7, r8, r9, sl, fp, pc}
    136c:	e594003c 	ldr	r0, [r4, #60]	; 0x3c
    1370:	e3e01000 	mvn	r1, #0
    1374:	ebfffffe 	bl	0 <mrp_tostring>
    1378:	ebfffffe 	bl	0 <mr_printf>
    137c:	e594003c 	ldr	r0, [r4, #60]	; 0x3c
    1380:	e3e01001 	mvn	r1, #1
    1384:	ebfffffe 	bl	0 <mrp_settop>
    1388:	ebfffffe 	bl	0 <_mr_intra_start>
    138c:	e28f00b8 	add	r0, pc, #184	; 0xb8
    1390:	ebfffffe 	bl	0 <mr_printf>
    1394:	e28f00bc 	add	r0, pc, #188	; 0xbc
    1398:	ebfffffe 	bl	0 <mr_connectWAP>
    139c:	eafffb8d 	b	1d8 <_mr_intra_start+0x1d8>
    13a0:	706d625f 	.word	0x706d625f
    13a4:	6f666e49 	.word	0x6f666e49
	...
    13b0:	6978655f 	.word	0x6978655f
    13b4:	00000074 	.word	0x00000074
    13b8:	6666655f 	.word	0x6666655f
    13bc:	43746553 	.word	0x43746553
    13c0:	00006e6f 	.word	0x00006e6f
    13c4:	6d6f635f 	.word	0x6d6f635f
    13c8:	00000000 	.word	0x00000000
    13cc:	7274735f 	.word	0x7274735f
    13d0:	006d6f43 	.word	0x006d6f43
    13d4:	616c705f 	.word	0x616c705f
    13d8:	00000074 	.word	0x00000074
    13dc:	00000000 	.word	0x00000000
    13e0:	616c705f 	.word	0x616c705f
    13e4:	00784574 	.word	0x00784574
    13e8:	00000000 	.word	0x00000000
    13ec:	696e695f 	.word	0x696e695f
    13f0:	74654e74 	.word	0x74654e74
	...
    13fc:	6f6c635f 	.word	0x6f6c635f
    1400:	654e6573 	.word	0x654e6573
    1404:	00000074 	.word	0x00000074
    1408:	00000000 	.word	0x00000000
    140c:	6d69745f 	.word	0x6d69745f
    1410:	74537265 	.word	0x74537265
    1414:	00747261 	.word	0x00747261
    1418:	6d69745f 	.word	0x6d69745f
    141c:	74537265 	.word	0x74537265
    1420:	0000706f 	.word	0x0000706f
    1424:	6d73645f 	.word	0x6d73645f
    1428:	00000000 	.word	0x00000000
    142c:	5f726d5f 	.word	0x5f726d5f
    1430:	72746e65 	.word	0x72746e65
    1434:	00000079 	.word	0x00000079
    1438:	000005e0 	.word	0x000005e0
    143c:	00000460 	.word	0x00000460
    1440:	5f726d5f 	.word	0x5f726d5f
    1444:	61726170 	.word	0x61726170
    1448:	0000006d 	.word	0x0000006d
    144c:	74696e69 	.word	0x74696e69
    1450:	69616620 	.word	0x69616620
    1454:	0064656c 	.word	0x0064656c
    1458:	70747468 	.word	0x70747468
    145c:	772f2f3a 	.word	0x772f2f3a
    1460:	732e7061 	.word	0x732e7061
    1464:	67656d6b 	.word	0x67656d6b
    1468:	6d6f632e 	.word	0x6d6f632e
    146c:	6d73642f 	.word	0x6d73642f
    1470:	2f706157 	.word	0x2f706157
    1474:	6f727265 	.word	0x6f727265
    1478:	736a2e72 	.word	0x736a2e72
    147c:	00000070 	.word	0x00000070

Disassembly of section i.mr_start_dsm_ex:

00000000 <mr_start_dsm_ex>:
   0:	e92d403e 	push	{r1, r2, r3, r4, r5, lr}
   4:	e1a04000 	mov	r4, r0
   8:	e1a0000d 	mov	r0, sp
   c:	e1a05001 	mov	r5, r1
  10:	ebfffffe 	bl	0 <mr_getScreenInfo>
  14:	e3500000 	cmp	r0, #0
  18:	13e00000 	mvnne	r0, #0
  1c:	1a000026 	bne	bc <mr_start_dsm_ex+0xbc>
  20:	e59f0098 	ldr	r0, [pc, #152]	; c0 <mr_start_dsm_ex+0xc0>
  24:	e59d1000 	ldr	r1, [sp]
  28:	e5801044 	str	r1, [r0, #68]	; 0x44
  2c:	e59d1004 	ldr	r1, [sp, #4]
  30:	e5801048 	str	r1, [r0, #72]	; 0x48
  34:	e59d1008 	ldr	r1, [sp, #8]
  38:	e580104c 	str	r1, [r0, #76]	; 0x4c
  3c:	e59f0080 	ldr	r0, [pc, #128]	; c4 <mr_start_dsm_ex+0xc4>
  40:	e3a01080 	mov	r1, #128	; 0x80
  44:	ebfffffe 	bl	0 <__aeabi_memclr4>
  48:	e3540000 	cmp	r4, #0
  4c:	0a00000b 	beq	80 <mr_start_dsm_ex+0x80>
  50:	e5d40000 	ldrb	r0, [r4]
  54:	e350002a 	cmp	r0, #42	; 0x2a
  58:	01a01004 	moveq	r1, r4
  5c:	0a000008 	beq	84 <mr_start_dsm_ex+0x84>
  60:	e3500025 	cmp	r0, #37	; 0x25
  64:	02841001 	addeq	r1, r4, #1
  68:	0a000005 	beq	84 <mr_start_dsm_ex+0x84>
  6c:	e3500023 	cmp	r0, #35	; 0x23
  70:	05d40001 	ldrbeq	r0, [r4, #1]
  74:	0350003c 	cmpeq	r0, #60	; 0x3c
  78:	02841002 	addeq	r1, r4, #2
  7c:	0a000000 	beq	84 <mr_start_dsm_ex+0x84>
  80:	e28f1040 	add	r1, pc, #64	; 0x40
  84:	e59f0038 	ldr	r0, [pc, #56]	; c4 <mr_start_dsm_ex+0xc4>
  88:	ebfffffe 	bl	0 <strcpy>
  8c:	e59f0038 	ldr	r0, [pc, #56]	; cc <mr_start_dsm_ex+0xcc>
  90:	e3a01080 	mov	r1, #128	; 0x80
  94:	ebfffffe 	bl	0 <__aeabi_memclr4>
  98:	e59f0030 	ldr	r0, [pc, #48]	; d0 <mr_start_dsm_ex+0xd0>
  9c:	e3a01080 	mov	r1, #128	; 0x80
  a0:	ebfffffe 	bl	0 <__aeabi_memclr4>
  a4:	e59f0028 	ldr	r0, [pc, #40]	; d4 <mr_start_dsm_ex+0xd4>
  a8:	e3a01080 	mov	r1, #128	; 0x80
  ac:	ebfffffe 	bl	0 <__aeabi_memclr4>
  b0:	e1a01005 	mov	r1, r5
  b4:	e28f001c 	add	r0, pc, #28
  b8:	ebfffffe 	bl	0 <mr_start_dsm_ex>
  bc:	e8bd803e 	pop	{r1, r2, r3, r4, r5, pc}
  c0:	00000000 	.word	0x00000000
  c4:	00000360 	.word	0x00000360
  c8:	0000412a 	.word	0x0000412a
  cc:	000004e0 	.word	0x000004e0
  d0:	00000560 	.word	0x00000560
  d4:	00000460 	.word	0x00000460
  d8:	72617473 	.word	0x72617473
  dc:	726d2e74 	.word	0x726d2e74
  e0:	00000000 	.word	0x00000000

Disassembly of section i.mr_start_dsmB:

00000000 <mr_start_dsmB>:
   0:	e92d403e 	push	{r1, r2, r3, r4, r5, lr}
   4:	e1a04000 	mov	r4, r0
   8:	e1a0000d 	mov	r0, sp
   c:	ebfffffe 	bl	0 <mr_getScreenInfo>
  10:	e3500000 	cmp	r0, #0
  14:	13e00000 	mvnne	r0, #0
  18:	1a000034 	bne	f0 <mr_start_dsmB+0xf0>
  1c:	e59f00d8 	ldr	r0, [pc, #216]	; fc <mr_start_dsmB+0xfc>
  20:	e59d1000 	ldr	r1, [sp]
  24:	e5801044 	str	r1, [r0, #68]	; 0x44
  28:	e59d1004 	ldr	r1, [sp, #4]
  2c:	e5801048 	str	r1, [r0, #72]	; 0x48
  30:	e59d1008 	ldr	r1, [sp, #8]
  34:	e580104c 	str	r1, [r0, #76]	; 0x4c
  38:	e59f00c0 	ldr	r0, [pc, #192]	; 100 <mr_start_dsmB+0x100>
  3c:	e3a01080 	mov	r1, #128	; 0x80
  40:	ebfffffe 	bl	0 <__aeabi_memclr4>
  44:	e3540000 	cmp	r4, #0
  48:	0a000029 	beq	f4 <mr_start_dsmB+0xf4>
  4c:	e5d40000 	ldrb	r0, [r4]
  50:	e350002a 	cmp	r0, #42	; 0x2a
  54:	01a01004 	moveq	r1, r4
  58:	0a000014 	beq	b0 <mr_start_dsmB+0xb0>
  5c:	e3500025 	cmp	r0, #37	; 0x25
  60:	1a00000d 	bne	9c <mr_start_dsmB+0x9c>
  64:	e3a0102c 	mov	r1, #44	; 0x2c
  68:	e1a00004 	mov	r0, r4
  6c:	ebfffffe 	bl	0 <strchr>
  70:	e1b05000 	movs	r5, r0
  74:	02841001 	addeq	r1, r4, #1
  78:	0a00000c 	beq	b0 <mr_start_dsmB+0xb0>
  7c:	e3a00000 	mov	r0, #0
  80:	e5c50000 	strb	r0, [r5]
  84:	e59f0074 	ldr	r0, [pc, #116]	; 100 <mr_start_dsmB+0x100>
  88:	e2841001 	add	r1, r4, #1
  8c:	ebfffffe 	bl	0 <strcpy>
  90:	e3a0002c 	mov	r0, #44	; 0x2c
  94:	e5c50000 	strb	r0, [r5]
  98:	ea000006 	b	b8 <mr_start_dsmB+0xb8>
  9c:	e3500023 	cmp	r0, #35	; 0x23
  a0:	05d40001 	ldrbeq	r0, [r4, #1]
  a4:	0350003c 	cmpeq	r0, #60	; 0x3c
  a8:	1a000011 	bne	f4 <mr_start_dsmB+0xf4>
  ac:	e2841002 	add	r1, r4, #2
  b0:	e59f0048 	ldr	r0, [pc, #72]	; 100 <mr_start_dsmB+0x100>
  b4:	ebfffffe 	bl	0 <strcpy>
  b8:	e59f0040 	ldr	r0, [pc, #64]	; 100 <mr_start_dsmB+0x100>
  bc:	ebfffffe 	bl	0 <mr_printf>
  c0:	e59f003c 	ldr	r0, [pc, #60]	; 104 <mr_start_dsmB+0x104>
  c4:	e3a01080 	mov	r1, #128	; 0x80
  c8:	ebfffffe 	bl	0 <__aeabi_memclr4>
  cc:	e59f0034 	ldr	r0, [pc, #52]	; 108 <mr_start_dsmB+0x108>
  d0:	e3a01080 	mov	r1, #128	; 0x80
  d4:	ebfffffe 	bl	0 <__aeabi_memclr4>
  d8:	e59f002c 	ldr	r0, [pc, #44]	; 10c <mr_start_dsmB+0x10c>
  dc:	e3a01080 	mov	r1, #128	; 0x80
  e0:	ebfffffe 	bl	0 <__aeabi_memclr4>
  e4:	e1a01004 	mov	r1, r4
  e8:	e28f0020 	add	r0, pc, #32
  ec:	ebfffffe 	bl	0 <mr_start_dsmB>
  f0:	e8bd803e 	pop	{r1, r2, r3, r4, r5, pc}
  f4:	e28f1020 	add	r1, pc, #32
  f8:	eaffffec 	b	b0 <mr_start_dsmB+0xb0>
  fc:	00000000 	.word	0x00000000
 100:	00000360 	.word	0x00000360
 104:	000004e0 	.word	0x000004e0
 108:	00000560 	.word	0x00000560
 10c:	00000460 	.word	0x00000460
 110:	72617473 	.word	0x72617473
 114:	726d2e74 	.word	0x726d2e74
 118:	00000000 	.word	0x00000000
 11c:	0000412a 	.word	0x0000412a

Disassembly of section i.mr_start_dsm:

00000000 <mr_start_dsm>:
   0:	e92d403e 	push	{r1, r2, r3, r4, r5, lr}
   4:	e1a04000 	mov	r4, r0
   8:	e1a0000d 	mov	r0, sp
   c:	ebfffffe 	bl	0 <mr_getScreenInfo>
  10:	e3500000 	cmp	r0, #0
  14:	13e00000 	mvnne	r0, #0
  18:	1a000028 	bne	c0 <mr_start_dsm+0xc0>
  1c:	e59f00a0 	ldr	r0, [pc, #160]	; c4 <mr_start_dsm+0xc4>
  20:	e59d1000 	ldr	r1, [sp]
  24:	e5801044 	str	r1, [r0, #68]	; 0x44
  28:	e59d1004 	ldr	r1, [sp, #4]
  2c:	e5801048 	str	r1, [r0, #72]	; 0x48
  30:	e59d1008 	ldr	r1, [sp, #8]
  34:	e580104c 	str	r1, [r0, #76]	; 0x4c
  38:	e59f0088 	ldr	r0, [pc, #136]	; c8 <mr_start_dsm+0xc8>
  3c:	e3a01080 	mov	r1, #128	; 0x80
  40:	ebfffffe 	bl	0 <__aeabi_memclr4>
  44:	e3540000 	cmp	r4, #0
  48:	0a00000b 	beq	7c <mr_start_dsm+0x7c>
  4c:	e5d40000 	ldrb	r0, [r4]
  50:	e350002a 	cmp	r0, #42	; 0x2a
  54:	01a01004 	moveq	r1, r4
  58:	0a000008 	beq	80 <mr_start_dsm+0x80>
  5c:	e3500025 	cmp	r0, #37	; 0x25
  60:	02841001 	addeq	r1, r4, #1
  64:	0a000005 	beq	80 <mr_start_dsm+0x80>
  68:	e3500023 	cmp	r0, #35	; 0x23
  6c:	05d40001 	ldrbeq	r0, [r4, #1]
  70:	0350003c 	cmpeq	r0, #60	; 0x3c
  74:	02841002 	addeq	r1, r4, #2
  78:	0a000000 	beq	80 <mr_start_dsm+0x80>
  7c:	e28f1048 	add	r1, pc, #72	; 0x48
  80:	e59f0040 	ldr	r0, [pc, #64]	; c8 <mr_start_dsm+0xc8>
  84:	ebfffffe 	bl	0 <strcpy>
  88:	e59f0038 	ldr	r0, [pc, #56]	; c8 <mr_start_dsm+0xc8>
  8c:	ebfffffe 	bl	0 <mr_printf>
  90:	e59f0038 	ldr	r0, [pc, #56]	; d0 <mr_start_dsm+0xd0>
  94:	e3a01080 	mov	r1, #128	; 0x80
  98:	ebfffffe 	bl	0 <__aeabi_memclr4>
  9c:	e59f0030 	ldr	r0, [pc, #48]	; d4 <mr_start_dsm+0xd4>
  a0:	e3a01080 	mov	r1, #128	; 0x80
  a4:	ebfffffe 	bl	0 <__aeabi_memclr4>
  a8:	e59f0028 	ldr	r0, [pc, #40]	; d8 <mr_start_dsm+0xd8>
  ac:	e3a01080 	mov	r1, #128	; 0x80
  b0:	ebfffffe 	bl	0 <__aeabi_memclr4>
  b4:	e1a01004 	mov	r1, r4
  b8:	e28f001c 	add	r0, pc, #28
  bc:	ebfffffe 	bl	0 <mr_start_dsm>
  c0:	e8bd803e 	pop	{r1, r2, r3, r4, r5, pc}
  c4:	00000000 	.word	0x00000000
  c8:	00000360 	.word	0x00000360
  cc:	0000412a 	.word	0x0000412a
  d0:	000004e0 	.word	0x000004e0
  d4:	00000560 	.word	0x00000560
  d8:	00000460 	.word	0x00000460
  dc:	72617473 	.word	0x72617473
  e0:	726d2e74 	.word	0x726d2e74
  e4:	00000000 	.word	0x00000000

Disassembly of section i.mr_pauseApp:

00000000 <mr_pauseApp>:
   0:	e92d4070 	push	{r4, r5, r6, lr}
   4:	e59f40a8 	ldr	r4, [pc, #168]	; b4 <mr_pauseApp+0xb4>
   8:	e3a05000 	mov	r5, #0
   c:	e5940004 	ldr	r0, [r4, #4]
  10:	e3500001 	cmp	r0, #1
  14:	1a000016 	bne	74 <mr_pauseApp+0x74>
  18:	e3a05002 	mov	r5, #2
  1c:	e5845004 	str	r5, [r4, #4]
  20:	e5940030 	ldr	r0, [r4, #48]	; 0x30
  24:	e3500000 	cmp	r0, #0
  28:	0a000002 	beq	38 <mr_pauseApp+0x38>
  2c:	e12fff30 	blx	r0
  30:	e3500001 	cmp	r0, #1
  34:	18bd8070 	popne	{r4, r5, r6, pc}
  38:	e594003c 	ldr	r0, [r4, #60]	; 0x3c
  3c:	e28f1074 	add	r1, pc, #116	; 0x74
  40:	ebfffffe 	bl	0 <mrp_pushstring>
  44:	e59f1074 	ldr	r1, [pc, #116]	; c0 <mr_pauseApp+0xc0>
  48:	e594003c 	ldr	r0, [r4, #60]	; 0x3c
  4c:	ebfffffe 	bl	0 <mrp_gettable>
  50:	e594003c 	ldr	r0, [r4, #60]	; 0x3c
  54:	e3e01000 	mvn	r1, #0
  58:	ebfffffe 	bl	0 <mrp_type>
  5c:	e3500006 	cmp	r0, #6
  60:	1a000009 	bne	8c <mr_pauseApp+0x8c>
  64:	e3a01000 	mov	r1, #0
  68:	e3a00000 	mov	r0, #0
  6c:	ebfffffe 	bl	0 <mr_pauseApp>
  70:	ea000008 	b	98 <mr_pauseApp+0x98>
  74:	e3500003 	cmp	r0, #3
  78:	13a00001 	movne	r0, #1
  7c:	18bd8070 	popne	{r4, r5, r6, pc}
  80:	ebfffffe 	bl	0 <mr_timerStop>
  84:	e584500c 	str	r5, [r4, #12]
  88:	ea000007 	b	ac <mr_pauseApp+0xac>
  8c:	e594003c 	ldr	r0, [r4, #60]	; 0x3c
  90:	e3e01001 	mvn	r1, #1
  94:	ebfffffe 	bl	0 <mrp_settop>
  98:	e5940010 	ldr	r0, [r4, #16]
  9c:	e3500000 	cmp	r0, #0
  a0:	0594000c 	ldreq	r0, [r4, #12]
  a4:	03500001 	cmpeq	r0, #1
  a8:	0afffff4 	beq	80 <mr_pauseApp+0x80>
  ac:	e3a00000 	mov	r0, #0
  b0:	e8bd8070 	pop	{r4, r5, r6, pc}
  b4:	00000000 	.word	0x00000000
  b8:	70737573 	.word	0x70737573
  bc:	00646e65 	.word	0x00646e65
  c0:	ffffd8ef 	.word	0xffffd8ef

Disassembly of section i.mr_resumeApp:

00000000 <mr_resumeApp>:
   0:	e92d4070 	push	{r4, r5, r6, lr}
   4:	e59f40ac 	ldr	r4, [pc, #172]	; b8 <mr_resumeApp+0xb8>
   8:	e3a05001 	mov	r5, #1
   c:	e5940004 	ldr	r0, [r4, #4]
  10:	e3500002 	cmp	r0, #2
  14:	1a000015 	bne	70 <mr_resumeApp+0x70>
  18:	e5845004 	str	r5, [r4, #4]
  1c:	e5940034 	ldr	r0, [r4, #52]	; 0x34
  20:	e3500000 	cmp	r0, #0
  24:	0a000002 	beq	34 <mr_resumeApp+0x34>
  28:	e12fff30 	blx	r0
  2c:	e3500001 	cmp	r0, #1
  30:	18bd8070 	popne	{r4, r5, r6, pc}
  34:	e594003c 	ldr	r0, [r4, #60]	; 0x3c
  38:	e28f107c 	add	r1, pc, #124	; 0x7c
  3c:	ebfffffe 	bl	0 <mrp_pushstring>
  40:	e59f107c 	ldr	r1, [pc, #124]	; c4 <mr_resumeApp+0xc4>
  44:	e594003c 	ldr	r0, [r4, #60]	; 0x3c
  48:	ebfffffe 	bl	0 <mrp_gettable>
  4c:	e594003c 	ldr	r0, [r4, #60]	; 0x3c
  50:	e3e01000 	mvn	r1, #0
  54:	ebfffffe 	bl	0 <mrp_type>
  58:	e3500006 	cmp	r0, #6
  5c:	1a00000a 	bne	8c <mr_resumeApp+0x8c>
  60:	e3a01000 	mov	r1, #0
  64:	e3a00000 	mov	r0, #0
  68:	ebfffffe 	bl	0 <mr_resumeApp>
  6c:	ea000009 	b	98 <mr_resumeApp+0x98>
  70:	e3500003 	cmp	r0, #3
  74:	13a00001 	movne	r0, #1
  78:	18bd8070 	popne	{r4, r5, r6, pc}
  7c:	e28f0044 	add	r0, pc, #68	; 0x44
  80:	e5840050 	str	r0, [r4, #80]	; 0x50
  84:	e3a00064 	mov	r0, #100	; 0x64
  88:	ea000006 	b	a8 <mr_resumeApp+0xa8>
  8c:	e594003c 	ldr	r0, [r4, #60]	; 0x3c
  90:	e3e01001 	mvn	r1, #1
  94:	ebfffffe 	bl	0 <mrp_settop>
  98:	e594000c 	ldr	r0, [r4, #12]
  9c:	e3500002 	cmp	r0, #2
  a0:	1a000002 	bne	b0 <mr_resumeApp+0xb0>
  a4:	e3a00f4b 	mov	r0, #300	; 0x12c
  a8:	ebfffffe 	bl	0 <mr_timerStart>
  ac:	e584500c 	str	r5, [r4, #12]
  b0:	e3a00000 	mov	r0, #0
  b4:	e8bd8070 	pop	{r4, r5, r6, pc}
  b8:	00000000 	.word	0x00000000
  bc:	75736572 	.word	0x75736572
  c0:	0000656d 	.word	0x0000656d
  c4:	ffffd8ef 	.word	0xffffd8ef
  c8:	74736572 	.word	0x74736572
  cc:	00747261 	.word	0x00747261

Disassembly of section i.mr_event:

00000000 <mr_event>:
   0:	e92d41f0 	push	{r4, r5, r6, r7, r8, lr}
   4:	e59f40d0 	ldr	r4, [pc, #208]	; dc <mr_event+0xdc>
   8:	e1a05000 	mov	r5, r0
   c:	e5940004 	ldr	r0, [r4, #4]
  10:	e1a07002 	mov	r7, r2
  14:	e3500001 	cmp	r0, #1
  18:	e1a06001 	mov	r6, r1
  1c:	0a000004 	beq	34 <mr_event+0x34>
  20:	e5941010 	ldr	r1, [r4, #16]
  24:	e3510000 	cmp	r1, #0
  28:	0a000029 	beq	d4 <mr_event+0xd4>
  2c:	e3500002 	cmp	r0, #2
  30:	1a000027 	bne	d4 <mr_event+0xd4>
  34:	e5943024 	ldr	r3, [r4, #36]	; 0x24
  38:	e3530000 	cmp	r3, #0
  3c:	0a000005 	beq	58 <mr_event+0x58>
  40:	e1a02007 	mov	r2, r7
  44:	e1a01006 	mov	r1, r6
  48:	e1a00005 	mov	r0, r5
  4c:	e12fff33 	blx	r3
  50:	e3500001 	cmp	r0, #1
  54:	18bd81f0 	popne	{r4, r5, r6, r7, r8, pc}
  58:	e594003c 	ldr	r0, [r4, #60]	; 0x3c
  5c:	e28f107c 	add	r1, pc, #124	; 0x7c
  60:	ebfffffe 	bl	0 <mrp_pushstring>
  64:	e59f1080 	ldr	r1, [pc, #128]	; ec <mr_event+0xec>
  68:	e594003c 	ldr	r0, [r4, #60]	; 0x3c
  6c:	ebfffffe 	bl	0 <mrp_gettable>
  70:	e594003c 	ldr	r0, [r4, #60]	; 0x3c
  74:	e3e01000 	mvn	r1, #0
  78:	ebfffffe 	bl	0 <mrp_type>
  7c:	e3500006 	cmp	r0, #6
  80:	1a00000c 	bne	b8 <mr_event+0xb8>
  84:	e594003c 	ldr	r0, [r4, #60]	; 0x3c
  88:	e1a01005 	mov	r1, r5
  8c:	ebfffffe 	bl	0 <mrp_pushnumber>
  90:	e594003c 	ldr	r0, [r4, #60]	; 0x3c
  94:	e1a01006 	mov	r1, r6
  98:	ebfffffe 	bl	0 <mrp_pushnumber>
  9c:	e594003c 	ldr	r0, [r4, #60]	; 0x3c
  a0:	e1a01007 	mov	r1, r7
  a4:	ebfffffe 	bl	0 <mrp_pushnumber>
  a8:	e3a01000 	mov	r1, #0
  ac:	e3a00003 	mov	r0, #3
  b0:	ebfffffe 	bl	0 <mr_event>
  b4:	ea000004 	b	cc <mr_event+0xcc>
  b8:	e28f0030 	add	r0, pc, #48	; 0x30
  bc:	ebfffffe 	bl	0 <mr_printf>
  c0:	e594003c 	ldr	r0, [r4, #60]	; 0x3c
  c4:	e3e01001 	mvn	r1, #1
  c8:	ebfffffe 	bl	0 <mrp_settop>
  cc:	e3a00000 	mov	r0, #0
  d0:	e8bd81f0 	pop	{r4, r5, r6, r7, r8, pc}
  d4:	e3a00001 	mov	r0, #1
  d8:	e8bd81f0 	pop	{r4, r5, r6, r7, r8, pc}
  dc:	00000000 	.word	0x00000000
  e0:	6c616564 	.word	0x6c616564
  e4:	6e657665 	.word	0x6e657665
  e8:	00000074 	.word	0x00000074
  ec:	ffffd8ef 	.word	0xffffd8ef
  f0:	6c616564 	.word	0x6c616564
  f4:	6e657665 	.word	0x6e657665
  f8:	73692074 	.word	0x73692074
  fc:	6c696e20 	.word	0x6c696e20
 100:	00000021 	.word	0x00000021

Disassembly of section i.mr_timer:

00000000 <mr_timer>:
   0:	e92d4010 	push	{r4, lr}
   4:	e59f40d4 	ldr	r4, [pc, #212]	; e0 <mr_timer+0xe0>
   8:	e594000c 	ldr	r0, [r4, #12]
   c:	e3500001 	cmp	r0, #1
  10:	0a000002 	beq	20 <mr_timer+0x20>
  14:	e28f00c8 	add	r0, pc, #200	; 0xc8
  18:	ebfffffe 	bl	0 <mr_printf>
  1c:	ea000010 	b	64 <mr_timer+0x64>
  20:	e3a00000 	mov	r0, #0
  24:	e584000c 	str	r0, [r4, #12]
  28:	e5940004 	ldr	r0, [r4, #4]
  2c:	e3500001 	cmp	r0, #1
  30:	0a00000d 	beq	6c <mr_timer+0x6c>
  34:	e5941010 	ldr	r1, [r4, #16]
  38:	e3510000 	cmp	r1, #0
  3c:	0a000001 	beq	48 <mr_timer+0x48>
  40:	e3500002 	cmp	r0, #2
  44:	0a000008 	beq	6c <mr_timer+0x6c>
  48:	e3500003 	cmp	r0, #3
  4c:	1a000004 	bne	64 <mr_timer+0x64>
  50:	ebfffffe 	bl	0 <mr_timer>
  54:	e59f00ac 	ldr	r0, [pc, #172]	; 108 <mr_timer+0x108>
  58:	e3a01000 	mov	r1, #0
  5c:	ebfffffe 	bl	0 <mr_timer>
  60:	ea00001c 	b	d8 <mr_timer+0xd8>
  64:	e3a00001 	mov	r0, #1
  68:	e8bd8010 	pop	{r4, pc}
  6c:	e5940028 	ldr	r0, [r4, #40]	; 0x28
  70:	e3500000 	cmp	r0, #0
  74:	0a000002 	beq	84 <mr_timer+0x84>
  78:	e12fff30 	blx	r0
  7c:	e3500001 	cmp	r0, #1
  80:	18bd8010 	popne	{r4, pc}
  84:	e594003c 	ldr	r0, [r4, #60]	; 0x3c
  88:	e5941050 	ldr	r1, [r4, #80]	; 0x50
  8c:	ebfffffe 	bl	0 <mrp_pushstring>
  90:	e59f1074 	ldr	r1, [pc, #116]	; 10c <mr_timer+0x10c>
  94:	e594003c 	ldr	r0, [r4, #60]	; 0x3c
  98:	ebfffffe 	bl	0 <mrp_gettable>
  9c:	e594003c 	ldr	r0, [r4, #60]	; 0x3c
  a0:	e3e01000 	mvn	r1, #0
  a4:	ebfffffe 	bl	0 <mrp_type>
  a8:	e3500006 	cmp	r0, #6
  ac:	1a000003 	bne	c0 <mr_timer+0xc0>
  b0:	e3a01000 	mov	r1, #0
  b4:	e3a00000 	mov	r0, #0
  b8:	ebfffffe 	bl	0 <mr_timer>
  bc:	ea000005 	b	d8 <mr_timer+0xd8>
  c0:	e5941050 	ldr	r1, [r4, #80]	; 0x50
  c4:	e28f0044 	add	r0, pc, #68	; 0x44
  c8:	ebfffffe 	bl	0 <mr_printf>
  cc:	e594003c 	ldr	r0, [r4, #60]	; 0x3c
  d0:	e3e01001 	mvn	r1, #1
  d4:	ebfffffe 	bl	0 <mrp_settop>
  d8:	e3a00000 	mov	r0, #0
  dc:	e8bd8010 	pop	{r4, pc}
  e0:	00000000 	.word	0x00000000
  e4:	6e726177 	.word	0x6e726177
  e8:	3a676e69 	.word	0x3a676e69
  ec:	745f726d 	.word	0x745f726d
  f0:	72656d69 	.word	0x72656d69
  f4:	65766520 	.word	0x65766520
  f8:	7520746e 	.word	0x7520746e
  fc:	7078656e 	.word	0x7078656e
 100:	65746365 	.word	0x65746365
 104:	00002164 	.word	0x00002164
 108:	000003e0 	.word	0x000003e0
 10c:	ffffd8ef 	.word	0xffffd8ef
 110:	656d6974 	.word	0x656d6974
 114:	75662072 	.word	0x75662072
 118:	6974636e 	.word	0x6974636e
 11c:	22206e6f 	.word	0x22206e6f
 120:	69227325 	.word	0x69227325
 124:	696e2073 	.word	0x696e2073
 128:	0000216c 	.word	0x0000216c

Disassembly of section i.mr_registerAPP:

00000000 <mr_registerAPP>:
   0:	e3520032 	cmp	r2, #50	; 0x32
   4:	e92d4010 	push	{r4, lr}
   8:	2a000003 	bcs	1c <mr_registerAPP+0x1c>
   c:	e59f1018 	ldr	r1, [pc, #24]	; 2c <mr_registerAPP+0x2c>
  10:	e7810102 	str	r0, [r1, r2, lsl #2]
  14:	e3a00000 	mov	r0, #0
  18:	e8bd8010 	pop	{r4, pc}
  1c:	e28f000c 	add	r0, pc, #12
  20:	ebfffffe 	bl	0 <mr_printf>
  24:	e3e00000 	mvn	r0, #0
  28:	e8bd8010 	pop	{r4, pc}
  2c:	00000000 	.word	0x00000000
  30:	725f726d 	.word	0x725f726d
  34:	73696765 	.word	0x73696765
  38:	41726574 	.word	0x41726574
  3c:	65205050 	.word	0x65205050
  40:	00217272 	.word	0x00217272

Disassembly of section i.mr_transBMP:

00000000 <mr_transBMP>:
   0:	e3a0100b 	mov	r1, #11
   4:	e0000091 	mul	r0, r1, r0
   8:	e59f1004 	ldr	r1, [pc, #4]	; 14 <mr_transBMP+0x14>
   c:	e0800001 	add	r0, r0, r1
  10:	e12fff1e 	bx	lr
  14:	01234abc 	.word	0x01234abc

Disassembly of section i._mr_smsCheckNum:

00000000 <_mr_smsCheckNum>:
   0:	e92d4030 	push	{r4, r5, lr}
   4:	e1a04000 	mov	r4, r0
   8:	e28f00b4 	add	r0, pc, #180	; 0xb4
   c:	e24dd044 	sub	sp, sp, #68	; 0x44
  10:	e3e05000 	mvn	r5, #0
  14:	ebfffffe 	bl	0 <mr_printf>
  18:	e3a01020 	mov	r1, #32
  1c:	e28d0024 	add	r0, sp, #36	; 0x24
  20:	ebfffffe 	bl	0 <__aeabi_memclr4>
  24:	e5d40000 	ldrb	r0, [r4]
  28:	e350002b 	cmp	r0, #43	; 0x2b
  2c:	1a000007 	bne	50 <_mr_smsCheckNum+0x50>
  30:	e5d40001 	ldrb	r0, [r4, #1]
  34:	e3500038 	cmp	r0, #56	; 0x38
  38:	05d40002 	ldrbeq	r0, [r4, #2]
  3c:	03500036 	cmpeq	r0, #54	; 0x36
  40:	02841003 	addeq	r1, r4, #3
  44:	0a000006 	beq	64 <_mr_smsCheckNum+0x64>
  48:	e1a01004 	mov	r1, r4
  4c:	ea000004 	b	64 <_mr_smsCheckNum+0x64>
  50:	e3500038 	cmp	r0, #56	; 0x38
  54:	05d40001 	ldrbeq	r0, [r4, #1]
  58:	03500036 	cmpeq	r0, #54	; 0x36
  5c:	1afffff9 	bne	48 <_mr_smsCheckNum+0x48>
  60:	e2841002 	add	r1, r4, #2
  64:	e28d0024 	add	r0, sp, #36	; 0x24
  68:	ebfffffe 	bl	0 <strcpy>
  6c:	e3a04000 	mov	r4, #0
  70:	e3a01020 	mov	r1, #32
  74:	e28d0004 	add	r0, sp, #4
  78:	ebfffffe 	bl	0 <__aeabi_memclr4>
  7c:	e28d1004 	add	r1, sp, #4
  80:	e1a00004 	mov	r0, r4
  84:	ebfffffe 	bl	0 <_mr_smsCheckNum>
  88:	e5dd0004 	ldrb	r0, [sp, #4]
  8c:	e3500000 	cmp	r0, #0
  90:	0a000005 	beq	ac <_mr_smsCheckNum+0xac>
  94:	e28d1024 	add	r1, sp, #36	; 0x24
  98:	e28d0004 	add	r0, sp, #4
  9c:	ebfffffe 	bl	0 <strcmp>
  a0:	e3500000 	cmp	r0, #0
  a4:	03a05000 	moveq	r5, #0
  a8:	0a000002 	beq	b8 <_mr_smsCheckNum+0xb8>
  ac:	e2844001 	add	r4, r4, #1
  b0:	e3540007 	cmp	r4, #7
  b4:	baffffed 	blt	70 <_mr_smsCheckNum+0x70>
  b8:	e1a00005 	mov	r0, r5
  bc:	e28dd044 	add	sp, sp, #68	; 0x44
  c0:	e8bd8030 	pop	{r4, r5, pc}
  c4:	5f726d5f 	.word	0x5f726d5f
  c8:	43736d73 	.word	0x43736d73
  cc:	6b636568 	.word	0x6b636568
  d0:	006d754e 	.word	0x006d754e

Disassembly of section i.mr_save_mrp:

00000000 <mr_save_mrp>:
   0:	e92d407f 	push	{r0, r1, r2, r3, r4, r5, r6, lr}
   4:	e1b04000 	movs	r4, r0
   8:	e1a05001 	mov	r5, r1
   c:	13550000 	cmpne	r5, #0
  10:	1a000002 	bne	20 <mr_save_mrp+0x20>
  14:	e3e00000 	mvn	r0, #0
  18:	e28dd010 	add	sp, sp, #16
  1c:	e8bd8070 	pop	{r4, r5, r6, pc}
  20:	e5d40000 	ldrb	r0, [r4]
  24:	e350004d 	cmp	r0, #77	; 0x4d
  28:	05d40001 	ldrbeq	r0, [r4, #1]
  2c:	03500052 	cmpeq	r0, #82	; 0x52
  30:	05d40002 	ldrbeq	r0, [r4, #2]
  34:	03500050 	cmpeq	r0, #80	; 0x50
  38:	05d40003 	ldrbeq	r0, [r4, #3]
  3c:	03500047 	cmpeq	r0, #71	; 0x47
  40:	13a00001 	movne	r0, #1
  44:	1afffff3 	bne	18 <mr_save_mrp+0x18>
  48:	e1a0000d 	mov	r0, sp
  4c:	e3a01000 	mov	r1, #0
  50:	e3a02000 	mov	r2, #0
  54:	e8a00006 	stmia	r0!, {r1, r2}
  58:	e8800006 	stm	r0, {r1, r2}
  5c:	e3a0200c 	mov	r2, #12
  60:	e2841010 	add	r1, r4, #16
  64:	e2400008 	sub	r0, r0, #8
  68:	ebfffffe 	bl	0 <__aeabi_memcpy>
  6c:	e1a0000d 	mov	r0, sp
  70:	ebfffffe 	bl	0 <mr_remove>
  74:	e3a0100a 	mov	r1, #10
  78:	e1a0000d 	mov	r0, sp
  7c:	ebfffffe 	bl	0 <mr_open>
  80:	e1b06000 	movs	r6, r0
  84:	0a000008 	beq	ac <mr_save_mrp+0xac>
  88:	e1a02005 	mov	r2, r5
  8c:	e1a01004 	mov	r1, r4
  90:	e1a00006 	mov	r0, r6
  94:	ebfffffe 	bl	0 <mr_write>
  98:	e1500005 	cmp	r0, r5
  9c:	0a000002 	beq	ac <mr_save_mrp+0xac>
  a0:	e1a00006 	mov	r0, r6
  a4:	ebfffffe 	bl	0 <mr_close>
  a8:	eaffffd9 	b	14 <mr_save_mrp+0x14>
  ac:	e1a00006 	mov	r0, r6
  b0:	ebfffffe 	bl	0 <mr_close>
  b4:	e3a00000 	mov	r0, #0
  b8:	eaffffd6 	b	18 <mr_save_mrp+0x18>

Disassembly of section i.FF_Divide:

00000000 <FF_Divide>:
   0:	e92d4070 	push	{r4, r5, r6, lr}
   4:	e1b05001 	movs	r5, r1
   8:	e1a06000 	mov	r6, r0
   c:	03e00102 	mvneq	r0, #-2147483648	; 0x80000000
  10:	08bd8070 	popeq	{r4, r5, r6, pc}
  14:	e2560000 	subs	r0, r6, #0
  18:	b2600000 	rsblt	r0, r0, #0
  1c:	e2554000 	subs	r4, r5, #0
  20:	b2644000 	rsblt	r4, r4, #0
  24:	e1a01004 	mov	r1, r4
  28:	ebfffffe 	bl	0 <__aeabi_idivmod>
  2c:	e1a0e081 	lsl	lr, r1, #1
  30:	e3a01000 	mov	r1, #0
  34:	e1a00780 	lsl	r0, r0, #15
  38:	e3a03000 	mov	r3, #0
  3c:	e05e2004 	subs	r2, lr, r4
  40:	41a0200e 	movmi	r2, lr
  44:	e3a0c001 	mov	ip, #1
  48:	43a0c000 	movmi	ip, #0
  4c:	e35c0000 	cmp	ip, #0
  50:	e1a01081 	lsl	r1, r1, #1
  54:	12811001 	addne	r1, r1, #1
  58:	e2833001 	add	r3, r3, #1
  5c:	e353000f 	cmp	r3, #15
  60:	e1a0e082 	lsl	lr, r2, #1
  64:	bafffff4 	blt	3c <FF_Divide+0x3c>
  68:	e3560000 	cmp	r6, #0
  6c:	e0800001 	add	r0, r0, r1
  70:	da000002 	ble	80 <FF_Divide+0x80>
  74:	e3550000 	cmp	r5, #0
  78:	a8bd8070 	popge	{r4, r5, r6, pc}
  7c:	ea000002 	b	8c <FF_Divide+0x8c>
  80:	a8bd8070 	popge	{r4, r5, r6, pc}
  84:	e3550000 	cmp	r5, #0
  88:	d8bd8070 	pople	{r4, r5, r6, pc}
  8c:	e2600000 	rsb	r0, r0, #0
  90:	e8bd8070 	pop	{r4, r5, r6, pc}

Disassembly of section i.setfield:

00000000 <setfield>:
   0:	e92d4070 	push	{r4, r5, r6, lr}
   4:	e1a05000 	mov	r5, r0
   8:	e1a04002 	mov	r4, r2
   c:	ebfffffe 	bl	0 <mrp_pushstring>
  10:	e1a01004 	mov	r1, r4
  14:	e1a00005 	mov	r0, r5
  18:	ebfffffe 	bl	0 <mrp_pushnumber>
  1c:	e1a00005 	mov	r0, r5
  20:	e8bd4070 	pop	{r4, r5, r6, lr}
  24:	e3e01002 	mvn	r1, #2
  28:	eafffffe 	b	0 <mrp_rawset>

Disassembly of section i.setstrfield:

00000000 <setstrfield>:
   0:	e92d4070 	push	{r4, r5, r6, lr}
   4:	e1a05000 	mov	r5, r0
   8:	e1a04002 	mov	r4, r2
   c:	ebfffffe 	bl	0 <mrp_pushstring>
  10:	e1a01004 	mov	r1, r4
  14:	e1a00005 	mov	r0, r5
  18:	ebfffffe 	bl	0 <mrp_pushstring>
  1c:	e1a00005 	mov	r0, r5
  20:	e8bd4070 	pop	{r4, r5, r6, lr}
  24:	e3e01002 	mvn	r1, #2
  28:	eafffffe 	b	0 <mrp_rawset>

Disassembly of section i.setlstrfield:

00000000 <setlstrfield>:
   0:	e92d4070 	push	{r4, r5, r6, lr}
   4:	e1a06000 	mov	r6, r0
   8:	e1a05003 	mov	r5, r3
   c:	e1a04002 	mov	r4, r2
  10:	ebfffffe 	bl	0 <mrp_pushstring>
  14:	e1a02005 	mov	r2, r5
  18:	e1a01004 	mov	r1, r4
  1c:	e1a00006 	mov	r0, r6
  20:	ebfffffe 	bl	0 <mrp_pushlstring>
  24:	e1a00006 	mov	r0, r6
  28:	e8bd4070 	pop	{r4, r5, r6, lr}
  2c:	e3e01002 	mvn	r1, #2
  30:	eafffffe 	b	0 <mrp_rawset>
