
/tmp/arm_lib_analysis/normal/mr_inflate.obj:     file format elf32-littlearm


Disassembly of section .text:

00000000 <huft_free>:
   0:	b510      	push	{r4, lr}
   2:	45d5      	cmp	sp, sl
   4:	d201      	bcs.n	a <huft_free+0xa>
   6:	f7ff fffe 	bl	0 <__rt_stkovf_split_small>
   a:	1c04      	adds	r4, r0, #0
   c:	e005      	b.n	1a <huft_free+0x1a>
   e:	1c20      	adds	r0, r4, #0
  10:	380c      	subs	r0, #12
  12:	6884      	ldr	r4, [r0, #8]
  14:	6801      	ldr	r1, [r0, #0]
  16:	f7ff fffe 	bl	0 <mr_free>
  1a:	2c00      	cmp	r4, #0
  1c:	d1f7      	bne.n	e <huft_free+0xe>
  1e:	2000      	movs	r0, #0
  20:	bd10      	pop	{r4, pc}

00000022 <huft_build>:
  22:	b5ff      	push	{r0, r1, r2, r3, r4, r5, r6, r7, lr}
  24:	4fec      	ldr	r7, [pc, #944]	; (3d8 <huft_build+0x3b6>)
  26:	446f      	add	r7, sp
  28:	4557      	cmp	r7, sl
  2a:	d201      	bcs.n	30 <huft_build+0xe>
  2c:	f7ff fffe 	bl	0 <__rt_stkovf_split_big_t>
  30:	1c0e      	adds	r6, r1, #0
  32:	230b      	movs	r3, #11
  34:	01db      	lsls	r3, r3, #7
  36:	46bd      	mov	sp, r7
  38:	446b      	add	r3, sp
  3a:	6b9c      	ldr	r4, [r3, #56]	; 0x38
  3c:	2144      	movs	r1, #68	; 0x44
  3e:	1c18      	adds	r0, r3, #0
  40:	3854      	subs	r0, #84	; 0x54
  42:	f7ff fffe 	bl	0 <__rt_memclr_w>
  46:	230b      	movs	r3, #11
  48:	01db      	lsls	r3, r3, #7
  4a:	446b      	add	r3, sp
  4c:	68d8      	ldr	r0, [r3, #12]
  4e:	1c31      	adds	r1, r6, #0
  50:	6802      	ldr	r2, [r0, #0]
  52:	4be2      	ldr	r3, [pc, #904]	; (3dc <huft_build+0x3ba>)
  54:	0092      	lsls	r2, r2, #2
  56:	446b      	add	r3, sp
  58:	18d2      	adds	r2, r2, r3
  5a:	6815      	ldr	r5, [r2, #0]
  5c:	3501      	adds	r5, #1
  5e:	6015      	str	r5, [r2, #0]
  60:	3004      	adds	r0, #4
  62:	3901      	subs	r1, #1
  64:	d1f4      	bne.n	50 <huft_build+0x2e>
  66:	2305      	movs	r3, #5
  68:	021b      	lsls	r3, r3, #8
  6a:	446b      	add	r3, sp
  6c:	6ad8      	ldr	r0, [r3, #44]	; 0x2c
  6e:	42b0      	cmp	r0, r6
  70:	d108      	bne.n	84 <huft_build+0x62>
  72:	2000      	movs	r0, #0
  74:	3380      	adds	r3, #128	; 0x80
  76:	6b5a      	ldr	r2, [r3, #52]	; 0x34
  78:	6010      	str	r0, [r2, #0]
  7a:	6020      	str	r0, [r4, #0]
  7c:	b07f      	add	sp, #508	; 0x1fc
  7e:	b07f      	add	sp, #508	; 0x1fc
  80:	b069      	add	sp, #420	; 0x1a4
  82:	bdf0      	pop	{r4, r5, r6, r7, pc}
  84:	2305      	movs	r3, #5
  86:	021b      	lsls	r3, r3, #8
  88:	6820      	ldr	r0, [r4, #0]
  8a:	446b      	add	r3, sp
  8c:	6218      	str	r0, [r3, #32]
  8e:	2101      	movs	r1, #1
  90:	4ad2      	ldr	r2, [pc, #840]	; (3dc <huft_build+0x3ba>)
  92:	0088      	lsls	r0, r1, #2
  94:	446a      	add	r2, sp
  96:	5810      	ldr	r0, [r2, r0]
  98:	2800      	cmp	r0, #0
  9a:	d102      	bne.n	a2 <huft_build+0x80>
  9c:	3101      	adds	r1, #1
  9e:	2910      	cmp	r1, #16
  a0:	d9f6      	bls.n	90 <huft_build+0x6e>
  a2:	1c0f      	adds	r7, r1, #0
  a4:	2305      	movs	r3, #5
  a6:	021b      	lsls	r3, r3, #8
  a8:	446b      	add	r3, sp
  aa:	6a18      	ldr	r0, [r3, #32]
  ac:	4288      	cmp	r0, r1
  ae:	d200      	bcs.n	b2 <huft_build+0x90>
  b0:	6219      	str	r1, [r3, #32]
  b2:	2010      	movs	r0, #16
  b4:	4bc9      	ldr	r3, [pc, #804]	; (3dc <huft_build+0x3ba>)
  b6:	0082      	lsls	r2, r0, #2
  b8:	446b      	add	r3, sp
  ba:	589a      	ldr	r2, [r3, r2]
  bc:	2a00      	cmp	r2, #0
  be:	d101      	bne.n	c4 <huft_build+0xa2>
  c0:	3801      	subs	r0, #1
  c2:	d1f7      	bne.n	b4 <huft_build+0x92>
  c4:	2305      	movs	r3, #5
  c6:	021b      	lsls	r3, r3, #8
  c8:	446b      	add	r3, sp
  ca:	6298      	str	r0, [r3, #40]	; 0x28
  cc:	6a1a      	ldr	r2, [r3, #32]
  ce:	4282      	cmp	r2, r0
  d0:	d900      	bls.n	d4 <huft_build+0xb2>
  d2:	6218      	str	r0, [r3, #32]
  d4:	2305      	movs	r3, #5
  d6:	021b      	lsls	r3, r3, #8
  d8:	446b      	add	r3, sp
  da:	6a1a      	ldr	r2, [r3, #32]
  dc:	6022      	str	r2, [r4, #0]
  de:	2401      	movs	r4, #1
  e0:	408c      	lsls	r4, r1
  e2:	e009      	b.n	f8 <huft_build+0xd6>
  e4:	4bbd      	ldr	r3, [pc, #756]	; (3dc <huft_build+0x3ba>)
  e6:	008a      	lsls	r2, r1, #2
  e8:	446b      	add	r3, sp
  ea:	589a      	ldr	r2, [r3, r2]
  ec:	1aa2      	subs	r2, r4, r2
  ee:	d501      	bpl.n	f4 <huft_build+0xd2>
  f0:	2002      	movs	r0, #2
  f2:	e7c3      	b.n	7c <huft_build+0x5a>
  f4:	3101      	adds	r1, #1
  f6:	0054      	lsls	r4, r2, #1
  f8:	4281      	cmp	r1, r0
  fa:	d3f3      	bcc.n	e4 <huft_build+0xc2>
  fc:	4ab7      	ldr	r2, [pc, #732]	; (3dc <huft_build+0x3ba>)
  fe:	0081      	lsls	r1, r0, #2
 100:	446a      	add	r2, sp
 102:	5852      	ldr	r2, [r2, r1]
 104:	1aa4      	subs	r4, r4, r2
 106:	9402      	str	r4, [sp, #8]
 108:	d501      	bpl.n	10e <huft_build+0xec>
 10a:	2002      	movs	r0, #2
 10c:	e7b6      	b.n	7c <huft_build+0x5a>
 10e:	9c02      	ldr	r4, [sp, #8]
 110:	4bb2      	ldr	r3, [pc, #712]	; (3dc <huft_build+0x3ba>)
 112:	1912      	adds	r2, r2, r4
 114:	446b      	add	r3, sp
 116:	505a      	str	r2, [r3, r1]
 118:	2100      	movs	r1, #0
 11a:	9104      	str	r1, [sp, #16]
 11c:	2253      	movs	r2, #83	; 0x53
 11e:	0112      	lsls	r2, r2, #4
 120:	446a      	add	r2, sp
 122:	ac05      	add	r4, sp, #20
 124:	e002      	b.n	12c <huft_build+0x10a>
 126:	ca20      	ldmia	r2!, {r5}
 128:	1869      	adds	r1, r5, r1
 12a:	c402      	stmia	r4!, {r1}
 12c:	3801      	subs	r0, #1
 12e:	d1fa      	bne.n	126 <huft_build+0x104>
 130:	230b      	movs	r3, #11
 132:	01db      	lsls	r3, r3, #7
 134:	446b      	add	r3, sp
 136:	68d9      	ldr	r1, [r3, #12]
 138:	c904      	ldmia	r1!, {r2}
 13a:	2a00      	cmp	r2, #0
 13c:	d008      	beq.n	150 <huft_build+0x12e>
 13e:	0094      	lsls	r4, r2, #2
 140:	aa03      	add	r2, sp, #12
 142:	5912      	ldr	r2, [r2, r4]
 144:	ab03      	add	r3, sp, #12
 146:	1c55      	adds	r5, r2, #1
 148:	511d      	str	r5, [r3, r4]
 14a:	ab14      	add	r3, sp, #80	; 0x50
 14c:	0092      	lsls	r2, r2, #2
 14e:	5098      	str	r0, [r3, r2]
 150:	3001      	adds	r0, #1
 152:	42b0      	cmp	r0, r6
 154:	d3f0      	bcc.n	138 <huft_build+0x116>
 156:	2500      	movs	r5, #0
 158:	9503      	str	r5, [sp, #12]
 15a:	2305      	movs	r3, #5
 15c:	021b      	lsls	r3, r3, #8
 15e:	446b      	add	r3, sp
 160:	a914      	add	r1, sp, #80	; 0x50
 162:	61d9      	str	r1, [r3, #28]
 164:	43e8      	mvns	r0, r5
 166:	6258      	str	r0, [r3, #36]	; 0x24
 168:	6a18      	ldr	r0, [r3, #32]
 16a:	4244      	negs	r4, r0
 16c:	2000      	movs	r0, #0
 16e:	3b80      	subs	r3, #128	; 0x80
 170:	6518      	str	r0, [r3, #80]	; 0x50
 172:	2100      	movs	r1, #0
 174:	468e      	mov	lr, r1
 176:	9001      	str	r0, [sp, #4]
 178:	3380      	adds	r3, #128	; 0x80
 17a:	6a18      	ldr	r0, [r3, #32]
 17c:	3380      	adds	r3, #128	; 0x80
 17e:	0601      	lsls	r1, r0, #24
 180:	0e09      	lsrs	r1, r1, #24
 182:	6099      	str	r1, [r3, #8]
 184:	a914      	add	r1, sp, #80	; 0x50
 186:	00b0      	lsls	r0, r6, #2
 188:	1840      	adds	r0, r0, r1
 18a:	6058      	str	r0, [r3, #4]
 18c:	e114      	b.n	3b8 <huft_build+0x396>
 18e:	4993      	ldr	r1, [pc, #588]	; (3dc <huft_build+0x3ba>)
 190:	00b8      	lsls	r0, r7, #2
 192:	2305      	movs	r3, #5
 194:	4469      	add	r1, sp
 196:	5809      	ldr	r1, [r1, r0]
 198:	021b      	lsls	r3, r3, #8
 19a:	446b      	add	r3, sp
 19c:	6719      	str	r1, [r3, #112]	; 0x70
 19e:	498f      	ldr	r1, [pc, #572]	; (3dc <huft_build+0x3ba>)
 1a0:	3380      	adds	r3, #128	; 0x80
 1a2:	4469      	add	r1, sp
 1a4:	1842      	adds	r2, r0, r1
 1a6:	2001      	movs	r0, #1
 1a8:	1e79      	subs	r1, r7, #1
 1aa:	4088      	lsls	r0, r1
 1ac:	601a      	str	r2, [r3, #0]
 1ae:	3b80      	subs	r3, #128	; 0x80
 1b0:	67d8      	str	r0, [r3, #124]	; 0x7c
 1b2:	e0f7      	b.n	3a4 <huft_build+0x382>
 1b4:	2305      	movs	r3, #5
 1b6:	021b      	lsls	r3, r3, #8
 1b8:	446b      	add	r3, sp
 1ba:	6f19      	ldr	r1, [r3, #112]	; 0x70
 1bc:	3101      	adds	r1, #1
 1be:	6799      	str	r1, [r3, #120]	; 0x78
 1c0:	e07a      	b.n	2b8 <huft_build+0x296>
 1c2:	2305      	movs	r3, #5
 1c4:	021b      	lsls	r3, r3, #8
 1c6:	446b      	add	r3, sp
 1c8:	6a59      	ldr	r1, [r3, #36]	; 0x24
 1ca:	3101      	adds	r1, #1
 1cc:	6259      	str	r1, [r3, #36]	; 0x24
 1ce:	1c04      	adds	r4, r0, #0
 1d0:	6a99      	ldr	r1, [r3, #40]	; 0x28
 1d2:	1b08      	subs	r0, r1, r4
 1d4:	6a19      	ldr	r1, [r3, #32]
 1d6:	4288      	cmp	r0, r1
 1d8:	d900      	bls.n	1dc <huft_build+0x1ba>
 1da:	6a18      	ldr	r0, [r3, #32]
 1dc:	4684      	mov	ip, r0
 1de:	2305      	movs	r3, #5
 1e0:	021b      	lsls	r3, r3, #8
 1e2:	446b      	add	r3, sp
 1e4:	1b3e      	subs	r6, r7, r4
 1e6:	2001      	movs	r0, #1
 1e8:	6f99      	ldr	r1, [r3, #120]	; 0x78
 1ea:	40b0      	lsls	r0, r6
 1ec:	4288      	cmp	r0, r1
 1ee:	d90d      	bls.n	20c <huft_build+0x1ea>
 1f0:	6f99      	ldr	r1, [r3, #120]	; 0x78
 1f2:	1a40      	subs	r0, r0, r1
 1f4:	3380      	adds	r3, #128	; 0x80
 1f6:	681a      	ldr	r2, [r3, #0]
 1f8:	e005      	b.n	206 <huft_build+0x1e4>
 1fa:	3204      	adds	r2, #4
 1fc:	6811      	ldr	r1, [r2, #0]
 1fe:	0040      	lsls	r0, r0, #1
 200:	4288      	cmp	r0, r1
 202:	d903      	bls.n	20c <huft_build+0x1ea>
 204:	1a40      	subs	r0, r0, r1
 206:	3601      	adds	r6, #1
 208:	4566      	cmp	r6, ip
 20a:	d3f6      	bcc.n	1fa <huft_build+0x1d8>
 20c:	2001      	movs	r0, #1
 20e:	40b0      	lsls	r0, r6
 210:	9001      	str	r0, [sp, #4]
 212:	9801      	ldr	r0, [sp, #4]
 214:	230c      	movs	r3, #12
 216:	4358      	muls	r0, r3
 218:	2305      	movs	r3, #5
 21a:	300c      	adds	r0, #12
 21c:	021b      	lsls	r3, r3, #8
 21e:	446b      	add	r3, sp
 220:	6758      	str	r0, [r3, #116]	; 0x74
 222:	f7ff fffe 	bl	0 <mr_malloc>
 226:	2800      	cmp	r0, #0
 228:	d10b      	bne.n	242 <huft_build+0x220>
 22a:	2305      	movs	r3, #5
 22c:	021b      	lsls	r3, r3, #8
 22e:	446b      	add	r3, sp
 230:	6a58      	ldr	r0, [r3, #36]	; 0x24
 232:	2800      	cmp	r0, #0
 234:	d003      	beq.n	23e <huft_build+0x21c>
 236:	3b80      	subs	r3, #128	; 0x80
 238:	6d18      	ldr	r0, [r3, #80]	; 0x50
 23a:	f7ff fffe 	bl	0 <huft_free>
 23e:	2003      	movs	r0, #3
 240:	e71c      	b.n	7c <huft_build+0x5a>
 242:	2305      	movs	r3, #5
 244:	021b      	lsls	r3, r3, #8
 246:	446b      	add	r3, sp
 248:	6f59      	ldr	r1, [r3, #116]	; 0x74
 24a:	6001      	str	r1, [r0, #0]
 24c:	4a64      	ldr	r2, [pc, #400]	; (3e0 <huft_build+0x3be>)
 24e:	6891      	ldr	r1, [r2, #8]
 250:	9b01      	ldr	r3, [sp, #4]
 252:	18c9      	adds	r1, r1, r3
 254:	3101      	adds	r1, #1
 256:	6091      	str	r1, [r2, #8]
 258:	1c01      	adds	r1, r0, #0
 25a:	310c      	adds	r1, #12
 25c:	230b      	movs	r3, #11
 25e:	01db      	lsls	r3, r3, #7
 260:	446b      	add	r3, sp
 262:	6b5a      	ldr	r2, [r3, #52]	; 0x34
 264:	6011      	str	r1, [r2, #0]
 266:	2200      	movs	r2, #0
 268:	3008      	adds	r0, #8
 26a:	6358      	str	r0, [r3, #52]	; 0x34
 26c:	6002      	str	r2, [r0, #0]
 26e:	3b80      	subs	r3, #128	; 0x80
 270:	6a58      	ldr	r0, [r3, #36]	; 0x24
 272:	1c1a      	adds	r2, r3, #0
 274:	0080      	lsls	r0, r0, #2
 276:	3a30      	subs	r2, #48	; 0x30
 278:	5011      	str	r1, [r2, r0]
 27a:	468e      	mov	lr, r1
 27c:	6a59      	ldr	r1, [r3, #36]	; 0x24
 27e:	2900      	cmp	r1, #0
 280:	d01a      	beq.n	2b8 <huft_build+0x296>
 282:	a903      	add	r1, sp, #12
 284:	500d      	str	r5, [r1, r0]
 286:	3380      	adds	r3, #128	; 0x80
 288:	6899      	ldr	r1, [r3, #8]
 28a:	3b80      	subs	r3, #128	; 0x80
 28c:	7559      	strb	r1, [r3, #21]
 28e:	1c31      	adds	r1, r6, #0
 290:	3110      	adds	r1, #16
 292:	7519      	strb	r1, [r3, #20]
 294:	4671      	mov	r1, lr
 296:	6199      	str	r1, [r3, #24]
 298:	6a19      	ldr	r1, [r3, #32]
 29a:	1a62      	subs	r2, r4, r1
 29c:	1c29      	adds	r1, r5, #0
 29e:	40d1      	lsrs	r1, r2
 2a0:	1c1a      	adds	r2, r3, #0
 2a2:	3a30      	subs	r2, #48	; 0x30
 2a4:	1880      	adds	r0, r0, r2
 2a6:	230c      	movs	r3, #12
 2a8:	3840      	subs	r0, #64	; 0x40
 2aa:	6bc0      	ldr	r0, [r0, #60]	; 0x3c
 2ac:	4359      	muls	r1, r3
 2ae:	1840      	adds	r0, r0, r1
 2b0:	1c11      	adds	r1, r2, #0
 2b2:	3140      	adds	r1, #64	; 0x40
 2b4:	c90e      	ldmia	r1, {r1, r2, r3}
 2b6:	c00e      	stmia	r0!, {r1, r2, r3}
 2b8:	2305      	movs	r3, #5
 2ba:	021b      	lsls	r3, r3, #8
 2bc:	446b      	add	r3, sp
 2be:	6a19      	ldr	r1, [r3, #32]
 2c0:	1860      	adds	r0, r4, r1
 2c2:	42b8      	cmp	r0, r7
 2c4:	da00      	bge.n	2c8 <huft_build+0x2a6>
 2c6:	e77c      	b.n	1c2 <huft_build+0x1a0>
 2c8:	1b3a      	subs	r2, r7, r4
 2ca:	755a      	strb	r2, [r3, #21]
 2cc:	3380      	adds	r3, #128	; 0x80
 2ce:	6858      	ldr	r0, [r3, #4]
 2d0:	3b80      	subs	r3, #128	; 0x80
 2d2:	69d9      	ldr	r1, [r3, #28]
 2d4:	4288      	cmp	r0, r1
 2d6:	d802      	bhi.n	2de <huft_build+0x2bc>
 2d8:	2063      	movs	r0, #99	; 0x63
 2da:	7518      	strb	r0, [r3, #20]
 2dc:	e02d      	b.n	33a <huft_build+0x318>
 2de:	2305      	movs	r3, #5
 2e0:	021b      	lsls	r3, r3, #8
 2e2:	446b      	add	r3, sp
 2e4:	69d9      	ldr	r1, [r3, #28]
 2e6:	3380      	adds	r3, #128	; 0x80
 2e8:	6808      	ldr	r0, [r1, #0]
 2ea:	6959      	ldr	r1, [r3, #20]
 2ec:	4288      	cmp	r0, r1
 2ee:	d20d      	bcs.n	30c <huft_build+0x2ea>
 2f0:	2110      	movs	r1, #16
 2f2:	010b      	lsls	r3, r1, #4
 2f4:	4298      	cmp	r0, r3
 2f6:	d300      	bcc.n	2fa <huft_build+0x2d8>
 2f8:	210f      	movs	r1, #15
 2fa:	2305      	movs	r3, #5
 2fc:	021b      	lsls	r3, r3, #8
 2fe:	446b      	add	r3, sp
 300:	7519      	strb	r1, [r3, #20]
 302:	8318      	strh	r0, [r3, #24]
 304:	69d9      	ldr	r1, [r3, #28]
 306:	3104      	adds	r1, #4
 308:	61d9      	str	r1, [r3, #28]
 30a:	e016      	b.n	33a <huft_build+0x318>
 30c:	230b      	movs	r3, #11
 30e:	01db      	lsls	r3, r3, #7
 310:	446b      	add	r3, sp
 312:	6959      	ldr	r1, [r3, #20]
 314:	6b1b      	ldr	r3, [r3, #48]	; 0x30
 316:	1a41      	subs	r1, r0, r1
 318:	0049      	lsls	r1, r1, #1
 31a:	5a59      	ldrh	r1, [r3, r1]
 31c:	2305      	movs	r3, #5
 31e:	021b      	lsls	r3, r3, #8
 320:	446b      	add	r3, sp
 322:	7519      	strb	r1, [r3, #20]
 324:	69d9      	ldr	r1, [r3, #28]
 326:	3104      	adds	r1, #4
 328:	61d9      	str	r1, [r3, #28]
 32a:	3380      	adds	r3, #128	; 0x80
 32c:	6959      	ldr	r1, [r3, #20]
 32e:	1a40      	subs	r0, r0, r1
 330:	6999      	ldr	r1, [r3, #24]
 332:	0040      	lsls	r0, r0, #1
 334:	5a08      	ldrh	r0, [r1, r0]
 336:	3b80      	subs	r3, #128	; 0x80
 338:	8318      	strh	r0, [r3, #24]
 33a:	2001      	movs	r0, #1
 33c:	4090      	lsls	r0, r2
 33e:	4684      	mov	ip, r0
 340:	1c28      	adds	r0, r5, #0
 342:	40e0      	lsrs	r0, r4
 344:	e009      	b.n	35a <huft_build+0x338>
 346:	210c      	movs	r1, #12
 348:	4341      	muls	r1, r0
 34a:	1c0e      	adds	r6, r1, #0
 34c:	2151      	movs	r1, #81	; 0x51
 34e:	0109      	lsls	r1, r1, #4
 350:	4469      	add	r1, sp
 352:	c90e      	ldmia	r1, {r1, r2, r3}
 354:	4476      	add	r6, lr
 356:	c60e      	stmia	r6!, {r1, r2, r3}
 358:	4460      	add	r0, ip
 35a:	9b01      	ldr	r3, [sp, #4]
 35c:	4298      	cmp	r0, r3
 35e:	d3f2      	bcc.n	346 <huft_build+0x324>
 360:	2201      	movs	r2, #1
 362:	2305      	movs	r3, #5
 364:	021b      	lsls	r3, r3, #8
 366:	446b      	add	r3, sp
 368:	6fd8      	ldr	r0, [r3, #124]	; 0x7c
 36a:	e001      	b.n	370 <huft_build+0x34e>
 36c:	4045      	eors	r5, r0
 36e:	0840      	lsrs	r0, r0, #1
 370:	1c29      	adds	r1, r5, #0
 372:	4001      	ands	r1, r0
 374:	d1fa      	bne.n	36c <huft_build+0x34a>
 376:	4045      	eors	r5, r0
 378:	e007      	b.n	38a <huft_build+0x368>
 37a:	2305      	movs	r3, #5
 37c:	021b      	lsls	r3, r3, #8
 37e:	446b      	add	r3, sp
 380:	6a58      	ldr	r0, [r3, #36]	; 0x24
 382:	3801      	subs	r0, #1
 384:	6258      	str	r0, [r3, #36]	; 0x24
 386:	6a18      	ldr	r0, [r3, #32]
 388:	1a24      	subs	r4, r4, r0
 38a:	2305      	movs	r3, #5
 38c:	021b      	lsls	r3, r3, #8
 38e:	446b      	add	r3, sp
 390:	6a59      	ldr	r1, [r3, #36]	; 0x24
 392:	1c10      	adds	r0, r2, #0
 394:	40a0      	lsls	r0, r4
 396:	ab03      	add	r3, sp, #12
 398:	0089      	lsls	r1, r1, #2
 39a:	5859      	ldr	r1, [r3, r1]
 39c:	3801      	subs	r0, #1
 39e:	4028      	ands	r0, r5
 3a0:	4288      	cmp	r0, r1
 3a2:	d1ea      	bne.n	37a <huft_build+0x358>
 3a4:	2305      	movs	r3, #5
 3a6:	021b      	lsls	r3, r3, #8
 3a8:	446b      	add	r3, sp
 3aa:	6f18      	ldr	r0, [r3, #112]	; 0x70
 3ac:	3801      	subs	r0, #1
 3ae:	6718      	str	r0, [r3, #112]	; 0x70
 3b0:	1c43      	adds	r3, r0, #1
 3b2:	d000      	beq.n	3b6 <huft_build+0x394>
 3b4:	e6fe      	b.n	1b4 <huft_build+0x192>
 3b6:	3701      	adds	r7, #1
 3b8:	2305      	movs	r3, #5
 3ba:	021b      	lsls	r3, r3, #8
 3bc:	446b      	add	r3, sp
 3be:	6a99      	ldr	r1, [r3, #40]	; 0x28
 3c0:	428f      	cmp	r7, r1
 3c2:	dc00      	bgt.n	3c6 <huft_build+0x3a4>
 3c4:	e6e3      	b.n	18e <huft_build+0x16c>
 3c6:	9c02      	ldr	r4, [sp, #8]
 3c8:	2c00      	cmp	r4, #0
 3ca:	d00b      	beq.n	3e4 <huft_build+0x3c2>
 3cc:	6a98      	ldr	r0, [r3, #40]	; 0x28
 3ce:	2801      	cmp	r0, #1
 3d0:	d008      	beq.n	3e4 <huft_build+0x3c2>
 3d2:	2001      	movs	r0, #1
 3d4:	e652      	b.n	7c <huft_build+0x5a>
 3d6:	0000      	.short	0x0000
 3d8:	fffffa74 	.word	0xfffffa74
 3dc:	0000052c 	.word	0x0000052c
 3e0:	00000000 	.word	0x00000000
 3e4:	2000      	movs	r0, #0
 3e6:	e649      	b.n	7c <huft_build+0x5a>

000003e8 <inflate_codes>:
 3e8:	b5ff      	push	{r0, r1, r2, r3, r4, r5, r6, r7, lr}
 3ea:	b085      	sub	sp, #20
 3ec:	45d5      	cmp	sp, sl
 3ee:	d201      	bcs.n	3f4 <inflate_codes+0xc>
 3f0:	f7ff fffe 	bl	0 <__rt_stkovf_split_small>
 3f4:	48e8      	ldr	r0, [pc, #928]	; (798 <inflate_fixed+0x10c>)
 3f6:	6806      	ldr	r6, [r0, #0]
 3f8:	6845      	ldr	r5, [r0, #4]
 3fa:	48e8      	ldr	r0, [pc, #928]	; (79c <inflate_fixed+0x110>)
 3fc:	6804      	ldr	r4, [r0, #0]
 3fe:	9807      	ldr	r0, [sp, #28]
 400:	0041      	lsls	r1, r0, #1
 402:	48e7      	ldr	r0, [pc, #924]	; (7a0 <inflate_fixed+0x114>)
 404:	5a41      	ldrh	r1, [r0, r1]
 406:	9102      	str	r1, [sp, #8]
 408:	9b08      	ldr	r3, [sp, #32]
 40a:	0059      	lsls	r1, r3, #1
 40c:	5a43      	ldrh	r3, [r0, r1]
 40e:	9301      	str	r3, [sp, #4]
 410:	48e4      	ldr	r0, [pc, #912]	; (7a4 <inflate_fixed+0x118>)
 412:	4fe5      	ldr	r7, [pc, #916]	; (7a8 <inflate_fixed+0x11c>)
 414:	6802      	ldr	r2, [r0, #0]
 416:	e006      	b.n	426 <inflate_codes+0x3e>
 418:	6838      	ldr	r0, [r7, #0]
 41a:	1c41      	adds	r1, r0, #1
 41c:	6039      	str	r1, [r7, #0]
 41e:	5c10      	ldrb	r0, [r2, r0]
 420:	40a8      	lsls	r0, r5
 422:	4306      	orrs	r6, r0
 424:	3508      	adds	r5, #8
 426:	9807      	ldr	r0, [sp, #28]
 428:	4285      	cmp	r5, r0
 42a:	d3f5      	bcc.n	418 <inflate_codes+0x30>
 42c:	9902      	ldr	r1, [sp, #8]
 42e:	1c30      	adds	r0, r6, #0
 430:	4008      	ands	r0, r1
 432:	230c      	movs	r3, #12
 434:	4358      	muls	r0, r3
 436:	9905      	ldr	r1, [sp, #20]
 438:	1840      	adds	r0, r0, r1
 43a:	4684      	mov	ip, r0
 43c:	7900      	ldrb	r0, [r0, #4]
 43e:	2810      	cmp	r0, #16
 440:	d920      	bls.n	484 <inflate_codes+0x9c>
 442:	2863      	cmp	r0, #99	; 0x63
 444:	d102      	bne.n	44c <inflate_codes+0x64>
 446:	2001      	movs	r0, #1
 448:	b009      	add	sp, #36	; 0x24
 44a:	bdf0      	pop	{r4, r5, r6, r7, pc}
 44c:	4661      	mov	r1, ip
 44e:	7949      	ldrb	r1, [r1, #5]
 450:	40ce      	lsrs	r6, r1
 452:	1a6d      	subs	r5, r5, r1
 454:	3810      	subs	r0, #16
 456:	e006      	b.n	466 <inflate_codes+0x7e>
 458:	6839      	ldr	r1, [r7, #0]
 45a:	1c4b      	adds	r3, r1, #1
 45c:	603b      	str	r3, [r7, #0]
 45e:	5c51      	ldrb	r1, [r2, r1]
 460:	40a9      	lsls	r1, r5
 462:	430e      	orrs	r6, r1
 464:	3508      	adds	r5, #8
 466:	4285      	cmp	r5, r0
 468:	d3f6      	bcc.n	458 <inflate_codes+0x70>
 46a:	4bcd      	ldr	r3, [pc, #820]	; (7a0 <inflate_fixed+0x114>)
 46c:	0040      	lsls	r0, r0, #1
 46e:	5a18      	ldrh	r0, [r3, r0]
 470:	230c      	movs	r3, #12
 472:	4661      	mov	r1, ip
 474:	4030      	ands	r0, r6
 476:	4358      	muls	r0, r3
 478:	6889      	ldr	r1, [r1, #8]
 47a:	1808      	adds	r0, r1, r0
 47c:	4684      	mov	ip, r0
 47e:	7900      	ldrb	r0, [r0, #4]
 480:	2810      	cmp	r0, #16
 482:	d8de      	bhi.n	442 <inflate_codes+0x5a>
 484:	4661      	mov	r1, ip
 486:	7949      	ldrb	r1, [r1, #5]
 488:	40ce      	lsrs	r6, r1
 48a:	1a6d      	subs	r5, r5, r1
 48c:	2810      	cmp	r0, #16
 48e:	d10c      	bne.n	4aa <inflate_codes+0xc2>
 490:	4660      	mov	r0, ip
 492:	4ac6      	ldr	r2, [pc, #792]	; (7ac <inflate_fixed+0x120>)
 494:	8901      	ldrh	r1, [r0, #8]
 496:	1c20      	adds	r0, r4, #0
 498:	6812      	ldr	r2, [r2, #0]
 49a:	3401      	adds	r4, #1
 49c:	5411      	strb	r1, [r2, r0]
 49e:	2001      	movs	r0, #1
 4a0:	0540      	lsls	r0, r0, #21
 4a2:	4284      	cmp	r4, r0
 4a4:	d1b4      	bne.n	410 <inflate_codes+0x28>
 4a6:	2400      	movs	r4, #0
 4a8:	e7b2      	b.n	410 <inflate_codes+0x28>
 4aa:	280f      	cmp	r0, #15
 4ac:	d06f      	beq.n	58e <inflate_codes+0x1a6>
 4ae:	e007      	b.n	4c0 <inflate_codes+0xd8>
 4b0:	4fbd      	ldr	r7, [pc, #756]	; (7a8 <inflate_fixed+0x11c>)
 4b2:	6839      	ldr	r1, [r7, #0]
 4b4:	1c4b      	adds	r3, r1, #1
 4b6:	603b      	str	r3, [r7, #0]
 4b8:	5c51      	ldrb	r1, [r2, r1]
 4ba:	40a9      	lsls	r1, r5
 4bc:	430e      	orrs	r6, r1
 4be:	3508      	adds	r5, #8
 4c0:	4285      	cmp	r5, r0
 4c2:	d3f5      	bcc.n	4b0 <inflate_codes+0xc8>
 4c4:	4661      	mov	r1, ip
 4c6:	890b      	ldrh	r3, [r1, #8]
 4c8:	4fb5      	ldr	r7, [pc, #724]	; (7a0 <inflate_fixed+0x114>)
 4ca:	0041      	lsls	r1, r0, #1
 4cc:	5a79      	ldrh	r1, [r7, r1]
 4ce:	4031      	ands	r1, r6
 4d0:	1859      	adds	r1, r3, r1
 4d2:	9104      	str	r1, [sp, #16]
 4d4:	40c6      	lsrs	r6, r0
 4d6:	1c31      	adds	r1, r6, #0
 4d8:	1a28      	subs	r0, r5, r0
 4da:	4fb3      	ldr	r7, [pc, #716]	; (7a8 <inflate_fixed+0x11c>)
 4dc:	e006      	b.n	4ec <inflate_codes+0x104>
 4de:	683b      	ldr	r3, [r7, #0]
 4e0:	1c5d      	adds	r5, r3, #1
 4e2:	603d      	str	r5, [r7, #0]
 4e4:	5cd3      	ldrb	r3, [r2, r3]
 4e6:	4083      	lsls	r3, r0
 4e8:	4319      	orrs	r1, r3
 4ea:	3008      	adds	r0, #8
 4ec:	9b08      	ldr	r3, [sp, #32]
 4ee:	4298      	cmp	r0, r3
 4f0:	d3f5      	bcc.n	4de <inflate_codes+0xf6>
 4f2:	9b01      	ldr	r3, [sp, #4]
 4f4:	1c0d      	adds	r5, r1, #0
 4f6:	401d      	ands	r5, r3
 4f8:	230c      	movs	r3, #12
 4fa:	436b      	muls	r3, r5
 4fc:	9d06      	ldr	r5, [sp, #24]
 4fe:	195b      	adds	r3, r3, r5
 500:	469c      	mov	ip, r3
 502:	791b      	ldrb	r3, [r3, #4]
 504:	2b10      	cmp	r3, #16
 506:	d920      	bls.n	54a <inflate_codes+0x162>
 508:	2b63      	cmp	r3, #99	; 0x63
 50a:	d101      	bne.n	510 <inflate_codes+0x128>
 50c:	2001      	movs	r0, #1
 50e:	e79b      	b.n	448 <inflate_codes+0x60>
 510:	4665      	mov	r5, ip
 512:	796d      	ldrb	r5, [r5, #5]
 514:	40e9      	lsrs	r1, r5
 516:	1b40      	subs	r0, r0, r5
 518:	3b10      	subs	r3, #16
 51a:	e006      	b.n	52a <inflate_codes+0x142>
 51c:	683d      	ldr	r5, [r7, #0]
 51e:	1c6e      	adds	r6, r5, #1
 520:	603e      	str	r6, [r7, #0]
 522:	5d55      	ldrb	r5, [r2, r5]
 524:	4085      	lsls	r5, r0
 526:	4329      	orrs	r1, r5
 528:	3008      	adds	r0, #8
 52a:	4298      	cmp	r0, r3
 52c:	d3f6      	bcc.n	51c <inflate_codes+0x134>
 52e:	4e9c      	ldr	r6, [pc, #624]	; (7a0 <inflate_fixed+0x114>)
 530:	005b      	lsls	r3, r3, #1
 532:	5af3      	ldrh	r3, [r6, r3]
 534:	4665      	mov	r5, ip
 536:	68ad      	ldr	r5, [r5, #8]
 538:	400b      	ands	r3, r1
 53a:	1c1e      	adds	r6, r3, #0
 53c:	230c      	movs	r3, #12
 53e:	4373      	muls	r3, r6
 540:	18eb      	adds	r3, r5, r3
 542:	469c      	mov	ip, r3
 544:	791b      	ldrb	r3, [r3, #4]
 546:	2b10      	cmp	r3, #16
 548:	d8de      	bhi.n	508 <inflate_codes+0x120>
 54a:	4665      	mov	r5, ip
 54c:	796d      	ldrb	r5, [r5, #5]
 54e:	40e9      	lsrs	r1, r5
 550:	1b40      	subs	r0, r0, r5
 552:	e006      	b.n	562 <inflate_codes+0x17a>
 554:	683d      	ldr	r5, [r7, #0]
 556:	1c6e      	adds	r6, r5, #1
 558:	603e      	str	r6, [r7, #0]
 55a:	5d55      	ldrb	r5, [r2, r5]
 55c:	4085      	lsls	r5, r0
 55e:	4329      	orrs	r1, r5
 560:	3008      	adds	r0, #8
 562:	4298      	cmp	r0, r3
 564:	d3f6      	bcc.n	554 <inflate_codes+0x16c>
 566:	4665      	mov	r5, ip
 568:	892a      	ldrh	r2, [r5, #8]
 56a:	4f8d      	ldr	r7, [pc, #564]	; (7a0 <inflate_fixed+0x114>)
 56c:	005d      	lsls	r5, r3, #1
 56e:	5b7d      	ldrh	r5, [r7, r5]
 570:	1aa2      	subs	r2, r4, r2
 572:	400d      	ands	r5, r1
 574:	1b52      	subs	r2, r2, r5
 576:	9203      	str	r2, [sp, #12]
 578:	40d9      	lsrs	r1, r3
 57a:	1c0e      	adds	r6, r1, #0
 57c:	1ac5      	subs	r5, r0, r3
 57e:	9903      	ldr	r1, [sp, #12]
 580:	02c9      	lsls	r1, r1, #11
 582:	0ac9      	lsrs	r1, r1, #11
 584:	9103      	str	r1, [sp, #12]
 586:	42a1      	cmp	r1, r4
 588:	d902      	bls.n	590 <inflate_codes+0x1a8>
 58a:	9803      	ldr	r0, [sp, #12]
 58c:	e001      	b.n	592 <inflate_codes+0x1aa>
 58e:	e02a      	b.n	5e6 <inflate_codes+0x1fe>
 590:	1c20      	adds	r0, r4, #0
 592:	2101      	movs	r1, #1
 594:	0549      	lsls	r1, r1, #21
 596:	1a0f      	subs	r7, r1, r0
 598:	9804      	ldr	r0, [sp, #16]
 59a:	4287      	cmp	r7, r0
 59c:	d900      	bls.n	5a0 <inflate_codes+0x1b8>
 59e:	9f04      	ldr	r7, [sp, #16]
 5a0:	9804      	ldr	r0, [sp, #16]
 5a2:	1bc0      	subs	r0, r0, r7
 5a4:	9004      	str	r0, [sp, #16]
 5a6:	9903      	ldr	r1, [sp, #12]
 5a8:	1a60      	subs	r0, r4, r1
 5aa:	42b8      	cmp	r0, r7
 5ac:	d30c      	bcc.n	5c8 <inflate_codes+0x1e0>
 5ae:	487f      	ldr	r0, [pc, #508]	; (7ac <inflate_fixed+0x120>)
 5b0:	6800      	ldr	r0, [r0, #0]
 5b2:	9903      	ldr	r1, [sp, #12]
 5b4:	1841      	adds	r1, r0, r1
 5b6:	1900      	adds	r0, r0, r4
 5b8:	1c3a      	adds	r2, r7, #0
 5ba:	f7ff fffe 	bl	0 <__rt_memcpy>
 5be:	19e4      	adds	r4, r4, r7
 5c0:	9903      	ldr	r1, [sp, #12]
 5c2:	19c9      	adds	r1, r1, r7
 5c4:	9103      	str	r1, [sp, #12]
 5c6:	e00a      	b.n	5de <inflate_codes+0x1f6>
 5c8:	4b78      	ldr	r3, [pc, #480]	; (7ac <inflate_fixed+0x120>)
 5ca:	9803      	ldr	r0, [sp, #12]
 5cc:	1c41      	adds	r1, r0, #1
 5ce:	9103      	str	r1, [sp, #12]
 5d0:	6819      	ldr	r1, [r3, #0]
 5d2:	5c0a      	ldrb	r2, [r1, r0]
 5d4:	1c20      	adds	r0, r4, #0
 5d6:	3401      	adds	r4, #1
 5d8:	540a      	strb	r2, [r1, r0]
 5da:	3f01      	subs	r7, #1
 5dc:	d1f5      	bne.n	5ca <inflate_codes+0x1e2>
 5de:	9804      	ldr	r0, [sp, #16]
 5e0:	2800      	cmp	r0, #0
 5e2:	d1cc      	bne.n	57e <inflate_codes+0x196>
 5e4:	e714      	b.n	410 <inflate_codes+0x28>
 5e6:	486d      	ldr	r0, [pc, #436]	; (79c <inflate_fixed+0x110>)
 5e8:	6004      	str	r4, [r0, #0]
 5ea:	486b      	ldr	r0, [pc, #428]	; (798 <inflate_fixed+0x10c>)
 5ec:	6006      	str	r6, [r0, #0]
 5ee:	6045      	str	r5, [r0, #4]
 5f0:	2000      	movs	r0, #0
 5f2:	e729      	b.n	448 <inflate_codes+0x60>

000005f4 <inflate_stored>:
 5f4:	b5f0      	push	{r4, r5, r6, r7, lr}
 5f6:	4a68      	ldr	r2, [pc, #416]	; (798 <inflate_fixed+0x10c>)
 5f8:	6811      	ldr	r1, [r2, #0]
 5fa:	6850      	ldr	r0, [r2, #4]
 5fc:	4a67      	ldr	r2, [pc, #412]	; (79c <inflate_fixed+0x110>)
 5fe:	6814      	ldr	r4, [r2, #0]
 600:	0742      	lsls	r2, r0, #29
 602:	0f52      	lsrs	r2, r2, #29
 604:	40d1      	lsrs	r1, r2
 606:	1a80      	subs	r0, r0, r2
 608:	4b66      	ldr	r3, [pc, #408]	; (7a4 <inflate_fixed+0x118>)
 60a:	4d67      	ldr	r5, [pc, #412]	; (7a8 <inflate_fixed+0x11c>)
 60c:	681e      	ldr	r6, [r3, #0]
 60e:	e006      	b.n	61e <inflate_stored+0x2a>
 610:	682a      	ldr	r2, [r5, #0]
 612:	1c57      	adds	r7, r2, #1
 614:	602f      	str	r7, [r5, #0]
 616:	5cb2      	ldrb	r2, [r6, r2]
 618:	4082      	lsls	r2, r0
 61a:	4311      	orrs	r1, r2
 61c:	3008      	adds	r0, #8
 61e:	2810      	cmp	r0, #16
 620:	d3f6      	bcc.n	610 <inflate_stored+0x1c>
 622:	040a      	lsls	r2, r1, #16
 624:	0c12      	lsrs	r2, r2, #16
 626:	0c09      	lsrs	r1, r1, #16
 628:	3810      	subs	r0, #16
 62a:	e006      	b.n	63a <inflate_stored+0x46>
 62c:	682b      	ldr	r3, [r5, #0]
 62e:	1c5f      	adds	r7, r3, #1
 630:	602f      	str	r7, [r5, #0]
 632:	5cf3      	ldrb	r3, [r6, r3]
 634:	4083      	lsls	r3, r0
 636:	4319      	orrs	r1, r3
 638:	3008      	adds	r0, #8
 63a:	2810      	cmp	r0, #16
 63c:	d3f6      	bcc.n	62c <inflate_stored+0x38>
 63e:	4b5c      	ldr	r3, [pc, #368]	; (7b0 <inflate_fixed+0x124>)
 640:	438b      	bics	r3, r1
 642:	4293      	cmp	r3, r2
 644:	d001      	beq.n	64a <inflate_stored+0x56>
 646:	2001      	movs	r0, #1
 648:	bdf0      	pop	{r4, r5, r6, r7, pc}
 64a:	0c09      	lsrs	r1, r1, #16
 64c:	3810      	subs	r0, #16
 64e:	4e57      	ldr	r6, [pc, #348]	; (7ac <inflate_fixed+0x120>)
 650:	e013      	b.n	67a <inflate_stored+0x86>
 652:	4b54      	ldr	r3, [pc, #336]	; (7a4 <inflate_fixed+0x118>)
 654:	681b      	ldr	r3, [r3, #0]
 656:	469c      	mov	ip, r3
 658:	e007      	b.n	66a <inflate_stored+0x76>
 65a:	682b      	ldr	r3, [r5, #0]
 65c:	1c5f      	adds	r7, r3, #1
 65e:	602f      	str	r7, [r5, #0]
 660:	4667      	mov	r7, ip
 662:	5cfb      	ldrb	r3, [r7, r3]
 664:	4083      	lsls	r3, r0
 666:	4319      	orrs	r1, r3
 668:	3008      	adds	r0, #8
 66a:	2808      	cmp	r0, #8
 66c:	d3f5      	bcc.n	65a <inflate_stored+0x66>
 66e:	1c23      	adds	r3, r4, #0
 670:	6837      	ldr	r7, [r6, #0]
 672:	3401      	adds	r4, #1
 674:	54f9      	strb	r1, [r7, r3]
 676:	0a09      	lsrs	r1, r1, #8
 678:	3808      	subs	r0, #8
 67a:	3a01      	subs	r2, #1
 67c:	d2e9      	bcs.n	652 <inflate_stored+0x5e>
 67e:	4a47      	ldr	r2, [pc, #284]	; (79c <inflate_fixed+0x110>)
 680:	6014      	str	r4, [r2, #0]
 682:	4a45      	ldr	r2, [pc, #276]	; (798 <inflate_fixed+0x10c>)
 684:	6011      	str	r1, [r2, #0]
 686:	6050      	str	r0, [r2, #4]
 688:	2000      	movs	r0, #0
 68a:	bdf0      	pop	{r4, r5, r6, r7, pc}

0000068c <inflate_fixed>:
 68c:	b5b0      	push	{r4, r5, r7, lr}
 68e:	4f49      	ldr	r7, [pc, #292]	; (7b4 <inflate_fixed+0x128>)
 690:	446f      	add	r7, sp
 692:	4557      	cmp	r7, sl
 694:	d201      	bcs.n	69a <inflate_fixed+0xe>
 696:	f7ff fffe 	bl	0 <__rt_stkovf_split_big_t>
 69a:	46bd      	mov	sp, r7
 69c:	2000      	movs	r0, #0
 69e:	2208      	movs	r2, #8
 6a0:	0081      	lsls	r1, r0, #2
 6a2:	ab04      	add	r3, sp, #16
 6a4:	505a      	str	r2, [r3, r1]
 6a6:	3001      	adds	r0, #1
 6a8:	2890      	cmp	r0, #144	; 0x90
 6aa:	dbf9      	blt.n	6a0 <inflate_fixed+0x14>
 6ac:	2109      	movs	r1, #9
 6ae:	24ff      	movs	r4, #255	; 0xff
 6b0:	3401      	adds	r4, #1
 6b2:	e003      	b.n	6bc <inflate_fixed+0x30>
 6b4:	0083      	lsls	r3, r0, #2
 6b6:	ad04      	add	r5, sp, #16
 6b8:	50e9      	str	r1, [r5, r3]
 6ba:	3001      	adds	r0, #1
 6bc:	42a0      	cmp	r0, r4
 6be:	dbf9      	blt.n	6b4 <inflate_fixed+0x28>
 6c0:	2107      	movs	r1, #7
 6c2:	24ff      	movs	r4, #255	; 0xff
 6c4:	3419      	adds	r4, #25
 6c6:	e003      	b.n	6d0 <inflate_fixed+0x44>
 6c8:	0083      	lsls	r3, r0, #2
 6ca:	ad04      	add	r5, sp, #16
 6cc:	50e9      	str	r1, [r5, r3]
 6ce:	3001      	adds	r0, #1
 6d0:	42a0      	cmp	r0, r4
 6d2:	dbf9      	blt.n	6c8 <inflate_fixed+0x3c>
 6d4:	24ff      	movs	r4, #255	; 0xff
 6d6:	3421      	adds	r4, #33	; 0x21
 6d8:	e003      	b.n	6e2 <inflate_fixed+0x56>
 6da:	0081      	lsls	r1, r0, #2
 6dc:	ab04      	add	r3, sp, #16
 6de:	505a      	str	r2, [r3, r1]
 6e0:	3001      	adds	r0, #1
 6e2:	42a0      	cmp	r0, r4
 6e4:	dbf9      	blt.n	6da <inflate_fixed+0x4e>
 6e6:	2007      	movs	r0, #7
 6e8:	abff      	add	r3, sp, #1020	; 0x3fc
 6ea:	3384      	adds	r3, #132	; 0x84
 6ec:	6158      	str	r0, [r3, #20]
 6ee:	1c1a      	adds	r2, r3, #0
 6f0:	3214      	adds	r2, #20
 6f2:	1c11      	adds	r1, r2, #0
 6f4:	482a      	ldr	r0, [pc, #168]	; (7a0 <inflate_fixed+0x114>)
 6f6:	9202      	str	r2, [sp, #8]
 6f8:	4b29      	ldr	r3, [pc, #164]	; (7a0 <inflate_fixed+0x114>)
 6fa:	38b6      	subs	r0, #182	; 0xb6
 6fc:	22ff      	movs	r2, #255	; 0xff
 6fe:	3108      	adds	r1, #8
 700:	9101      	str	r1, [sp, #4]
 702:	3202      	adds	r2, #2
 704:	9000      	str	r0, [sp, #0]
 706:	3bf4      	subs	r3, #244	; 0xf4
 708:	1c21      	adds	r1, r4, #0
 70a:	a804      	add	r0, sp, #16
 70c:	f7ff fffe 	bl	22 <huft_build>
 710:	2800      	cmp	r0, #0
 712:	d123      	bne.n	75c <inflate_fixed+0xd0>
 714:	2105      	movs	r1, #5
 716:	0082      	lsls	r2, r0, #2
 718:	ab04      	add	r3, sp, #16
 71a:	5099      	str	r1, [r3, r2]
 71c:	3001      	adds	r0, #1
 71e:	281e      	cmp	r0, #30
 720:	dbf9      	blt.n	716 <inflate_fixed+0x8a>
 722:	2005      	movs	r0, #5
 724:	abff      	add	r3, sp, #1020	; 0x3fc
 726:	3384      	adds	r3, #132	; 0x84
 728:	6118      	str	r0, [r3, #16]
 72a:	1c1a      	adds	r2, r3, #0
 72c:	3210      	adds	r2, #16
 72e:	481c      	ldr	r0, [pc, #112]	; (7a0 <inflate_fixed+0x114>)
 730:	1c11      	adds	r1, r2, #0
 732:	383c      	subs	r0, #60	; 0x3c
 734:	3108      	adds	r1, #8
 736:	4b1a      	ldr	r3, [pc, #104]	; (7a0 <inflate_fixed+0x114>)
 738:	9202      	str	r2, [sp, #8]
 73a:	2200      	movs	r2, #0
 73c:	9101      	str	r1, [sp, #4]
 73e:	9000      	str	r0, [sp, #0]
 740:	3b78      	subs	r3, #120	; 0x78
 742:	211e      	movs	r1, #30
 744:	a804      	add	r0, sp, #16
 746:	f7ff fffe 	bl	22 <huft_build>
 74a:	1c04      	adds	r4, r0, #0
 74c:	2801      	cmp	r0, #1
 74e:	dd09      	ble.n	764 <inflate_fixed+0xd8>
 750:	abff      	add	r3, sp, #1020	; 0x3fc
 752:	3384      	adds	r3, #132	; 0x84
 754:	69d8      	ldr	r0, [r3, #28]
 756:	f7ff fffe 	bl	0 <huft_free>
 75a:	1c20      	adds	r0, r4, #0
 75c:	b07f      	add	sp, #508	; 0x1fc
 75e:	b07f      	add	sp, #508	; 0x1fc
 760:	b02a      	add	sp, #168	; 0xa8
 762:	bdb0      	pop	{r4, r5, r7, pc}
 764:	abff      	add	r3, sp, #1020	; 0x3fc
 766:	3384      	adds	r3, #132	; 0x84
 768:	69d8      	ldr	r0, [r3, #28]
 76a:	6999      	ldr	r1, [r3, #24]
 76c:	695a      	ldr	r2, [r3, #20]
 76e:	691c      	ldr	r4, [r3, #16]
 770:	1c23      	adds	r3, r4, #0
 772:	f7ff fffe 	bl	3e8 <inflate_codes>
 776:	2800      	cmp	r0, #0
 778:	d001      	beq.n	77e <inflate_fixed+0xf2>
 77a:	2001      	movs	r0, #1
 77c:	e7ee      	b.n	75c <inflate_fixed+0xd0>
 77e:	abff      	add	r3, sp, #1020	; 0x3fc
 780:	3384      	adds	r3, #132	; 0x84
 782:	69d8      	ldr	r0, [r3, #28]
 784:	f7ff fffe 	bl	0 <huft_free>
 788:	abff      	add	r3, sp, #1020	; 0x3fc
 78a:	3384      	adds	r3, #132	; 0x84
 78c:	6998      	ldr	r0, [r3, #24]
 78e:	f7ff fffe 	bl	0 <huft_free>
 792:	2000      	movs	r0, #0
 794:	e7e2      	b.n	75c <inflate_fixed+0xd0>
	...
 79e:	0000      	.short	0x0000
 7a0:	00000140 	.word	0x00000140
	...
 7b0:	0000ffff 	.word	0x0000ffff
 7b4:	fffffb60 	.word	0xfffffb60

000007b8 <inflate_dynamic>:
 7b8:	b5f0      	push	{r4, r5, r6, r7, lr}
 7ba:	4feb      	ldr	r7, [pc, #940]	; (b68 <inflate_block+0x3e>)
 7bc:	446f      	add	r7, sp
 7be:	4557      	cmp	r7, sl
 7c0:	d201      	bcs.n	7c6 <inflate_dynamic+0xe>
 7c2:	f7ff fffe 	bl	0 <__rt_stkovf_split_big_t>
 7c6:	46bd      	mov	sp, r7
 7c8:	48e8      	ldr	r0, [pc, #928]	; (b6c <inflate_block+0x42>)
 7ca:	6804      	ldr	r4, [r0, #0]
 7cc:	6840      	ldr	r0, [r0, #4]
 7ce:	49e8      	ldr	r1, [pc, #928]	; (b70 <inflate_block+0x46>)
 7d0:	4fe8      	ldr	r7, [pc, #928]	; (b74 <inflate_block+0x4a>)
 7d2:	680a      	ldr	r2, [r1, #0]
 7d4:	e006      	b.n	7e4 <inflate_dynamic+0x2c>
 7d6:	683d      	ldr	r5, [r7, #0]
 7d8:	1c6b      	adds	r3, r5, #1
 7da:	603b      	str	r3, [r7, #0]
 7dc:	5d55      	ldrb	r5, [r2, r5]
 7de:	4085      	lsls	r5, r0
 7e0:	432c      	orrs	r4, r5
 7e2:	3008      	adds	r0, #8
 7e4:	2805      	cmp	r0, #5
 7e6:	d3f6      	bcc.n	7d6 <inflate_dynamic+0x1e>
 7e8:	06e5      	lsls	r5, r4, #27
 7ea:	0eed      	lsrs	r5, r5, #27
 7ec:	35ff      	adds	r5, #255	; 0xff
 7ee:	3502      	adds	r5, #2
 7f0:	2305      	movs	r3, #5
 7f2:	021b      	lsls	r3, r3, #8
 7f4:	446b      	add	r3, sp
 7f6:	605d      	str	r5, [r3, #4]
 7f8:	0964      	lsrs	r4, r4, #5
 7fa:	3805      	subs	r0, #5
 7fc:	e006      	b.n	80c <inflate_dynamic+0x54>
 7fe:	683d      	ldr	r5, [r7, #0]
 800:	1c6b      	adds	r3, r5, #1
 802:	603b      	str	r3, [r7, #0]
 804:	5d55      	ldrb	r5, [r2, r5]
 806:	4085      	lsls	r5, r0
 808:	432c      	orrs	r4, r5
 80a:	3008      	adds	r0, #8
 80c:	2805      	cmp	r0, #5
 80e:	d3f6      	bcc.n	7fe <inflate_dynamic+0x46>
 810:	06e5      	lsls	r5, r4, #27
 812:	0eed      	lsrs	r5, r5, #27
 814:	3501      	adds	r5, #1
 816:	2305      	movs	r3, #5
 818:	021b      	lsls	r3, r3, #8
 81a:	446b      	add	r3, sp
 81c:	601d      	str	r5, [r3, #0]
 81e:	0964      	lsrs	r4, r4, #5
 820:	3805      	subs	r0, #5
 822:	e006      	b.n	832 <inflate_dynamic+0x7a>
 824:	683d      	ldr	r5, [r7, #0]
 826:	1c6b      	adds	r3, r5, #1
 828:	603b      	str	r3, [r7, #0]
 82a:	5d55      	ldrb	r5, [r2, r5]
 82c:	4085      	lsls	r5, r0
 82e:	432c      	orrs	r4, r5
 830:	3008      	adds	r0, #8
 832:	2804      	cmp	r0, #4
 834:	d3f6      	bcc.n	824 <inflate_dynamic+0x6c>
 836:	0726      	lsls	r6, r4, #28
 838:	0f36      	lsrs	r6, r6, #28
 83a:	3604      	adds	r6, #4
 83c:	0925      	lsrs	r5, r4, #4
 83e:	1f04      	subs	r4, r0, #4
 840:	2305      	movs	r3, #5
 842:	021b      	lsls	r3, r3, #8
 844:	446b      	add	r3, sp
 846:	685b      	ldr	r3, [r3, #4]
 848:	20ff      	movs	r0, #255	; 0xff
 84a:	301f      	adds	r0, #31
 84c:	4283      	cmp	r3, r0
 84e:	d805      	bhi.n	85c <inflate_dynamic+0xa4>
 850:	2305      	movs	r3, #5
 852:	021b      	lsls	r3, r3, #8
 854:	446b      	add	r3, sp
 856:	6818      	ldr	r0, [r3, #0]
 858:	281e      	cmp	r0, #30
 85a:	d904      	bls.n	866 <inflate_dynamic+0xae>
 85c:	2001      	movs	r0, #1
 85e:	b07f      	add	sp, #508	; 0x1fc
 860:	b07f      	add	sp, #508	; 0x1fc
 862:	b049      	add	sp, #292	; 0x124
 864:	bdf0      	pop	{r4, r5, r6, r7, pc}
 866:	2000      	movs	r0, #0
 868:	e015      	b.n	896 <inflate_dynamic+0xde>
 86a:	4fc2      	ldr	r7, [pc, #776]	; (b74 <inflate_block+0x4a>)
 86c:	e006      	b.n	87c <inflate_dynamic+0xc4>
 86e:	6839      	ldr	r1, [r7, #0]
 870:	1c4b      	adds	r3, r1, #1
 872:	603b      	str	r3, [r7, #0]
 874:	5c51      	ldrb	r1, [r2, r1]
 876:	40a1      	lsls	r1, r4
 878:	430d      	orrs	r5, r1
 87a:	3408      	adds	r4, #8
 87c:	2c03      	cmp	r4, #3
 87e:	d3f6      	bcc.n	86e <inflate_dynamic+0xb6>
 880:	4fbd      	ldr	r7, [pc, #756]	; (b78 <inflate_block+0x4e>)
 882:	0083      	lsls	r3, r0, #2
 884:	58fb      	ldr	r3, [r7, r3]
 886:	0769      	lsls	r1, r5, #29
 888:	0f49      	lsrs	r1, r1, #29
 88a:	009b      	lsls	r3, r3, #2
 88c:	af04      	add	r7, sp, #16
 88e:	50f9      	str	r1, [r7, r3]
 890:	08ed      	lsrs	r5, r5, #3
 892:	3c03      	subs	r4, #3
 894:	3001      	adds	r0, #1
 896:	42b0      	cmp	r0, r6
 898:	d3e7      	bcc.n	86a <inflate_dynamic+0xb2>
 89a:	4fb7      	ldr	r7, [pc, #732]	; (b78 <inflate_block+0x4e>)
 89c:	2600      	movs	r6, #0
 89e:	e005      	b.n	8ac <inflate_dynamic+0xf4>
 8a0:	0081      	lsls	r1, r0, #2
 8a2:	5879      	ldr	r1, [r7, r1]
 8a4:	aa04      	add	r2, sp, #16
 8a6:	0089      	lsls	r1, r1, #2
 8a8:	5056      	str	r6, [r2, r1]
 8aa:	3001      	adds	r0, #1
 8ac:	2813      	cmp	r0, #19
 8ae:	d3f7      	bcc.n	8a0 <inflate_dynamic+0xe8>
 8b0:	2007      	movs	r0, #7
 8b2:	2305      	movs	r3, #5
 8b4:	021b      	lsls	r3, r3, #8
 8b6:	446b      	add	r3, sp
 8b8:	60d8      	str	r0, [r3, #12]
 8ba:	1c1a      	adds	r2, r3, #0
 8bc:	320c      	adds	r2, #12
 8be:	1c11      	adds	r1, r2, #0
 8c0:	3108      	adds	r1, #8
 8c2:	2000      	movs	r0, #0
 8c4:	9202      	str	r2, [sp, #8]
 8c6:	1c37      	adds	r7, r6, #0
 8c8:	1c33      	adds	r3, r6, #0
 8ca:	2213      	movs	r2, #19
 8cc:	9000      	str	r0, [sp, #0]
 8ce:	9101      	str	r1, [sp, #4]
 8d0:	2113      	movs	r1, #19
 8d2:	a804      	add	r0, sp, #16
 8d4:	f7ff fffe 	bl	22 <huft_build>
 8d8:	1c06      	adds	r6, r0, #0
 8da:	d009      	beq.n	8f0 <inflate_dynamic+0x138>
 8dc:	2e01      	cmp	r6, #1
 8de:	d105      	bne.n	8ec <inflate_dynamic+0x134>
 8e0:	2305      	movs	r3, #5
 8e2:	021b      	lsls	r3, r3, #8
 8e4:	446b      	add	r3, sp
 8e6:	6958      	ldr	r0, [r3, #20]
 8e8:	f7ff fffe 	bl	0 <huft_free>
 8ec:	1c30      	adds	r0, r6, #0
 8ee:	e7b6      	b.n	85e <inflate_dynamic+0xa6>
 8f0:	2305      	movs	r3, #5
 8f2:	021b      	lsls	r3, r3, #8
 8f4:	446b      	add	r3, sp
 8f6:	6858      	ldr	r0, [r3, #4]
 8f8:	6819      	ldr	r1, [r3, #0]
 8fa:	1842      	adds	r2, r0, r1
 8fc:	68d8      	ldr	r0, [r3, #12]
 8fe:	499f      	ldr	r1, [pc, #636]	; (b7c <inflate_block+0x52>)
 900:	0040      	lsls	r0, r0, #1
 902:	5a08      	ldrh	r0, [r1, r0]
 904:	6198      	str	r0, [r3, #24]
 906:	2100      	movs	r1, #0
 908:	e098      	b.n	a3c <inflate_dynamic+0x284>
 90a:	2305      	movs	r3, #5
 90c:	021b      	lsls	r3, r3, #8
 90e:	446b      	add	r3, sp
 910:	68d8      	ldr	r0, [r3, #12]
 912:	4684      	mov	ip, r0
 914:	4896      	ldr	r0, [pc, #600]	; (b70 <inflate_block+0x46>)
 916:	6800      	ldr	r0, [r0, #0]
 918:	4686      	mov	lr, r0
 91a:	e008      	b.n	92e <inflate_dynamic+0x176>
 91c:	4f95      	ldr	r7, [pc, #596]	; (b74 <inflate_block+0x4a>)
 91e:	6838      	ldr	r0, [r7, #0]
 920:	1c43      	adds	r3, r0, #1
 922:	603b      	str	r3, [r7, #0]
 924:	4673      	mov	r3, lr
 926:	5c18      	ldrb	r0, [r3, r0]
 928:	40a0      	lsls	r0, r4
 92a:	4305      	orrs	r5, r0
 92c:	3408      	adds	r4, #8
 92e:	4564      	cmp	r4, ip
 930:	d3f4      	bcc.n	91c <inflate_dynamic+0x164>
 932:	2305      	movs	r3, #5
 934:	021b      	lsls	r3, r3, #8
 936:	446b      	add	r3, sp
 938:	6998      	ldr	r0, [r3, #24]
 93a:	230c      	movs	r3, #12
 93c:	4028      	ands	r0, r5
 93e:	4358      	muls	r0, r3
 940:	2305      	movs	r3, #5
 942:	021b      	lsls	r3, r3, #8
 944:	446b      	add	r3, sp
 946:	695b      	ldr	r3, [r3, #20]
 948:	18c7      	adds	r7, r0, r3
 94a:	2305      	movs	r3, #5
 94c:	021b      	lsls	r3, r3, #8
 94e:	446b      	add	r3, sp
 950:	611f      	str	r7, [r3, #16]
 952:	7978      	ldrb	r0, [r7, #5]
 954:	40c5      	lsrs	r5, r0
 956:	1a24      	subs	r4, r4, r0
 958:	8938      	ldrh	r0, [r7, #8]
 95a:	2810      	cmp	r0, #16
 95c:	d206      	bcs.n	96c <inflate_dynamic+0x1b4>
 95e:	1c01      	adds	r1, r0, #0
 960:	1c37      	adds	r7, r6, #0
 962:	3601      	adds	r6, #1
 964:	00bb      	lsls	r3, r7, #2
 966:	af04      	add	r7, sp, #16
 968:	50f8      	str	r0, [r7, r3]
 96a:	e067      	b.n	a3c <inflate_dynamic+0x284>
 96c:	2810      	cmp	r0, #16
 96e:	d120      	bne.n	9b2 <inflate_dynamic+0x1fa>
 970:	487f      	ldr	r0, [pc, #508]	; (b70 <inflate_block+0x46>)
 972:	4f80      	ldr	r7, [pc, #512]	; (b74 <inflate_block+0x4a>)
 974:	6800      	ldr	r0, [r0, #0]
 976:	4684      	mov	ip, r0
 978:	e007      	b.n	98a <inflate_dynamic+0x1d2>
 97a:	6838      	ldr	r0, [r7, #0]
 97c:	1c43      	adds	r3, r0, #1
 97e:	603b      	str	r3, [r7, #0]
 980:	4663      	mov	r3, ip
 982:	5c18      	ldrb	r0, [r3, r0]
 984:	40a0      	lsls	r0, r4
 986:	4305      	orrs	r5, r0
 988:	3408      	adds	r4, #8
 98a:	2c02      	cmp	r4, #2
 98c:	d3f5      	bcc.n	97a <inflate_dynamic+0x1c2>
 98e:	07a8      	lsls	r0, r5, #30
 990:	0f80      	lsrs	r0, r0, #30
 992:	3003      	adds	r0, #3
 994:	08ad      	lsrs	r5, r5, #2
 996:	3c02      	subs	r4, #2
 998:	1837      	adds	r7, r6, r0
 99a:	4297      	cmp	r7, r2
 99c:	d906      	bls.n	9ac <inflate_dynamic+0x1f4>
 99e:	2001      	movs	r0, #1
 9a0:	e75d      	b.n	85e <inflate_dynamic+0xa6>
 9a2:	1c37      	adds	r7, r6, #0
 9a4:	3601      	adds	r6, #1
 9a6:	00bb      	lsls	r3, r7, #2
 9a8:	af04      	add	r7, sp, #16
 9aa:	50f9      	str	r1, [r7, r3]
 9ac:	3801      	subs	r0, #1
 9ae:	d2f8      	bcs.n	9a2 <inflate_dynamic+0x1ea>
 9b0:	e044      	b.n	a3c <inflate_dynamic+0x284>
 9b2:	2811      	cmp	r0, #17
 9b4:	d121      	bne.n	9fa <inflate_dynamic+0x242>
 9b6:	486e      	ldr	r0, [pc, #440]	; (b70 <inflate_block+0x46>)
 9b8:	4f6e      	ldr	r7, [pc, #440]	; (b74 <inflate_block+0x4a>)
 9ba:	6801      	ldr	r1, [r0, #0]
 9bc:	e006      	b.n	9cc <inflate_dynamic+0x214>
 9be:	6838      	ldr	r0, [r7, #0]
 9c0:	1c43      	adds	r3, r0, #1
 9c2:	603b      	str	r3, [r7, #0]
 9c4:	5c08      	ldrb	r0, [r1, r0]
 9c6:	40a0      	lsls	r0, r4
 9c8:	4305      	orrs	r5, r0
 9ca:	3408      	adds	r4, #8
 9cc:	2c03      	cmp	r4, #3
 9ce:	d3f6      	bcc.n	9be <inflate_dynamic+0x206>
 9d0:	0768      	lsls	r0, r5, #29
 9d2:	0f40      	lsrs	r0, r0, #29
 9d4:	3003      	adds	r0, #3
 9d6:	08ed      	lsrs	r5, r5, #3
 9d8:	3c03      	subs	r4, #3
 9da:	1831      	adds	r1, r6, r0
 9dc:	4291      	cmp	r1, r2
 9de:	d901      	bls.n	9e4 <inflate_dynamic+0x22c>
 9e0:	2001      	movs	r0, #1
 9e2:	e73c      	b.n	85e <inflate_dynamic+0xa6>
 9e4:	2700      	movs	r7, #0
 9e6:	e004      	b.n	9f2 <inflate_dynamic+0x23a>
 9e8:	1c31      	adds	r1, r6, #0
 9ea:	3601      	adds	r6, #1
 9ec:	0089      	lsls	r1, r1, #2
 9ee:	ab04      	add	r3, sp, #16
 9f0:	505f      	str	r7, [r3, r1]
 9f2:	3801      	subs	r0, #1
 9f4:	d2f8      	bcs.n	9e8 <inflate_dynamic+0x230>
 9f6:	2100      	movs	r1, #0
 9f8:	e020      	b.n	a3c <inflate_dynamic+0x284>
 9fa:	485d      	ldr	r0, [pc, #372]	; (b70 <inflate_block+0x46>)
 9fc:	4f5d      	ldr	r7, [pc, #372]	; (b74 <inflate_block+0x4a>)
 9fe:	6801      	ldr	r1, [r0, #0]
 a00:	e006      	b.n	a10 <inflate_dynamic+0x258>
 a02:	6838      	ldr	r0, [r7, #0]
 a04:	1c43      	adds	r3, r0, #1
 a06:	603b      	str	r3, [r7, #0]
 a08:	5c08      	ldrb	r0, [r1, r0]
 a0a:	40a0      	lsls	r0, r4
 a0c:	4305      	orrs	r5, r0
 a0e:	3408      	adds	r4, #8
 a10:	2c07      	cmp	r4, #7
 a12:	d3f6      	bcc.n	a02 <inflate_dynamic+0x24a>
 a14:	0668      	lsls	r0, r5, #25
 a16:	0e40      	lsrs	r0, r0, #25
 a18:	300b      	adds	r0, #11
 a1a:	09ed      	lsrs	r5, r5, #7
 a1c:	3c07      	subs	r4, #7
 a1e:	1831      	adds	r1, r6, r0
 a20:	4291      	cmp	r1, r2
 a22:	d901      	bls.n	a28 <inflate_dynamic+0x270>
 a24:	2001      	movs	r0, #1
 a26:	e71a      	b.n	85e <inflate_dynamic+0xa6>
 a28:	2700      	movs	r7, #0
 a2a:	e004      	b.n	a36 <inflate_dynamic+0x27e>
 a2c:	1c31      	adds	r1, r6, #0
 a2e:	3601      	adds	r6, #1
 a30:	0089      	lsls	r1, r1, #2
 a32:	ab04      	add	r3, sp, #16
 a34:	505f      	str	r7, [r3, r1]
 a36:	3801      	subs	r0, #1
 a38:	d2f8      	bcs.n	a2c <inflate_dynamic+0x274>
 a3a:	2100      	movs	r1, #0
 a3c:	4296      	cmp	r6, r2
 a3e:	d200      	bcs.n	a42 <inflate_dynamic+0x28a>
 a40:	e763      	b.n	90a <inflate_dynamic+0x152>
 a42:	2305      	movs	r3, #5
 a44:	021b      	lsls	r3, r3, #8
 a46:	446b      	add	r3, sp
 a48:	6958      	ldr	r0, [r3, #20]
 a4a:	f7ff fffe 	bl	0 <huft_free>
 a4e:	4847      	ldr	r0, [pc, #284]	; (b6c <inflate_block+0x42>)
 a50:	6005      	str	r5, [r0, #0]
 a52:	6044      	str	r4, [r0, #4]
 a54:	4d4a      	ldr	r5, [pc, #296]	; (b80 <inflate_block+0x56>)
 a56:	2305      	movs	r3, #5
 a58:	021b      	lsls	r3, r3, #8
 a5a:	6828      	ldr	r0, [r5, #0]
 a5c:	446b      	add	r3, sp
 a5e:	60d8      	str	r0, [r3, #12]
 a60:	1c1a      	adds	r2, r3, #0
 a62:	320c      	adds	r2, #12
 a64:	1c11      	adds	r1, r2, #0
 a66:	4844      	ldr	r0, [pc, #272]	; (b78 <inflate_block+0x4e>)
 a68:	9202      	str	r2, [sp, #8]
 a6a:	308a      	adds	r0, #138	; 0x8a
 a6c:	9000      	str	r0, [sp, #0]
 a6e:	3108      	adds	r1, #8
 a70:	4c41      	ldr	r4, [pc, #260]	; (b78 <inflate_block+0x4e>)
 a72:	9101      	str	r1, [sp, #4]
 a74:	22ff      	movs	r2, #255	; 0xff
 a76:	3202      	adds	r2, #2
 a78:	6859      	ldr	r1, [r3, #4]
 a7a:	344c      	adds	r4, #76	; 0x4c
 a7c:	1c23      	adds	r3, r4, #0
 a7e:	a804      	add	r0, sp, #16
 a80:	f7ff fffe 	bl	22 <huft_build>
 a84:	1c04      	adds	r4, r0, #0
 a86:	d009      	beq.n	a9c <inflate_dynamic+0x2e4>
 a88:	2c01      	cmp	r4, #1
 a8a:	d105      	bne.n	a98 <inflate_dynamic+0x2e0>
 a8c:	2305      	movs	r3, #5
 a8e:	021b      	lsls	r3, r3, #8
 a90:	446b      	add	r3, sp
 a92:	6958      	ldr	r0, [r3, #20]
 a94:	f7ff fffe 	bl	0 <huft_free>
 a98:	1c20      	adds	r0, r4, #0
 a9a:	e6e0      	b.n	85e <inflate_dynamic+0xa6>
 a9c:	2305      	movs	r3, #5
 a9e:	021b      	lsls	r3, r3, #8
 aa0:	6868      	ldr	r0, [r5, #4]
 aa2:	446b      	add	r3, sp
 aa4:	6098      	str	r0, [r3, #8]
 aa6:	1c1a      	adds	r2, r3, #0
 aa8:	3208      	adds	r2, #8
 aaa:	1c11      	adds	r1, r2, #0
 aac:	4833      	ldr	r0, [pc, #204]	; (b7c <inflate_block+0x52>)
 aae:	3108      	adds	r1, #8
 ab0:	383c      	subs	r0, #60	; 0x3c
 ab2:	9000      	str	r0, [sp, #0]
 ab4:	9101      	str	r1, [sp, #4]
 ab6:	9202      	str	r2, [sp, #8]
 ab8:	6858      	ldr	r0, [r3, #4]
 aba:	a904      	add	r1, sp, #16
 abc:	4c2f      	ldr	r4, [pc, #188]	; (b7c <inflate_block+0x52>)
 abe:	0080      	lsls	r0, r0, #2
 ac0:	1840      	adds	r0, r0, r1
 ac2:	6819      	ldr	r1, [r3, #0]
 ac4:	2200      	movs	r2, #0
 ac6:	3c78      	subs	r4, #120	; 0x78
 ac8:	1c23      	adds	r3, r4, #0
 aca:	f7ff fffe 	bl	22 <huft_build>
 ace:	1c04      	adds	r4, r0, #0
 ad0:	d00f      	beq.n	af2 <inflate_dynamic+0x33a>
 ad2:	2c01      	cmp	r4, #1
 ad4:	d105      	bne.n	ae2 <inflate_dynamic+0x32a>
 ad6:	2305      	movs	r3, #5
 ad8:	021b      	lsls	r3, r3, #8
 ada:	446b      	add	r3, sp
 adc:	6918      	ldr	r0, [r3, #16]
 ade:	f7ff fffe 	bl	0 <huft_free>
 ae2:	2305      	movs	r3, #5
 ae4:	021b      	lsls	r3, r3, #8
 ae6:	446b      	add	r3, sp
 ae8:	6958      	ldr	r0, [r3, #20]
 aea:	f7ff fffe 	bl	0 <huft_free>
 aee:	1c20      	adds	r0, r4, #0
 af0:	e6b5      	b.n	85e <inflate_dynamic+0xa6>
 af2:	2305      	movs	r3, #5
 af4:	021b      	lsls	r3, r3, #8
 af6:	446b      	add	r3, sp
 af8:	6958      	ldr	r0, [r3, #20]
 afa:	6919      	ldr	r1, [r3, #16]
 afc:	68da      	ldr	r2, [r3, #12]
 afe:	689c      	ldr	r4, [r3, #8]
 b00:	1c23      	adds	r3, r4, #0
 b02:	f7ff fffe 	bl	3e8 <inflate_codes>
 b06:	2800      	cmp	r0, #0
 b08:	d001      	beq.n	b0e <inflate_dynamic+0x356>
 b0a:	2001      	movs	r0, #1
 b0c:	e6a7      	b.n	85e <inflate_dynamic+0xa6>
 b0e:	2305      	movs	r3, #5
 b10:	021b      	lsls	r3, r3, #8
 b12:	446b      	add	r3, sp
 b14:	6958      	ldr	r0, [r3, #20]
 b16:	f7ff fffe 	bl	0 <huft_free>
 b1a:	2305      	movs	r3, #5
 b1c:	021b      	lsls	r3, r3, #8
 b1e:	446b      	add	r3, sp
 b20:	6918      	ldr	r0, [r3, #16]
 b22:	f7ff fffe 	bl	0 <huft_free>
 b26:	2000      	movs	r0, #0
 b28:	e699      	b.n	85e <inflate_dynamic+0xa6>

00000b2a <inflate_block>:
 b2a:	b5f8      	push	{r3, r4, r5, r6, r7, lr}
 b2c:	45d5      	cmp	sp, sl
 b2e:	d201      	bcs.n	b34 <inflate_block+0xa>
 b30:	f7ff fffe 	bl	0 <__rt_stkovf_split_small>
 b34:	4684      	mov	ip, r0
 b36:	4f0d      	ldr	r7, [pc, #52]	; (b6c <inflate_block+0x42>)
 b38:	683a      	ldr	r2, [r7, #0]
 b3a:	6879      	ldr	r1, [r7, #4]
 b3c:	480c      	ldr	r0, [pc, #48]	; (b70 <inflate_block+0x46>)
 b3e:	4d0d      	ldr	r5, [pc, #52]	; (b74 <inflate_block+0x4a>)
 b40:	6806      	ldr	r6, [r0, #0]
 b42:	e006      	b.n	b52 <inflate_block+0x28>
 b44:	682b      	ldr	r3, [r5, #0]
 b46:	1c5c      	adds	r4, r3, #1
 b48:	602c      	str	r4, [r5, #0]
 b4a:	5cf3      	ldrb	r3, [r6, r3]
 b4c:	408b      	lsls	r3, r1
 b4e:	431a      	orrs	r2, r3
 b50:	3108      	adds	r1, #8
 b52:	2901      	cmp	r1, #1
 b54:	d3f6      	bcc.n	b44 <inflate_block+0x1a>
 b56:	07d3      	lsls	r3, r2, #31
 b58:	0fdb      	lsrs	r3, r3, #31
 b5a:	4664      	mov	r4, ip
 b5c:	6023      	str	r3, [r4, #0]
 b5e:	0852      	lsrs	r2, r2, #1
 b60:	3901      	subs	r1, #1
 b62:	6804      	ldr	r4, [r0, #0]
 b64:	e015      	b.n	b92 <inflate_block+0x68>
 b66:	0000      	.short	0x0000
 b68:	fffffae4 	.word	0xfffffae4
	...
 b7c:	00000140 	.word	0x00000140
 b80:	00000000 	.word	0x00000000
 b84:	6828      	ldr	r0, [r5, #0]
 b86:	1c43      	adds	r3, r0, #1
 b88:	602b      	str	r3, [r5, #0]
 b8a:	5c20      	ldrb	r0, [r4, r0]
 b8c:	4088      	lsls	r0, r1
 b8e:	4302      	orrs	r2, r0
 b90:	3108      	adds	r1, #8
 b92:	2902      	cmp	r1, #2
 b94:	d3f6      	bcc.n	b84 <inflate_block+0x5a>
 b96:	0790      	lsls	r0, r2, #30
 b98:	0f80      	lsrs	r0, r0, #30
 b9a:	0892      	lsrs	r2, r2, #2
 b9c:	3902      	subs	r1, #2
 b9e:	603a      	str	r2, [r7, #0]
 ba0:	6079      	str	r1, [r7, #4]
 ba2:	2802      	cmp	r0, #2
 ba4:	d102      	bne.n	bac <inflate_block+0x82>
 ba6:	f7ff fffe 	bl	7b8 <inflate_dynamic>
 baa:	bdf8      	pop	{r3, r4, r5, r6, r7, pc}
 bac:	2800      	cmp	r0, #0
 bae:	d102      	bne.n	bb6 <inflate_block+0x8c>
 bb0:	f7ff fffe 	bl	5f4 <inflate_stored>
 bb4:	e7f9      	b.n	baa <inflate_block+0x80>
 bb6:	2801      	cmp	r0, #1
 bb8:	d102      	bne.n	bc0 <inflate_block+0x96>
 bba:	f7ff fffe 	bl	68c <inflate_fixed>
 bbe:	e7f4      	b.n	baa <inflate_block+0x80>
 bc0:	2002      	movs	r0, #2
 bc2:	e7f2      	b.n	baa <inflate_block+0x80>

00000bc4 <mr_inflate>:
 bc4:	b5f8      	push	{r3, r4, r5, r6, r7, lr}
 bc6:	45d5      	cmp	sp, sl
 bc8:	d201      	bcs.n	bce <mr_inflate+0xa>
 bca:	f7ff fffe 	bl	0 <__rt_stkovf_split_small>
 bce:	4e12      	ldr	r6, [pc, #72]	; (c18 <mr_inflate+0x54>)
 bd0:	2700      	movs	r7, #0
 bd2:	6037      	str	r7, [r6, #0]
 bd4:	4d11      	ldr	r5, [pc, #68]	; (c1c <mr_inflate+0x58>)
 bd6:	606f      	str	r7, [r5, #4]
 bd8:	602f      	str	r7, [r5, #0]
 bda:	2400      	movs	r4, #0
 bdc:	60af      	str	r7, [r5, #8]
 bde:	4668      	mov	r0, sp
 be0:	f7ff fffe 	bl	b2a <inflate_block>
 be4:	2800      	cmp	r0, #0
 be6:	d116      	bne.n	c16 <mr_inflate+0x52>
 be8:	68a8      	ldr	r0, [r5, #8]
 bea:	42a0      	cmp	r0, r4
 bec:	d900      	bls.n	bf0 <mr_inflate+0x2c>
 bee:	1c04      	adds	r4, r0, #0
 bf0:	9800      	ldr	r0, [sp, #0]
 bf2:	2800      	cmp	r0, #0
 bf4:	d0f2      	beq.n	bdc <mr_inflate+0x18>
 bf6:	480a      	ldr	r0, [pc, #40]	; (c20 <mr_inflate+0x5c>)
 bf8:	e004      	b.n	c04 <mr_inflate+0x40>
 bfa:	3908      	subs	r1, #8
 bfc:	6069      	str	r1, [r5, #4]
 bfe:	6801      	ldr	r1, [r0, #0]
 c00:	3901      	subs	r1, #1
 c02:	6001      	str	r1, [r0, #0]
 c04:	6869      	ldr	r1, [r5, #4]
 c06:	2908      	cmp	r1, #8
 c08:	d2f7      	bcs.n	bfa <mr_inflate+0x36>
 c0a:	4806      	ldr	r0, [pc, #24]	; (c24 <mr_inflate+0x60>)
 c0c:	6831      	ldr	r1, [r6, #0]
 c0e:	6800      	ldr	r0, [r0, #0]
 c10:	f7ff fffe 	bl	0 <mr_updcrc>
 c14:	2000      	movs	r0, #0
 c16:	bdf8      	pop	{r3, r4, r5, r6, r7, pc}
	...
