
/tmp/arm_lib_analysis/normal/mythroad_mini.obj:     file format elf32-littlearm


Disassembly of section .text:

00000000 <_mr_div>:
       0:	b580      	push	{r7, lr}
       2:	45d5      	cmp	sp, sl
       4:	d201      	bcs.n	a <_mr_div+0xa>
       6:	f7ff fffe 	bl	0 <__rt_stkovf_split_small>
       a:	1c02      	adds	r2, r0, #0
       c:	1c08      	adds	r0, r1, #0
       e:	1c11      	adds	r1, r2, #0
      10:	f7ff fffe 	bl	0 <__rt_sdiv>
      14:	bd80      	pop	{r7, pc}

00000016 <_mr_mod>:
      16:	b580      	push	{r7, lr}
      18:	45d5      	cmp	sp, sl
      1a:	d201      	bcs.n	20 <_mr_mod+0xa>
      1c:	f7ff fffe 	bl	0 <__rt_stkovf_split_small>
      20:	1c02      	adds	r2, r0, #0
      22:	1c08      	adds	r0, r1, #0
      24:	1c11      	adds	r1, r2, #0
      26:	f7ff fffe 	bl	0 <__rt_sdiv>
      2a:	1c08      	adds	r0, r1, #0
      2c:	bd80      	pop	{r7, pc}

0000002e <_mr_mem_init_ex>:
      2e:	b510      	push	{r4, lr}
      30:	45d5      	cmp	sp, sl
      32:	d201      	bcs.n	38 <_mr_mem_init_ex+0xa>
      34:	f7ff fffe 	bl	0 <__rt_stkovf_split_small>
      38:	49f0      	ldr	r1, [pc, #960]	; (3fc <_DrawBitmap+0x17a>)
      3a:	1f08      	subs	r0, r1, #4
      3c:	f7ff fffe 	bl	0 <mr_mem_get>
      40:	2800      	cmp	r0, #0
      42:	d002      	beq.n	4a <_mr_mem_init_ex+0x1c>
      44:	2000      	movs	r0, #0
      46:	43c0      	mvns	r0, r0
      48:	bd10      	pop	{r4, pc}
      4a:	48ec      	ldr	r0, [pc, #944]	; (3fc <_DrawBitmap+0x17a>)
      4c:	3874      	subs	r0, #116	; 0x74
      4e:	6f02      	ldr	r2, [r0, #112]	; 0x70
      50:	1cd1      	adds	r1, r2, #3
      52:	0889      	lsrs	r1, r1, #2
      54:	0089      	lsls	r1, r1, #2
      56:	6681      	str	r1, [r0, #104]	; 0x68
      58:	6f43      	ldr	r3, [r0, #116]	; 0x74
      5a:	1a8a      	subs	r2, r1, r2
      5c:	1a9a      	subs	r2, r3, r2
      5e:	0892      	lsrs	r2, r2, #2
      60:	0092      	lsls	r2, r2, #2
      62:	66c2      	str	r2, [r0, #108]	; 0x6c
      64:	188b      	adds	r3, r1, r2
      66:	6783      	str	r3, [r0, #120]	; 0x78
      68:	4ce4      	ldr	r4, [pc, #912]	; (3fc <_DrawBitmap+0x17a>)
      6a:	2300      	movs	r3, #0
      6c:	3424      	adds	r4, #36	; 0x24
      6e:	6023      	str	r3, [r4, #0]
      70:	6063      	str	r3, [r4, #4]
      72:	600a      	str	r2, [r1, #0]
      74:	6ec1      	ldr	r1, [r0, #108]	; 0x6c
      76:	6e82      	ldr	r2, [r0, #104]	; 0x68
      78:	6051      	str	r1, [r2, #4]
      7a:	67c1      	str	r1, [r0, #124]	; 0x7c
      7c:	6601      	str	r1, [r0, #96]	; 0x60
      7e:	6643      	str	r3, [r0, #100]	; 0x64
      80:	2000      	movs	r0, #0
      82:	bd10      	pop	{r4, pc}

00000084 <mr_malloc>:
      84:	b570      	push	{r4, r5, r6, lr}
      86:	45d5      	cmp	sp, sl
      88:	d201      	bcs.n	8e <mr_malloc+0xa>
      8a:	f7ff fffe 	bl	0 <__rt_stkovf_split_small>
      8e:	3007      	adds	r0, #7
      90:	08c1      	lsrs	r1, r0, #3
      92:	00c9      	lsls	r1, r1, #3
      94:	4ed9      	ldr	r6, [pc, #868]	; (3fc <_DrawBitmap+0x17a>)
      96:	3e74      	subs	r6, #116	; 0x74
      98:	6ff0      	ldr	r0, [r6, #124]	; 0x7c
      9a:	4281      	cmp	r1, r0
      9c:	d304      	bcc.n	a8 <mr_malloc+0x24>
      9e:	a0d8      	add	r0, pc, #864	; (adr r0, 400 <_DrawBitmap+0x17e>)
      a0:	f7ff fffe 	bl	0 <mr_printf>
      a4:	2000      	movs	r0, #0
      a6:	bd70      	pop	{r4, r5, r6, pc}
      a8:	2900      	cmp	r1, #0
      aa:	d104      	bne.n	b6 <mr_malloc+0x32>
      ac:	a0d9      	add	r0, pc, #868	; (adr r0, 414 <_DrawBitmap+0x192>)
      ae:	f7ff fffe 	bl	0 <mr_printf>
      b2:	2000      	movs	r0, #0
      b4:	bd70      	pop	{r4, r5, r6, pc}
      b6:	4ad1      	ldr	r2, [pc, #836]	; (3fc <_DrawBitmap+0x17a>)
      b8:	6eb4      	ldr	r4, [r6, #104]	; 0x68
      ba:	3224      	adds	r2, #36	; 0x24
      bc:	6810      	ldr	r0, [r2, #0]
      be:	6fb5      	ldr	r5, [r6, #120]	; 0x78
      c0:	1900      	adds	r0, r0, r4
      c2:	42a8      	cmp	r0, r5
      c4:	d931      	bls.n	12a <mr_malloc+0xa6>
      c6:	a0dc      	add	r0, pc, #880	; (adr r0, 438 <_DrawBitmap+0x1b6>)
      c8:	f7ff fffe 	bl	0 <mr_printf>
      cc:	2000      	movs	r0, #0
      ce:	bd70      	pop	{r4, r5, r6, pc}
      d0:	6843      	ldr	r3, [r0, #4]
      d2:	428b      	cmp	r3, r1
      d4:	d10e      	bne.n	f4 <mr_malloc+0x70>
      d6:	6803      	ldr	r3, [r0, #0]
      d8:	6013      	str	r3, [r2, #0]
      da:	6ff3      	ldr	r3, [r6, #124]	; 0x7c
      dc:	1a59      	subs	r1, r3, r1
      de:	67f1      	str	r1, [r6, #124]	; 0x7c
      e0:	6e33      	ldr	r3, [r6, #96]	; 0x60
      e2:	4299      	cmp	r1, r3
      e4:	d200      	bcs.n	e8 <mr_malloc+0x64>
      e6:	6631      	str	r1, [r6, #96]	; 0x60
      e8:	6811      	ldr	r1, [r2, #0]
      ea:	6e72      	ldr	r2, [r6, #100]	; 0x64
      ec:	4291      	cmp	r1, r2
      ee:	d9ee      	bls.n	ce <mr_malloc+0x4a>
      f0:	6671      	str	r1, [r6, #100]	; 0x64
      f2:	bd70      	pop	{r4, r5, r6, pc}
      f4:	428b      	cmp	r3, r1
      f6:	d915      	bls.n	124 <mr_malloc+0xa0>
      f8:	1843      	adds	r3, r0, r1
      fa:	6804      	ldr	r4, [r0, #0]
      fc:	601c      	str	r4, [r3, #0]
      fe:	6844      	ldr	r4, [r0, #4]
     100:	1a64      	subs	r4, r4, r1
     102:	605c      	str	r4, [r3, #4]
     104:	6813      	ldr	r3, [r2, #0]
     106:	185b      	adds	r3, r3, r1
     108:	6013      	str	r3, [r2, #0]
     10a:	6ff3      	ldr	r3, [r6, #124]	; 0x7c
     10c:	1a59      	subs	r1, r3, r1
     10e:	67f1      	str	r1, [r6, #124]	; 0x7c
     110:	6e33      	ldr	r3, [r6, #96]	; 0x60
     112:	4299      	cmp	r1, r3
     114:	d200      	bcs.n	118 <mr_malloc+0x94>
     116:	6631      	str	r1, [r6, #96]	; 0x60
     118:	6811      	ldr	r1, [r2, #0]
     11a:	6e72      	ldr	r2, [r6, #100]	; 0x64
     11c:	4291      	cmp	r1, r2
     11e:	d9e8      	bls.n	f2 <mr_malloc+0x6e>
     120:	6671      	str	r1, [r6, #100]	; 0x64
     122:	bd70      	pop	{r4, r5, r6, pc}
     124:	1c02      	adds	r2, r0, #0
     126:	6800      	ldr	r0, [r0, #0]
     128:	1900      	adds	r0, r0, r4
     12a:	42a8      	cmp	r0, r5
     12c:	d3d0      	bcc.n	d0 <mr_malloc+0x4c>
     12e:	a0b4      	add	r0, pc, #720	; (adr r0, 400 <_DrawBitmap+0x17e>)
     130:	f7ff fffe 	bl	0 <mr_printf>
     134:	2000      	movs	r0, #0
     136:	bd70      	pop	{r4, r5, r6, pc}

00000138 <mr_free>:
     138:	b5f8      	push	{r3, r4, r5, r6, r7, lr}
     13a:	45d5      	cmp	sp, sl
     13c:	d201      	bcs.n	142 <mr_free+0xa>
     13e:	f7ff fffe 	bl	0 <__rt_stkovf_split_small>
     142:	1c04      	adds	r4, r0, #0
     144:	3107      	adds	r1, #7
     146:	08cd      	lsrs	r5, r1, #3
     148:	00ed      	lsls	r5, r5, #3
     14a:	4eac      	ldr	r6, [pc, #688]	; (3fc <_DrawBitmap+0x17a>)
     14c:	3e74      	subs	r6, #116	; 0x74
     14e:	2d00      	cmp	r5, #0
     150:	d00d      	beq.n	16e <mr_free+0x36>
     152:	2c00      	cmp	r4, #0
     154:	d00b      	beq.n	16e <mr_free+0x36>
     156:	6eb0      	ldr	r0, [r6, #104]	; 0x68
     158:	4284      	cmp	r4, r0
     15a:	d308      	bcc.n	16e <mr_free+0x36>
     15c:	6fb1      	ldr	r1, [r6, #120]	; 0x78
     15e:	1c37      	adds	r7, r6, #0
     160:	428c      	cmp	r4, r1
     162:	d204      	bcs.n	16e <mr_free+0x36>
     164:	1962      	adds	r2, r4, r5
     166:	428a      	cmp	r2, r1
     168:	d801      	bhi.n	16e <mr_free+0x36>
     16a:	4282      	cmp	r2, r0
     16c:	d80b      	bhi.n	186 <mr_free+0x4e>
     16e:	a0b9      	add	r0, pc, #740	; (adr r0, 454 <_DrawBitmap+0x1d2>)
     170:	f7ff fffe 	bl	0 <mr_printf>
     174:	6fb2      	ldr	r2, [r6, #120]	; 0x78
     176:	a0bb      	add	r0, pc, #748	; (adr r0, 464 <_DrawBitmap+0x1e2>)
     178:	9200      	str	r2, [sp, #0]
     17a:	1c2a      	adds	r2, r5, #0
     17c:	1c21      	adds	r1, r4, #0
     17e:	6eb3      	ldr	r3, [r6, #104]	; 0x68
     180:	f7ff fffe 	bl	0 <mr_printf>
     184:	bdf8      	pop	{r3, r4, r5, r6, r7, pc}
     186:	4e9d      	ldr	r6, [pc, #628]	; (3fc <_DrawBitmap+0x17a>)
     188:	3624      	adds	r6, #36	; 0x24
     18a:	6833      	ldr	r3, [r6, #0]
     18c:	181b      	adds	r3, r3, r0
     18e:	e002      	b.n	196 <mr_free+0x5e>
     190:	1c1e      	adds	r6, r3, #0
     192:	681b      	ldr	r3, [r3, #0]
     194:	181b      	adds	r3, r3, r0
     196:	428b      	cmp	r3, r1
     198:	d201      	bcs.n	19e <mr_free+0x66>
     19a:	42a3      	cmp	r3, r4
     19c:	d3f8      	bcc.n	190 <mr_free+0x58>
     19e:	42b4      	cmp	r4, r6
     1a0:	d001      	beq.n	1a6 <mr_free+0x6e>
     1a2:	429c      	cmp	r4, r3
     1a4:	d103      	bne.n	1ae <mr_free+0x76>
     1a6:	a0b7      	add	r0, pc, #732	; (adr r0, 484 <_DrawBitmap+0x202>)
     1a8:	f7ff fffe 	bl	0 <mr_printf>
     1ac:	e7ea      	b.n	184 <mr_free+0x4c>
     1ae:	4993      	ldr	r1, [pc, #588]	; (3fc <_DrawBitmap+0x17a>)
     1b0:	3124      	adds	r1, #36	; 0x24
     1b2:	428e      	cmp	r6, r1
     1b4:	d007      	beq.n	1c6 <mr_free+0x8e>
     1b6:	6871      	ldr	r1, [r6, #4]
     1b8:	468c      	mov	ip, r1
     1ba:	44b4      	add	ip, r6
     1bc:	45a4      	cmp	ip, r4
     1be:	d102      	bne.n	1c6 <mr_free+0x8e>
     1c0:	1948      	adds	r0, r1, r5
     1c2:	6070      	str	r0, [r6, #4]
     1c4:	e006      	b.n	1d4 <mr_free+0x9c>
     1c6:	1a20      	subs	r0, r4, r0
     1c8:	6030      	str	r0, [r6, #0]
     1ca:	1c26      	adds	r6, r4, #0
     1cc:	6eb8      	ldr	r0, [r7, #104]	; 0x68
     1ce:	1a18      	subs	r0, r3, r0
     1d0:	6030      	str	r0, [r6, #0]
     1d2:	6075      	str	r5, [r6, #4]
     1d4:	6fb8      	ldr	r0, [r7, #120]	; 0x78
     1d6:	4283      	cmp	r3, r0
     1d8:	d207      	bcs.n	1ea <mr_free+0xb2>
     1da:	429a      	cmp	r2, r3
     1dc:	d105      	bne.n	1ea <mr_free+0xb2>
     1de:	6818      	ldr	r0, [r3, #0]
     1e0:	6030      	str	r0, [r6, #0]
     1e2:	6870      	ldr	r0, [r6, #4]
     1e4:	6859      	ldr	r1, [r3, #4]
     1e6:	1840      	adds	r0, r0, r1
     1e8:	6070      	str	r0, [r6, #4]
     1ea:	6ff8      	ldr	r0, [r7, #124]	; 0x7c
     1ec:	1940      	adds	r0, r0, r5
     1ee:	67f8      	str	r0, [r7, #124]	; 0x7c
     1f0:	e7c8      	b.n	184 <mr_free+0x4c>

000001f2 <mr_realloc>:
     1f2:	b5f8      	push	{r3, r4, r5, r6, r7, lr}
     1f4:	45d5      	cmp	sp, sl
     1f6:	d201      	bcs.n	1fc <mr_realloc+0xa>
     1f8:	f7ff fffe 	bl	0 <__rt_stkovf_split_small>
     1fc:	1c05      	adds	r5, r0, #0
     1fe:	1c0e      	adds	r6, r1, #0
     200:	1c10      	adds	r0, r2, #0
     202:	1c07      	adds	r7, r0, #0
     204:	4286      	cmp	r6, r0
     206:	d800      	bhi.n	20a <mr_realloc+0x18>
     208:	1c37      	adds	r7, r6, #0
     20a:	2d00      	cmp	r5, #0
     20c:	d102      	bne.n	214 <mr_realloc+0x22>
     20e:	f7ff fffe 	bl	84 <mr_malloc>
     212:	bdf8      	pop	{r3, r4, r5, r6, r7, pc}
     214:	2800      	cmp	r0, #0
     216:	d105      	bne.n	224 <mr_realloc+0x32>
     218:	1c31      	adds	r1, r6, #0
     21a:	1c28      	adds	r0, r5, #0
     21c:	f7ff fffe 	bl	138 <mr_free>
     220:	2000      	movs	r0, #0
     222:	e7f6      	b.n	212 <mr_realloc+0x20>
     224:	f7ff fffe 	bl	84 <mr_malloc>
     228:	1c04      	adds	r4, r0, #0
     22a:	d101      	bne.n	230 <mr_realloc+0x3e>
     22c:	1c20      	adds	r0, r4, #0
     22e:	e7f0      	b.n	212 <mr_realloc+0x20>
     230:	1c3a      	adds	r2, r7, #0
     232:	1c29      	adds	r1, r5, #0
     234:	1c20      	adds	r0, r4, #0
     236:	f7ff fffe 	bl	0 <__rt_memmove>
     23a:	1c31      	adds	r1, r6, #0
     23c:	1c28      	adds	r0, r5, #0
     23e:	f7ff fffe 	bl	138 <mr_free>
     242:	1c20      	adds	r0, r4, #0
     244:	e7e5      	b.n	212 <mr_realloc+0x20>

00000246 <mr_platDrawChar>:
     246:	b580      	push	{r7, lr}
     248:	45d5      	cmp	sp, sl
     24a:	d201      	bcs.n	250 <mr_platDrawChar+0xa>
     24c:	f7ff fffe 	bl	0 <__rt_stkovf_split_small>
     250:	041b      	lsls	r3, r3, #16
     252:	0c1b      	lsrs	r3, r3, #16
     254:	f7ff fffe 	bl	0 <mr_platDrawCharReal>
     258:	bd80      	pop	{r7, pc}

0000025a <_DrawPoint>:
     25a:	b530      	push	{r4, r5, lr}
     25c:	2800      	cmp	r0, #0
     25e:	db0f      	blt.n	280 <_DrawPoint+0x26>
     260:	2900      	cmp	r1, #0
     262:	db0d      	blt.n	280 <_DrawPoint+0x26>
     264:	4c65      	ldr	r4, [pc, #404]	; (3fc <_DrawBitmap+0x17a>)
     266:	3c74      	subs	r4, #116	; 0x74
     268:	6be3      	ldr	r3, [r4, #60]	; 0x3c
     26a:	4298      	cmp	r0, r3
     26c:	da08      	bge.n	280 <_DrawPoint+0x26>
     26e:	6c25      	ldr	r5, [r4, #64]	; 0x40
     270:	42a9      	cmp	r1, r5
     272:	da05      	bge.n	280 <_DrawPoint+0x26>
     274:	4359      	muls	r1, r3
     276:	6ba3      	ldr	r3, [r4, #56]	; 0x38
     278:	0049      	lsls	r1, r1, #1
     27a:	18c9      	adds	r1, r1, r3
     27c:	0040      	lsls	r0, r0, #1
     27e:	520a      	strh	r2, [r1, r0]
     280:	bd30      	pop	{r4, r5, pc}

00000282 <_DrawBitmap>:
     282:	b5ff      	push	{r0, r1, r2, r3, r4, r5, r6, r7, lr}
     284:	b097      	sub	sp, #92	; 0x5c
     286:	45d5      	cmp	sp, sl
     288:	d201      	bcs.n	28e <_DrawBitmap+0xc>
     28a:	f7ff fffe 	bl	0 <__rt_stkovf_split_small>
     28e:	1c17      	adds	r7, r2, #0
     290:	9823      	ldr	r0, [sp, #140]	; 0x8c
     292:	1c1c      	adds	r4, r3, #0
     294:	468c      	mov	ip, r1
     296:	4959      	ldr	r1, [pc, #356]	; (3fc <_DrawBitmap+0x17a>)
     298:	3974      	subs	r1, #116	; 0x74
     29a:	6c0a      	ldr	r2, [r1, #64]	; 0x40
     29c:	9b20      	ldr	r3, [sp, #128]	; 0x80
     29e:	18fb      	adds	r3, r7, r3
     2a0:	4293      	cmp	r3, r2
     2a2:	dc00      	bgt.n	2a6 <_DrawBitmap+0x24>
     2a4:	1c1a      	adds	r2, r3, #0
     2a6:	9203      	str	r2, [sp, #12]
     2a8:	4954      	ldr	r1, [pc, #336]	; (3fc <_DrawBitmap+0x17a>)
     2aa:	3974      	subs	r1, #116	; 0x74
     2ac:	6bce      	ldr	r6, [r1, #60]	; 0x3c
     2ae:	4661      	mov	r1, ip
     2b0:	1909      	adds	r1, r1, r4
     2b2:	42b1      	cmp	r1, r6
     2b4:	dc00      	bgt.n	2b8 <_DrawBitmap+0x36>
     2b6:	1c0e      	adds	r6, r1, #0
     2b8:	2100      	movs	r1, #0
     2ba:	4662      	mov	r2, ip
     2bc:	2a00      	cmp	r2, #0
     2be:	d400      	bmi.n	2c2 <_DrawBitmap+0x40>
     2c0:	4661      	mov	r1, ip
     2c2:	2301      	movs	r3, #1
     2c4:	029b      	lsls	r3, r3, #10
     2c6:	2f00      	cmp	r7, #0
     2c8:	9d21      	ldr	r5, [sp, #132]	; 0x84
     2ca:	db01      	blt.n	2d0 <_DrawBitmap+0x4e>
     2cc:	1c3a      	adds	r2, r7, #0
     2ce:	e000      	b.n	2d2 <_DrawBitmap+0x50>
     2d0:	2200      	movs	r2, #0
     2d2:	0412      	lsls	r2, r2, #16
     2d4:	0c12      	lsrs	r2, r2, #16
     2d6:	429d      	cmp	r5, r3
     2d8:	d969      	bls.n	3ae <_DrawBitmap+0x12c>
     2da:	9821      	ldr	r0, [sp, #132]	; 0x84
     2dc:	0580      	lsls	r0, r0, #22
     2de:	0d80      	lsrs	r0, r0, #22
     2e0:	4686      	mov	lr, r0
     2e2:	9821      	ldr	r0, [sp, #132]	; 0x84
     2e4:	04c0      	lsls	r0, r0, #19
     2e6:	0f83      	lsrs	r3, r0, #30
     2e8:	9821      	ldr	r0, [sp, #132]	; 0x84
     2ea:	0ac5      	lsrs	r5, r0, #11
     2ec:	2004      	movs	r0, #4
     2ee:	4005      	ands	r5, r0
     2f0:	4670      	mov	r0, lr
     2f2:	2802      	cmp	r0, #2
     2f4:	d036      	beq.n	364 <_DrawBitmap+0xe2>
     2f6:	2806      	cmp	r0, #6
     2f8:	d132      	bne.n	360 <_DrawBitmap+0xde>
     2fa:	4696      	mov	lr, r2
     2fc:	4662      	mov	r2, ip
     2fe:	1a88      	subs	r0, r1, r2
     300:	0042      	lsls	r2, r0, #1
     302:	0408      	lsls	r0, r1, #16
     304:	0c00      	lsrs	r0, r0, #16
     306:	0049      	lsls	r1, r1, #1
     308:	9115      	str	r1, [sp, #84]	; 0x54
     30a:	4684      	mov	ip, r0
     30c:	9216      	str	r2, [sp, #88]	; 0x58
     30e:	e024      	b.n	35a <_DrawBitmap+0xd8>
     310:	493a      	ldr	r1, [pc, #232]	; (3fc <_DrawBitmap+0x17a>)
     312:	4672      	mov	r2, lr
     314:	3974      	subs	r1, #116	; 0x74
     316:	6bc8      	ldr	r0, [r1, #60]	; 0x3c
     318:	6b89      	ldr	r1, [r1, #56]	; 0x38
     31a:	4342      	muls	r2, r0
     31c:	0050      	lsls	r0, r2, #1
     31e:	1840      	adds	r0, r0, r1
     320:	9915      	ldr	r1, [sp, #84]	; 0x54
     322:	1841      	adds	r1, r0, r1
     324:	4672      	mov	r2, lr
     326:	1bd0      	subs	r0, r2, r7
     328:	4360      	muls	r0, r4
     32a:	9a17      	ldr	r2, [sp, #92]	; 0x5c
     32c:	0040      	lsls	r0, r0, #1
     32e:	1880      	adds	r0, r0, r2
     330:	9a16      	ldr	r2, [sp, #88]	; 0x58
     332:	1882      	adds	r2, r0, r2
     334:	4660      	mov	r0, ip
     336:	e009      	b.n	34c <_DrawBitmap+0xca>
     338:	8813      	ldrh	r3, [r2, #0]
     33a:	9d22      	ldr	r5, [sp, #136]	; 0x88
     33c:	42ab      	cmp	r3, r5
     33e:	d000      	beq.n	342 <_DrawBitmap+0xc0>
     340:	800b      	strh	r3, [r1, #0]
     342:	3102      	adds	r1, #2
     344:	3202      	adds	r2, #2
     346:	3001      	adds	r0, #1
     348:	0400      	lsls	r0, r0, #16
     34a:	0c00      	lsrs	r0, r0, #16
     34c:	42b0      	cmp	r0, r6
     34e:	dbf3      	blt.n	338 <_DrawBitmap+0xb6>
     350:	4672      	mov	r2, lr
     352:	3201      	adds	r2, #1
     354:	0412      	lsls	r2, r2, #16
     356:	0c12      	lsrs	r2, r2, #16
     358:	4696      	mov	lr, r2
     35a:	9803      	ldr	r0, [sp, #12]
     35c:	4586      	cmp	lr, r0
     35e:	dbd7      	blt.n	310 <_DrawBitmap+0x8e>
     360:	b01b      	add	sp, #108	; 0x6c
     362:	bdf0      	pop	{r4, r5, r6, r7, pc}
     364:	9820      	ldr	r0, [sp, #128]	; 0x80
     366:	3801      	subs	r0, #1
     368:	9014      	str	r0, [sp, #80]	; 0x50
     36a:	2b00      	cmp	r3, #0
     36c:	d020      	beq.n	3b0 <_DrawBitmap+0x12e>
     36e:	1e60      	subs	r0, r4, #1
     370:	4686      	mov	lr, r0
     372:	0060      	lsls	r0, r4, #1
     374:	2b01      	cmp	r3, #1
     376:	d03e      	beq.n	3f6 <_DrawBitmap+0x174>
     378:	2b02      	cmp	r3, #2
     37a:	d03d      	beq.n	3f8 <_DrawBitmap+0x176>
     37c:	2b03      	cmp	r3, #3
     37e:	d1ef      	bne.n	360 <_DrawBitmap+0xde>
     380:	4696      	mov	lr, r2
     382:	4662      	mov	r2, ip
     384:	1a8a      	subs	r2, r1, r2
     386:	920a      	str	r2, [sp, #40]	; 0x28
     388:	4362      	muls	r2, r4
     38a:	9b17      	ldr	r3, [sp, #92]	; 0x5c
     38c:	0052      	lsls	r2, r2, #1
     38e:	4694      	mov	ip, r2
     390:	449c      	add	ip, r3
     392:	9b14      	ldr	r3, [sp, #80]	; 0x50
     394:	9a0a      	ldr	r2, [sp, #40]	; 0x28
     396:	1a9a      	subs	r2, r3, r2
     398:	4362      	muls	r2, r4
     39a:	9b17      	ldr	r3, [sp, #92]	; 0x5c
     39c:	0052      	lsls	r2, r2, #1
     39e:	18d2      	adds	r2, r2, r3
     3a0:	920c      	str	r2, [sp, #48]	; 0x30
     3a2:	040a      	lsls	r2, r1, #16
     3a4:	0c12      	lsrs	r2, r2, #16
     3a6:	920b      	str	r2, [sp, #44]	; 0x2c
     3a8:	004a      	lsls	r2, r1, #1
     3aa:	9209      	str	r2, [sp, #36]	; 0x24
     3ac:	e13e      	b.n	62c <_DrawBitmap+0x3aa>
     3ae:	e141      	b.n	634 <_DrawBitmap+0x3b2>
     3b0:	428e      	cmp	r6, r1
     3b2:	ddd5      	ble.n	360 <_DrawBitmap+0xde>
     3b4:	9201      	str	r2, [sp, #4]
     3b6:	4662      	mov	r2, ip
     3b8:	1a88      	subs	r0, r1, r2
     3ba:	0042      	lsls	r2, r0, #1
     3bc:	1a70      	subs	r0, r6, r1
     3be:	0049      	lsls	r1, r1, #1
     3c0:	9112      	str	r1, [sp, #72]	; 0x48
     3c2:	0046      	lsls	r6, r0, #1
     3c4:	9213      	str	r2, [sp, #76]	; 0x4c
     3c6:	e079      	b.n	4bc <_DrawBitmap+0x23a>
     3c8:	490c      	ldr	r1, [pc, #48]	; (3fc <_DrawBitmap+0x17a>)
     3ca:	9a01      	ldr	r2, [sp, #4]
     3cc:	3974      	subs	r1, #116	; 0x74
     3ce:	6bc8      	ldr	r0, [r1, #60]	; 0x3c
     3d0:	6b89      	ldr	r1, [r1, #56]	; 0x38
     3d2:	4342      	muls	r2, r0
     3d4:	0050      	lsls	r0, r2, #1
     3d6:	1840      	adds	r0, r0, r1
     3d8:	9912      	ldr	r1, [sp, #72]	; 0x48
     3da:	1840      	adds	r0, r0, r1
     3dc:	2d00      	cmp	r5, #0
     3de:	d05d      	beq.n	49c <_DrawBitmap+0x21a>
     3e0:	9a01      	ldr	r2, [sp, #4]
     3e2:	9b14      	ldr	r3, [sp, #80]	; 0x50
     3e4:	1bd1      	subs	r1, r2, r7
     3e6:	1a59      	subs	r1, r3, r1
     3e8:	4361      	muls	r1, r4
     3ea:	9a17      	ldr	r2, [sp, #92]	; 0x5c
     3ec:	0049      	lsls	r1, r1, #1
     3ee:	1889      	adds	r1, r1, r2
     3f0:	9a13      	ldr	r2, [sp, #76]	; 0x4c
     3f2:	1889      	adds	r1, r1, r2
     3f4:	e05a      	b.n	4ac <_DrawBitmap+0x22a>
     3f6:	e066      	b.n	4c6 <_DrawBitmap+0x244>
     3f8:	e0ae      	b.n	558 <_DrawBitmap+0x2d6>
     3fa:	0000      	.short	0x0000
     3fc:	00000074 	.word	0x00000074
     400:	6d5f726d 	.word	0x6d5f726d
     404:	6f6c6c61 	.word	0x6f6c6c61
     408:	6f6e2063 	.word	0x6f6e2063
     40c:	6d656d20 	.word	0x6d656d20
     410:	0079726f 	.word	0x0079726f
     414:	6d5f726d 	.word	0x6d5f726d
     418:	6f6c6c61 	.word	0x6f6c6c61
     41c:	6e692063 	.word	0x6e692063
     420:	696c6176 	.word	0x696c6176
     424:	656d2064 	.word	0x656d2064
     428:	79726f6d 	.word	0x79726f6d
     42c:	71657220 	.word	0x71657220
     430:	74736575 	.word	0x74736575
     434:	00000000 	.word	0x00000000
     438:	6d5f726d 	.word	0x6d5f726d
     43c:	6f6c6c61 	.word	0x6f6c6c61
     440:	6f632063 	.word	0x6f632063
     444:	70757272 	.word	0x70757272
     448:	20646574 	.word	0x20646574
     44c:	6f6d656d 	.word	0x6f6d656d
     450:	00007972 	.word	0x00007972
     454:	665f726d 	.word	0x665f726d
     458:	20656572 	.word	0x20656572
     45c:	61766e69 	.word	0x61766e69
     460:	0064696c 	.word	0x0064696c
     464:	64253d70 	.word	0x64253d70
     468:	253d6c2c 	.word	0x253d6c2c
     46c:	61622c64 	.word	0x61622c64
     470:	253d6573 	.word	0x253d6573
     474:	474c2c64 	.word	0x474c2c64
     478:	6d656d5f 	.word	0x6d656d5f
     47c:	646e655f 	.word	0x646e655f
     480:	0064253d 	.word	0x0064253d
     484:	665f726d 	.word	0x665f726d
     488:	3a656572 	.word	0x3a656572
     48c:	65726c61 	.word	0x65726c61
     490:	20796461 	.word	0x20796461
     494:	65657266 	.word	0x65657266
     498:	00000000 	.word	0x00000000
     49c:	9a01      	ldr	r2, [sp, #4]
     49e:	1bd1      	subs	r1, r2, r7
     4a0:	4361      	muls	r1, r4
     4a2:	9a17      	ldr	r2, [sp, #92]	; 0x5c
     4a4:	0049      	lsls	r1, r1, #1
     4a6:	1889      	adds	r1, r1, r2
     4a8:	9a13      	ldr	r2, [sp, #76]	; 0x4c
     4aa:	1889      	adds	r1, r1, r2
     4ac:	1c32      	adds	r2, r6, #0
     4ae:	f7ff fffe 	bl	0 <__rt_memcpy>
     4b2:	9a01      	ldr	r2, [sp, #4]
     4b4:	3201      	adds	r2, #1
     4b6:	0412      	lsls	r2, r2, #16
     4b8:	0c12      	lsrs	r2, r2, #16
     4ba:	9201      	str	r2, [sp, #4]
     4bc:	9803      	ldr	r0, [sp, #12]
     4be:	9a01      	ldr	r2, [sp, #4]
     4c0:	4282      	cmp	r2, r0
     4c2:	db81      	blt.n	3c8 <_DrawBitmap+0x146>
     4c4:	e74c      	b.n	360 <_DrawBitmap+0xde>
     4c6:	9201      	str	r2, [sp, #4]
     4c8:	4662      	mov	r2, ip
     4ca:	1a8a      	subs	r2, r1, r2
     4cc:	920f      	str	r2, [sp, #60]	; 0x3c
     4ce:	4362      	muls	r2, r4
     4d0:	9b17      	ldr	r3, [sp, #92]	; 0x5c
     4d2:	0052      	lsls	r2, r2, #1
     4d4:	4694      	mov	ip, r2
     4d6:	449c      	add	ip, r3
     4d8:	9b14      	ldr	r3, [sp, #80]	; 0x50
     4da:	9a0f      	ldr	r2, [sp, #60]	; 0x3c
     4dc:	1a9a      	subs	r2, r3, r2
     4de:	4362      	muls	r2, r4
     4e0:	9b17      	ldr	r3, [sp, #92]	; 0x5c
     4e2:	0052      	lsls	r2, r2, #1
     4e4:	18d2      	adds	r2, r2, r3
     4e6:	9211      	str	r2, [sp, #68]	; 0x44
     4e8:	040a      	lsls	r2, r1, #16
     4ea:	0c12      	lsrs	r2, r2, #16
     4ec:	9210      	str	r2, [sp, #64]	; 0x40
     4ee:	004a      	lsls	r2, r1, #1
     4f0:	920e      	str	r2, [sp, #56]	; 0x38
     4f2:	e02c      	b.n	54e <_DrawBitmap+0x2cc>
     4f4:	4bf5      	ldr	r3, [pc, #980]	; (8cc <_DrawBitmapEx+0xc0>)
     4f6:	9a01      	ldr	r2, [sp, #4]
     4f8:	6bd9      	ldr	r1, [r3, #60]	; 0x3c
     4fa:	434a      	muls	r2, r1
     4fc:	0051      	lsls	r1, r2, #1
     4fe:	6b9a      	ldr	r2, [r3, #56]	; 0x38
     500:	1889      	adds	r1, r1, r2
     502:	9a0e      	ldr	r2, [sp, #56]	; 0x38
     504:	188b      	adds	r3, r1, r2
     506:	2d00      	cmp	r5, #0
     508:	d007      	beq.n	51a <_DrawBitmap+0x298>
     50a:	9901      	ldr	r1, [sp, #4]
     50c:	4674      	mov	r4, lr
     50e:	1bc9      	subs	r1, r1, r7
     510:	1a61      	subs	r1, r4, r1
     512:	9a11      	ldr	r2, [sp, #68]	; 0x44
     514:	0049      	lsls	r1, r1, #1
     516:	1851      	adds	r1, r2, r1
     518:	e005      	b.n	526 <_DrawBitmap+0x2a4>
     51a:	9901      	ldr	r1, [sp, #4]
     51c:	4674      	mov	r4, lr
     51e:	1bc9      	subs	r1, r1, r7
     520:	1a61      	subs	r1, r4, r1
     522:	0049      	lsls	r1, r1, #1
     524:	4461      	add	r1, ip
     526:	9a10      	ldr	r2, [sp, #64]	; 0x40
     528:	e00a      	b.n	540 <_DrawBitmap+0x2be>
     52a:	880c      	ldrh	r4, [r1, #0]
     52c:	801c      	strh	r4, [r3, #0]
     52e:	3302      	adds	r3, #2
     530:	1a0c      	subs	r4, r1, r0
     532:	2d00      	cmp	r5, #0
     534:	d100      	bne.n	538 <_DrawBitmap+0x2b6>
     536:	1844      	adds	r4, r0, r1
     538:	1c21      	adds	r1, r4, #0
     53a:	3201      	adds	r2, #1
     53c:	0412      	lsls	r2, r2, #16
     53e:	0c12      	lsrs	r2, r2, #16
     540:	42b2      	cmp	r2, r6
     542:	dbf2      	blt.n	52a <_DrawBitmap+0x2a8>
     544:	9901      	ldr	r1, [sp, #4]
     546:	3101      	adds	r1, #1
     548:	0409      	lsls	r1, r1, #16
     54a:	0c09      	lsrs	r1, r1, #16
     54c:	9101      	str	r1, [sp, #4]
     54e:	9901      	ldr	r1, [sp, #4]
     550:	9a03      	ldr	r2, [sp, #12]
     552:	4291      	cmp	r1, r2
     554:	dbce      	blt.n	4f4 <_DrawBitmap+0x272>
     556:	e703      	b.n	360 <_DrawBitmap+0xde>
     558:	9201      	str	r2, [sp, #4]
     55a:	4662      	mov	r2, ip
     55c:	1a8a      	subs	r2, r1, r2
     55e:	4670      	mov	r0, lr
     560:	1a80      	subs	r0, r0, r2
     562:	0042      	lsls	r2, r0, #1
     564:	0408      	lsls	r0, r1, #16
     566:	0c00      	lsrs	r0, r0, #16
     568:	0049      	lsls	r1, r1, #1
     56a:	910d      	str	r1, [sp, #52]	; 0x34
     56c:	4686      	mov	lr, r0
     56e:	4694      	mov	ip, r2
     570:	e02d      	b.n	5ce <_DrawBitmap+0x34c>
     572:	49d6      	ldr	r1, [pc, #856]	; (8cc <_DrawBitmapEx+0xc0>)
     574:	9a01      	ldr	r2, [sp, #4]
     576:	6bc8      	ldr	r0, [r1, #60]	; 0x3c
     578:	6b89      	ldr	r1, [r1, #56]	; 0x38
     57a:	4342      	muls	r2, r0
     57c:	0050      	lsls	r0, r2, #1
     57e:	1840      	adds	r0, r0, r1
     580:	990d      	ldr	r1, [sp, #52]	; 0x34
     582:	1841      	adds	r1, r0, r1
     584:	2d00      	cmp	r5, #0
     586:	d008      	beq.n	59a <_DrawBitmap+0x318>
     588:	9a01      	ldr	r2, [sp, #4]
     58a:	1bd0      	subs	r0, r2, r7
     58c:	4360      	muls	r0, r4
     58e:	9a17      	ldr	r2, [sp, #92]	; 0x5c
     590:	0040      	lsls	r0, r0, #1
     592:	1880      	adds	r0, r0, r2
     594:	1c02      	adds	r2, r0, #0
     596:	4462      	add	r2, ip
     598:	e009      	b.n	5ae <_DrawBitmap+0x32c>
     59a:	9a01      	ldr	r2, [sp, #4]
     59c:	9b14      	ldr	r3, [sp, #80]	; 0x50
     59e:	1bd0      	subs	r0, r2, r7
     5a0:	1a18      	subs	r0, r3, r0
     5a2:	4360      	muls	r0, r4
     5a4:	9a17      	ldr	r2, [sp, #92]	; 0x5c
     5a6:	0040      	lsls	r0, r0, #1
     5a8:	1880      	adds	r0, r0, r2
     5aa:	1c02      	adds	r2, r0, #0
     5ac:	4462      	add	r2, ip
     5ae:	4670      	mov	r0, lr
     5b0:	e006      	b.n	5c0 <_DrawBitmap+0x33e>
     5b2:	8813      	ldrh	r3, [r2, #0]
     5b4:	800b      	strh	r3, [r1, #0]
     5b6:	3102      	adds	r1, #2
     5b8:	3a02      	subs	r2, #2
     5ba:	3001      	adds	r0, #1
     5bc:	0400      	lsls	r0, r0, #16
     5be:	0c00      	lsrs	r0, r0, #16
     5c0:	42b0      	cmp	r0, r6
     5c2:	dbf6      	blt.n	5b2 <_DrawBitmap+0x330>
     5c4:	9a01      	ldr	r2, [sp, #4]
     5c6:	3201      	adds	r2, #1
     5c8:	0412      	lsls	r2, r2, #16
     5ca:	0c12      	lsrs	r2, r2, #16
     5cc:	9201      	str	r2, [sp, #4]
     5ce:	9803      	ldr	r0, [sp, #12]
     5d0:	9a01      	ldr	r2, [sp, #4]
     5d2:	4282      	cmp	r2, r0
     5d4:	dbcd      	blt.n	572 <_DrawBitmap+0x2f0>
     5d6:	e6c3      	b.n	360 <_DrawBitmap+0xde>
     5d8:	4bbc      	ldr	r3, [pc, #752]	; (8cc <_DrawBitmapEx+0xc0>)
     5da:	4672      	mov	r2, lr
     5dc:	6bd9      	ldr	r1, [r3, #60]	; 0x3c
     5de:	434a      	muls	r2, r1
     5e0:	0051      	lsls	r1, r2, #1
     5e2:	6b9a      	ldr	r2, [r3, #56]	; 0x38
     5e4:	1889      	adds	r1, r1, r2
     5e6:	9a09      	ldr	r2, [sp, #36]	; 0x24
     5e8:	188b      	adds	r3, r1, r2
     5ea:	2d00      	cmp	r5, #0
     5ec:	d005      	beq.n	5fa <_DrawBitmap+0x378>
     5ee:	4672      	mov	r2, lr
     5f0:	1bd2      	subs	r2, r2, r7
     5f2:	0052      	lsls	r2, r2, #1
     5f4:	4661      	mov	r1, ip
     5f6:	1889      	adds	r1, r1, r2
     5f8:	e004      	b.n	604 <_DrawBitmap+0x382>
     5fa:	4672      	mov	r2, lr
     5fc:	1bd2      	subs	r2, r2, r7
     5fe:	990c      	ldr	r1, [sp, #48]	; 0x30
     600:	0052      	lsls	r2, r2, #1
     602:	1889      	adds	r1, r1, r2
     604:	9a0b      	ldr	r2, [sp, #44]	; 0x2c
     606:	e00a      	b.n	61e <_DrawBitmap+0x39c>
     608:	880c      	ldrh	r4, [r1, #0]
     60a:	801c      	strh	r4, [r3, #0]
     60c:	3302      	adds	r3, #2
     60e:	1844      	adds	r4, r0, r1
     610:	2d00      	cmp	r5, #0
     612:	d100      	bne.n	616 <_DrawBitmap+0x394>
     614:	1a0c      	subs	r4, r1, r0
     616:	1c21      	adds	r1, r4, #0
     618:	3201      	adds	r2, #1
     61a:	0412      	lsls	r2, r2, #16
     61c:	0c12      	lsrs	r2, r2, #16
     61e:	42b2      	cmp	r2, r6
     620:	dbf2      	blt.n	608 <_DrawBitmap+0x386>
     622:	4672      	mov	r2, lr
     624:	3201      	adds	r2, #1
     626:	0412      	lsls	r2, r2, #16
     628:	0c12      	lsrs	r2, r2, #16
     62a:	4696      	mov	lr, r2
     62c:	9903      	ldr	r1, [sp, #12]
     62e:	458e      	cmp	lr, r1
     630:	dbd2      	blt.n	5d8 <_DrawBitmap+0x356>
     632:	e695      	b.n	360 <_DrawBitmap+0xde>
     634:	9d21      	ldr	r5, [sp, #132]	; 0x84
     636:	2d0a      	cmp	r5, #10
     638:	d28d      	bcs.n	556 <_DrawBitmap+0x2d4>
     63a:	a302      	add	r3, pc, #8	; (adr r3, 644 <_DrawBitmap+0x3c2>)
     63c:	5d5b      	ldrb	r3, [r3, r5]
     63e:	005b      	lsls	r3, r3, #1
     640:	449f      	add	pc, r3
     642:	0000      	.short	0x0000
     644:	60386060 	.word	0x60386060
     648:	60056060 	.word	0x60056060
     64c:	6060      	.short	0x6060
     64e:	040b      	lsls	r3, r1, #16
     650:	0c1b      	lsrs	r3, r3, #16
     652:	469e      	mov	lr, r3
     654:	4663      	mov	r3, ip
     656:	1acb      	subs	r3, r1, r3
     658:	0049      	lsls	r1, r1, #1
     65a:	1818      	adds	r0, r3, r0
     65c:	0043      	lsls	r3, r0, #1
     65e:	9308      	str	r3, [sp, #32]
     660:	468c      	mov	ip, r1
     662:	e023      	b.n	6ac <_DrawBitmap+0x42a>
     664:	4999      	ldr	r1, [pc, #612]	; (8cc <_DrawBitmapEx+0xc0>)
     666:	1c13      	adds	r3, r2, #0
     668:	6bc8      	ldr	r0, [r1, #60]	; 0x3c
     66a:	6b89      	ldr	r1, [r1, #56]	; 0x38
     66c:	4343      	muls	r3, r0
     66e:	0058      	lsls	r0, r3, #1
     670:	1840      	adds	r0, r0, r1
     672:	1c01      	adds	r1, r0, #0
     674:	4461      	add	r1, ip
     676:	9b24      	ldr	r3, [sp, #144]	; 0x90
     678:	1bd0      	subs	r0, r2, r7
     67a:	18c0      	adds	r0, r0, r3
     67c:	9b25      	ldr	r3, [sp, #148]	; 0x94
     67e:	4358      	muls	r0, r3
     680:	9b17      	ldr	r3, [sp, #92]	; 0x5c
     682:	0040      	lsls	r0, r0, #1
     684:	18c0      	adds	r0, r0, r3
     686:	9b08      	ldr	r3, [sp, #32]
     688:	18c3      	adds	r3, r0, r3
     68a:	4670      	mov	r0, lr
     68c:	e009      	b.n	6a2 <_DrawBitmap+0x420>
     68e:	881c      	ldrh	r4, [r3, #0]
     690:	9d22      	ldr	r5, [sp, #136]	; 0x88
     692:	42ac      	cmp	r4, r5
     694:	d000      	beq.n	698 <_DrawBitmap+0x416>
     696:	800c      	strh	r4, [r1, #0]
     698:	3102      	adds	r1, #2
     69a:	3302      	adds	r3, #2
     69c:	3001      	adds	r0, #1
     69e:	0400      	lsls	r0, r0, #16
     6a0:	0c00      	lsrs	r0, r0, #16
     6a2:	42b0      	cmp	r0, r6
     6a4:	dbf3      	blt.n	68e <_DrawBitmap+0x40c>
     6a6:	3201      	adds	r2, #1
     6a8:	0412      	lsls	r2, r2, #16
     6aa:	0c12      	lsrs	r2, r2, #16
     6ac:	9803      	ldr	r0, [sp, #12]
     6ae:	4282      	cmp	r2, r0
     6b0:	dbd8      	blt.n	664 <_DrawBitmap+0x3e2>
     6b2:	e655      	b.n	360 <_DrawBitmap+0xde>
     6b4:	428e      	cmp	r6, r1
     6b6:	dd8e      	ble.n	5d6 <_DrawBitmap+0x354>
     6b8:	1c14      	adds	r4, r2, #0
     6ba:	4663      	mov	r3, ip
     6bc:	1acb      	subs	r3, r1, r3
     6be:	1a72      	subs	r2, r6, r1
     6c0:	0049      	lsls	r1, r1, #1
     6c2:	1818      	adds	r0, r3, r0
     6c4:	0045      	lsls	r5, r0, #1
     6c6:	0056      	lsls	r6, r2, #1
     6c8:	9107      	str	r1, [sp, #28]
     6ca:	e017      	b.n	6fc <_DrawBitmap+0x47a>
     6cc:	497f      	ldr	r1, [pc, #508]	; (8cc <_DrawBitmapEx+0xc0>)
     6ce:	1c22      	adds	r2, r4, #0
     6d0:	6bc8      	ldr	r0, [r1, #60]	; 0x3c
     6d2:	6b89      	ldr	r1, [r1, #56]	; 0x38
     6d4:	4342      	muls	r2, r0
     6d6:	0050      	lsls	r0, r2, #1
     6d8:	1840      	adds	r0, r0, r1
     6da:	9907      	ldr	r1, [sp, #28]
     6dc:	1840      	adds	r0, r0, r1
     6de:	9b24      	ldr	r3, [sp, #144]	; 0x90
     6e0:	1be1      	subs	r1, r4, r7
     6e2:	18c9      	adds	r1, r1, r3
     6e4:	9b25      	ldr	r3, [sp, #148]	; 0x94
     6e6:	9a17      	ldr	r2, [sp, #92]	; 0x5c
     6e8:	4359      	muls	r1, r3
     6ea:	0049      	lsls	r1, r1, #1
     6ec:	1889      	adds	r1, r1, r2
     6ee:	1949      	adds	r1, r1, r5
     6f0:	1c32      	adds	r2, r6, #0
     6f2:	f7ff fffe 	bl	0 <__rt_memcpy>
     6f6:	3401      	adds	r4, #1
     6f8:	0424      	lsls	r4, r4, #16
     6fa:	0c24      	lsrs	r4, r4, #16
     6fc:	9803      	ldr	r0, [sp, #12]
     6fe:	4284      	cmp	r4, r0
     700:	dbe4      	blt.n	6cc <_DrawBitmap+0x44a>
     702:	e62d      	b.n	360 <_DrawBitmap+0xde>
     704:	9201      	str	r2, [sp, #4]
     706:	040a      	lsls	r2, r1, #16
     708:	0c12      	lsrs	r2, r2, #16
     70a:	9206      	str	r2, [sp, #24]
     70c:	4662      	mov	r2, ip
     70e:	1a8a      	subs	r2, r1, r2
     710:	0049      	lsls	r1, r1, #1
     712:	9105      	str	r1, [sp, #20]
     714:	1810      	adds	r0, r2, r0
     716:	0041      	lsls	r1, r0, #1
     718:	9104      	str	r1, [sp, #16]
     71a:	e072      	b.n	802 <_DrawBitmap+0x580>
     71c:	496b      	ldr	r1, [pc, #428]	; (8cc <_DrawBitmapEx+0xc0>)
     71e:	9a01      	ldr	r2, [sp, #4]
     720:	6bc8      	ldr	r0, [r1, #60]	; 0x3c
     722:	6b89      	ldr	r1, [r1, #56]	; 0x38
     724:	4342      	muls	r2, r0
     726:	0050      	lsls	r0, r2, #1
     728:	1840      	adds	r0, r0, r1
     72a:	9905      	ldr	r1, [sp, #20]
     72c:	1844      	adds	r4, r0, r1
     72e:	9a01      	ldr	r2, [sp, #4]
     730:	9924      	ldr	r1, [sp, #144]	; 0x90
     732:	1bd0      	subs	r0, r2, r7
     734:	1840      	adds	r0, r0, r1
     736:	9925      	ldr	r1, [sp, #148]	; 0x94
     738:	4348      	muls	r0, r1
     73a:	9917      	ldr	r1, [sp, #92]	; 0x5c
     73c:	0040      	lsls	r0, r0, #1
     73e:	1840      	adds	r0, r0, r1
     740:	9904      	ldr	r1, [sp, #16]
     742:	1845      	adds	r5, r0, r1
     744:	9806      	ldr	r0, [sp, #24]
     746:	9002      	str	r0, [sp, #8]
     748:	e053      	b.n	7f2 <_DrawBitmap+0x570>
     74a:	9821      	ldr	r0, [sp, #132]	; 0x84
     74c:	280a      	cmp	r0, #10
     74e:	d23f      	bcs.n	7d0 <_DrawBitmap+0x54e>
     750:	a301      	add	r3, pc, #4	; (adr r3, 758 <_DrawBitmap+0x4d6>)
     752:	5c1b      	ldrb	r3, [r3, r0]
     754:	005b      	lsls	r3, r3, #1
     756:	449f      	add	pc, r3
     758:	323b2d28 	.word	0x323b2d28
     75c:	413b3c36 	.word	0x413b3c36
     760:	2104      	.short	0x2104
     762:	8829      	ldrh	r1, [r5, #0]
     764:	9822      	ldr	r0, [sp, #136]	; 0x88
     766:	4281      	cmp	r1, r0
     768:	d032      	beq.n	7d0 <_DrawBitmap+0x54e>
     76a:	0408      	lsls	r0, r1, #16
     76c:	0ec2      	lsrs	r2, r0, #27
     76e:	0548      	lsls	r0, r1, #21
     770:	0ec0      	lsrs	r0, r0, #27
     772:	06c9      	lsls	r1, r1, #27
     774:	0ec9      	lsrs	r1, r1, #27
     776:	233c      	movs	r3, #60	; 0x3c
     778:	435a      	muls	r2, r3
     77a:	2376      	movs	r3, #118	; 0x76
     77c:	4358      	muls	r0, r3
     77e:	2316      	movs	r3, #22
     780:	4359      	muls	r1, r3
     782:	1810      	adds	r0, r2, r0
     784:	1841      	adds	r1, r0, r1
     786:	2019      	movs	r0, #25
     788:	f7ff fffe 	bl	0 <__rt_udiv>
     78c:	08c1      	lsrs	r1, r0, #3
     78e:	0880      	lsrs	r0, r0, #2
     790:	0140      	lsls	r0, r0, #5
     792:	02ca      	lsls	r2, r1, #11
     794:	1810      	adds	r0, r2, r0
     796:	1840      	adds	r0, r0, r1
     798:	8020      	strh	r0, [r4, #0]
     79a:	e019      	b.n	7d0 <_DrawBitmap+0x54e>
     79c:	8828      	ldrh	r0, [r5, #0]
     79e:	9922      	ldr	r1, [sp, #136]	; 0x88
     7a0:	4288      	cmp	r0, r1
     7a2:	d015      	beq.n	7d0 <_DrawBitmap+0x54e>
     7a4:	43c0      	mvns	r0, r0
     7a6:	8020      	strh	r0, [r4, #0]
     7a8:	e012      	b.n	7d0 <_DrawBitmap+0x54e>
     7aa:	8828      	ldrh	r0, [r5, #0]
     7ac:	8821      	ldrh	r1, [r4, #0]
     7ae:	4308      	orrs	r0, r1
     7b0:	8020      	strh	r0, [r4, #0]
     7b2:	e00d      	b.n	7d0 <_DrawBitmap+0x54e>
     7b4:	8828      	ldrh	r0, [r5, #0]
     7b6:	8821      	ldrh	r1, [r4, #0]
     7b8:	4048      	eors	r0, r1
     7ba:	8020      	strh	r0, [r4, #0]
     7bc:	e008      	b.n	7d0 <_DrawBitmap+0x54e>
     7be:	8828      	ldrh	r0, [r5, #0]
     7c0:	43c0      	mvns	r0, r0
     7c2:	8020      	strh	r0, [r4, #0]
     7c4:	e004      	b.n	7d0 <_DrawBitmap+0x54e>
     7c6:	8828      	ldrh	r0, [r5, #0]
     7c8:	8821      	ldrh	r1, [r4, #0]
     7ca:	43c0      	mvns	r0, r0
     7cc:	4308      	orrs	r0, r1
     7ce:	8020      	strh	r0, [r4, #0]
     7d0:	e008      	b.n	7e4 <_DrawBitmap+0x562>
     7d2:	8820      	ldrh	r0, [r4, #0]
     7d4:	8829      	ldrh	r1, [r5, #0]
     7d6:	4388      	bics	r0, r1
     7d8:	8020      	strh	r0, [r4, #0]
     7da:	e003      	b.n	7e4 <_DrawBitmap+0x562>
     7dc:	8828      	ldrh	r0, [r5, #0]
     7de:	8821      	ldrh	r1, [r4, #0]
     7e0:	4008      	ands	r0, r1
     7e2:	8020      	strh	r0, [r4, #0]
     7e4:	3402      	adds	r4, #2
     7e6:	3502      	adds	r5, #2
     7e8:	9802      	ldr	r0, [sp, #8]
     7ea:	3001      	adds	r0, #1
     7ec:	0400      	lsls	r0, r0, #16
     7ee:	0c00      	lsrs	r0, r0, #16
     7f0:	9002      	str	r0, [sp, #8]
     7f2:	9802      	ldr	r0, [sp, #8]
     7f4:	42b0      	cmp	r0, r6
     7f6:	dba8      	blt.n	74a <_DrawBitmap+0x4c8>
     7f8:	9a01      	ldr	r2, [sp, #4]
     7fa:	3201      	adds	r2, #1
     7fc:	0412      	lsls	r2, r2, #16
     7fe:	0c12      	lsrs	r2, r2, #16
     800:	9201      	str	r2, [sp, #4]
     802:	9803      	ldr	r0, [sp, #12]
     804:	9a01      	ldr	r2, [sp, #4]
     806:	4282      	cmp	r2, r0
     808:	db88      	blt.n	71c <_DrawBitmap+0x49a>
     80a:	e5a9      	b.n	360 <_DrawBitmap+0xde>

0000080c <_DrawBitmapEx>:
     80c:	b5ff      	push	{r0, r1, r2, r3, r4, r5, r6, r7, lr}
     80e:	b0a5      	sub	sp, #148	; 0x94
     810:	45d5      	cmp	sp, sl
     812:	d201      	bcs.n	818 <_DrawBitmapEx+0xc>
     814:	f7ff fffe 	bl	0 <__rt_stkovf_split_small>
     818:	1c07      	adds	r7, r0, #0
     81a:	992e      	ldr	r1, [sp, #184]	; 0xb8
     81c:	2300      	movs	r3, #0
     81e:	5ec8      	ldrsh	r0, [r1, r3]
     820:	900b      	str	r0, [sp, #44]	; 0x2c
     822:	992e      	ldr	r1, [sp, #184]	; 0xb8
     824:	2302      	movs	r3, #2
     826:	5ec9      	ldrsh	r1, [r1, r3]
     828:	910a      	str	r1, [sp, #40]	; 0x28
     82a:	992e      	ldr	r1, [sp, #184]	; 0xb8
     82c:	2304      	movs	r3, #4
     82e:	5ec9      	ldrsh	r1, [r1, r3]
     830:	1c0c      	adds	r4, r1, #0
     832:	992e      	ldr	r1, [sp, #184]	; 0xb8
     834:	2306      	movs	r3, #6
     836:	5ecd      	ldrsh	r5, [r1, r3]
     838:	9926      	ldr	r1, [sp, #152]	; 0x98
     83a:	8908      	ldrh	r0, [r1, #8]
     83c:	9927      	ldr	r1, [sp, #156]	; 0x9c
     83e:	0849      	lsrs	r1, r1, #1
     840:	1840      	adds	r0, r0, r1
     842:	0402      	lsls	r2, r0, #16
     844:	1412      	asrs	r2, r2, #16
     846:	9208      	str	r2, [sp, #32]
     848:	9124      	str	r1, [sp, #144]	; 0x90
     84a:	9926      	ldr	r1, [sp, #152]	; 0x98
     84c:	8948      	ldrh	r0, [r1, #10]
     84e:	9a28      	ldr	r2, [sp, #160]	; 0xa0
     850:	0851      	lsrs	r1, r2, #1
     852:	1840      	adds	r0, r0, r1
     854:	0402      	lsls	r2, r0, #16
     856:	1412      	asrs	r2, r2, #16
     858:	9207      	str	r2, [sp, #28]
     85a:	9123      	str	r1, [sp, #140]	; 0x8c
     85c:	980b      	ldr	r0, [sp, #44]	; 0x2c
     85e:	990a      	ldr	r1, [sp, #40]	; 0x28
     860:	4368      	muls	r0, r5
     862:	4361      	muls	r1, r4
     864:	1a41      	subs	r1, r0, r1
     866:	9105      	str	r1, [sp, #20]
     868:	1c21      	adds	r1, r4, #0
     86a:	2c00      	cmp	r4, #0
     86c:	da00      	bge.n	870 <_DrawBitmapEx+0x64>
     86e:	4249      	negs	r1, r1
     870:	9827      	ldr	r0, [sp, #156]	; 0x9c
     872:	4341      	muls	r1, r0
     874:	1c28      	adds	r0, r5, #0
     876:	2d00      	cmp	r5, #0
     878:	da00      	bge.n	87c <_DrawBitmapEx+0x70>
     87a:	4240      	negs	r0, r0
     87c:	9a28      	ldr	r2, [sp, #160]	; 0xa0
     87e:	4350      	muls	r0, r2
     880:	1808      	adds	r0, r1, r0
     882:	1240      	asrs	r0, r0, #9
     884:	0401      	lsls	r1, r0, #16
     886:	1409      	asrs	r1, r1, #16
     888:	4248      	negs	r0, r1
     88a:	0400      	lsls	r0, r0, #16
     88c:	1400      	asrs	r0, r0, #16
     88e:	9a26      	ldr	r2, [sp, #152]	; 0x98
     890:	88d2      	ldrh	r2, [r2, #6]
     892:	9b07      	ldr	r3, [sp, #28]
     894:	1ad2      	subs	r2, r2, r3
     896:	428a      	cmp	r2, r1
     898:	dc00      	bgt.n	89c <_DrawBitmapEx+0x90>
     89a:	1c11      	adds	r1, r2, #0
     89c:	0409      	lsls	r1, r1, #16
     89e:	1409      	asrs	r1, r1, #16
     8a0:	9104      	str	r1, [sp, #16]
     8a2:	9a07      	ldr	r2, [sp, #28]
     8a4:	4251      	negs	r1, r2
     8a6:	4288      	cmp	r0, r1
     8a8:	dc00      	bgt.n	8ac <_DrawBitmapEx+0xa0>
     8aa:	1c08      	adds	r0, r1, #0
     8ac:	0406      	lsls	r6, r0, #16
     8ae:	1436      	asrs	r6, r6, #16
     8b0:	9a08      	ldr	r2, [sp, #32]
     8b2:	9905      	ldr	r1, [sp, #20]
     8b4:	4250      	negs	r0, r2
     8b6:	9022      	str	r0, [sp, #136]	; 0x88
     8b8:	9828      	ldr	r0, [sp, #160]	; 0xa0
     8ba:	4348      	muls	r0, r1
     8bc:	1241      	asrs	r1, r0, #9
     8be:	9121      	str	r1, [sp, #132]	; 0x84
     8c0:	9905      	ldr	r1, [sp, #20]
     8c2:	9827      	ldr	r0, [sp, #156]	; 0x9c
     8c4:	4348      	muls	r0, r1
     8c6:	1240      	asrs	r0, r0, #9
     8c8:	9020      	str	r0, [sp, #128]	; 0x80
     8ca:	e17e      	b.n	bca <_DrawBitmapEx+0x3be>
     8cc:	00000000 	.word	0x00000000
     8d0:	48e7      	ldr	r0, [pc, #924]	; (c70 <DrawRect+0x9a>)
     8d2:	2d00      	cmp	r5, #0
     8d4:	d013      	beq.n	8fe <_DrawBitmapEx+0xf2>
     8d6:	980a      	ldr	r0, [sp, #40]	; 0x28
     8d8:	9920      	ldr	r1, [sp, #128]	; 0x80
     8da:	4370      	muls	r0, r6
     8dc:	901f      	str	r0, [sp, #124]	; 0x7c
     8de:	1809      	adds	r1, r1, r0
     8e0:	1c28      	adds	r0, r5, #0
     8e2:	f7ff fffe 	bl	0 <__rt_sdiv>
     8e6:	901e      	str	r0, [sp, #120]	; 0x78
     8e8:	9002      	str	r0, [sp, #8]
     8ea:	981f      	ldr	r0, [sp, #124]	; 0x7c
     8ec:	9920      	ldr	r1, [sp, #128]	; 0x80
     8ee:	1a41      	subs	r1, r0, r1
     8f0:	1c28      	adds	r0, r5, #0
     8f2:	f7ff fffe 	bl	0 <__rt_sdiv>
     8f6:	9902      	ldr	r1, [sp, #8]
     8f8:	4281      	cmp	r1, r0
     8fa:	dd00      	ble.n	8fe <_DrawBitmapEx+0xf2>
     8fc:	981e      	ldr	r0, [sp, #120]	; 0x78
     8fe:	9002      	str	r0, [sp, #8]
     900:	48db      	ldr	r0, [pc, #876]	; (c70 <DrawRect+0x9a>)
     902:	2c00      	cmp	r4, #0
     904:	d013      	beq.n	92e <_DrawBitmapEx+0x122>
     906:	980b      	ldr	r0, [sp, #44]	; 0x2c
     908:	9921      	ldr	r1, [sp, #132]	; 0x84
     90a:	4370      	muls	r0, r6
     90c:	901d      	str	r0, [sp, #116]	; 0x74
     90e:	1841      	adds	r1, r0, r1
     910:	1c20      	adds	r0, r4, #0
     912:	f7ff fffe 	bl	0 <__rt_sdiv>
     916:	9001      	str	r0, [sp, #4]
     918:	901c      	str	r0, [sp, #112]	; 0x70
     91a:	981d      	ldr	r0, [sp, #116]	; 0x74
     91c:	9921      	ldr	r1, [sp, #132]	; 0x84
     91e:	1a41      	subs	r1, r0, r1
     920:	1c20      	adds	r0, r4, #0
     922:	f7ff fffe 	bl	0 <__rt_sdiv>
     926:	9901      	ldr	r1, [sp, #4]
     928:	4281      	cmp	r1, r0
     92a:	dd00      	ble.n	92e <_DrawBitmapEx+0x122>
     92c:	981c      	ldr	r0, [sp, #112]	; 0x70
     92e:	1c01      	adds	r1, r0, #0
     930:	9802      	ldr	r0, [sp, #8]
     932:	4288      	cmp	r0, r1
     934:	da17      	bge.n	966 <_DrawBitmapEx+0x15a>
     936:	48ce      	ldr	r0, [pc, #824]	; (c70 <DrawRect+0x9a>)
     938:	2d00      	cmp	r5, #0
     93a:	d02b      	beq.n	994 <_DrawBitmapEx+0x188>
     93c:	980a      	ldr	r0, [sp, #40]	; 0x28
     93e:	9920      	ldr	r1, [sp, #128]	; 0x80
     940:	4370      	muls	r0, r6
     942:	901b      	str	r0, [sp, #108]	; 0x6c
     944:	1809      	adds	r1, r1, r0
     946:	1c28      	adds	r0, r5, #0
     948:	f7ff fffe 	bl	0 <__rt_sdiv>
     94c:	901a      	str	r0, [sp, #104]	; 0x68
     94e:	9002      	str	r0, [sp, #8]
     950:	981b      	ldr	r0, [sp, #108]	; 0x6c
     952:	9920      	ldr	r1, [sp, #128]	; 0x80
     954:	1a41      	subs	r1, r0, r1
     956:	1c28      	adds	r0, r5, #0
     958:	f7ff fffe 	bl	0 <__rt_sdiv>
     95c:	9902      	ldr	r1, [sp, #8]
     95e:	4281      	cmp	r1, r0
     960:	dd18      	ble.n	994 <_DrawBitmapEx+0x188>
     962:	981a      	ldr	r0, [sp, #104]	; 0x68
     964:	e016      	b.n	994 <_DrawBitmapEx+0x188>
     966:	48c2      	ldr	r0, [pc, #776]	; (c70 <DrawRect+0x9a>)
     968:	2c00      	cmp	r4, #0
     96a:	d013      	beq.n	994 <_DrawBitmapEx+0x188>
     96c:	980b      	ldr	r0, [sp, #44]	; 0x2c
     96e:	4370      	muls	r0, r6
     970:	9019      	str	r0, [sp, #100]	; 0x64
     972:	9921      	ldr	r1, [sp, #132]	; 0x84
     974:	1841      	adds	r1, r0, r1
     976:	1c20      	adds	r0, r4, #0
     978:	f7ff fffe 	bl	0 <__rt_sdiv>
     97c:	9018      	str	r0, [sp, #96]	; 0x60
     97e:	9002      	str	r0, [sp, #8]
     980:	9819      	ldr	r0, [sp, #100]	; 0x64
     982:	9921      	ldr	r1, [sp, #132]	; 0x84
     984:	1a41      	subs	r1, r0, r1
     986:	1c20      	adds	r0, r4, #0
     988:	f7ff fffe 	bl	0 <__rt_sdiv>
     98c:	9902      	ldr	r1, [sp, #8]
     98e:	4281      	cmp	r1, r0
     990:	dd00      	ble.n	994 <_DrawBitmapEx+0x188>
     992:	9818      	ldr	r0, [sp, #96]	; 0x60
     994:	0403      	lsls	r3, r0, #16
     996:	141b      	asrs	r3, r3, #16
     998:	9303      	str	r3, [sp, #12]
     99a:	48b5      	ldr	r0, [pc, #724]	; (c70 <DrawRect+0x9a>)
     99c:	4240      	negs	r0, r0
     99e:	2d00      	cmp	r5, #0
     9a0:	d013      	beq.n	9ca <_DrawBitmapEx+0x1be>
     9a2:	990a      	ldr	r1, [sp, #40]	; 0x28
     9a4:	9820      	ldr	r0, [sp, #128]	; 0x80
     9a6:	4371      	muls	r1, r6
     9a8:	9117      	str	r1, [sp, #92]	; 0x5c
     9aa:	1a09      	subs	r1, r1, r0
     9ac:	1c28      	adds	r0, r5, #0
     9ae:	f7ff fffe 	bl	0 <__rt_sdiv>
     9b2:	9016      	str	r0, [sp, #88]	; 0x58
     9b4:	9002      	str	r0, [sp, #8]
     9b6:	9820      	ldr	r0, [sp, #128]	; 0x80
     9b8:	9917      	ldr	r1, [sp, #92]	; 0x5c
     9ba:	1841      	adds	r1, r0, r1
     9bc:	1c28      	adds	r0, r5, #0
     9be:	f7ff fffe 	bl	0 <__rt_sdiv>
     9c2:	9902      	ldr	r1, [sp, #8]
     9c4:	4281      	cmp	r1, r0
     9c6:	da00      	bge.n	9ca <_DrawBitmapEx+0x1be>
     9c8:	9816      	ldr	r0, [sp, #88]	; 0x58
     9ca:	9002      	str	r0, [sp, #8]
     9cc:	48a8      	ldr	r0, [pc, #672]	; (c70 <DrawRect+0x9a>)
     9ce:	4240      	negs	r0, r0
     9d0:	2c00      	cmp	r4, #0
     9d2:	d013      	beq.n	9fc <_DrawBitmapEx+0x1f0>
     9d4:	980b      	ldr	r0, [sp, #44]	; 0x2c
     9d6:	9921      	ldr	r1, [sp, #132]	; 0x84
     9d8:	4370      	muls	r0, r6
     9da:	9015      	str	r0, [sp, #84]	; 0x54
     9dc:	1a41      	subs	r1, r0, r1
     9de:	1c20      	adds	r0, r4, #0
     9e0:	f7ff fffe 	bl	0 <__rt_sdiv>
     9e4:	9001      	str	r0, [sp, #4]
     9e6:	9014      	str	r0, [sp, #80]	; 0x50
     9e8:	9815      	ldr	r0, [sp, #84]	; 0x54
     9ea:	9921      	ldr	r1, [sp, #132]	; 0x84
     9ec:	1841      	adds	r1, r0, r1
     9ee:	1c20      	adds	r0, r4, #0
     9f0:	f7ff fffe 	bl	0 <__rt_sdiv>
     9f4:	9901      	ldr	r1, [sp, #4]
     9f6:	4281      	cmp	r1, r0
     9f8:	da00      	bge.n	9fc <_DrawBitmapEx+0x1f0>
     9fa:	9814      	ldr	r0, [sp, #80]	; 0x50
     9fc:	1c01      	adds	r1, r0, #0
     9fe:	9802      	ldr	r0, [sp, #8]
     a00:	4288      	cmp	r0, r1
     a02:	dd18      	ble.n	a36 <_DrawBitmapEx+0x22a>
     a04:	489a      	ldr	r0, [pc, #616]	; (c70 <DrawRect+0x9a>)
     a06:	4240      	negs	r0, r0
     a08:	2d00      	cmp	r5, #0
     a0a:	d02c      	beq.n	a66 <_DrawBitmapEx+0x25a>
     a0c:	990a      	ldr	r1, [sp, #40]	; 0x28
     a0e:	9820      	ldr	r0, [sp, #128]	; 0x80
     a10:	4371      	muls	r1, r6
     a12:	9113      	str	r1, [sp, #76]	; 0x4c
     a14:	1a09      	subs	r1, r1, r0
     a16:	1c28      	adds	r0, r5, #0
     a18:	f7ff fffe 	bl	0 <__rt_sdiv>
     a1c:	9012      	str	r0, [sp, #72]	; 0x48
     a1e:	9002      	str	r0, [sp, #8]
     a20:	9820      	ldr	r0, [sp, #128]	; 0x80
     a22:	9913      	ldr	r1, [sp, #76]	; 0x4c
     a24:	1841      	adds	r1, r0, r1
     a26:	1c28      	adds	r0, r5, #0
     a28:	f7ff fffe 	bl	0 <__rt_sdiv>
     a2c:	9902      	ldr	r1, [sp, #8]
     a2e:	4281      	cmp	r1, r0
     a30:	da19      	bge.n	a66 <_DrawBitmapEx+0x25a>
     a32:	9812      	ldr	r0, [sp, #72]	; 0x48
     a34:	e017      	b.n	a66 <_DrawBitmapEx+0x25a>
     a36:	488e      	ldr	r0, [pc, #568]	; (c70 <DrawRect+0x9a>)
     a38:	4240      	negs	r0, r0
     a3a:	2c00      	cmp	r4, #0
     a3c:	d013      	beq.n	a66 <_DrawBitmapEx+0x25a>
     a3e:	980b      	ldr	r0, [sp, #44]	; 0x2c
     a40:	4370      	muls	r0, r6
     a42:	9011      	str	r0, [sp, #68]	; 0x44
     a44:	9921      	ldr	r1, [sp, #132]	; 0x84
     a46:	1a41      	subs	r1, r0, r1
     a48:	1c20      	adds	r0, r4, #0
     a4a:	f7ff fffe 	bl	0 <__rt_sdiv>
     a4e:	9010      	str	r0, [sp, #64]	; 0x40
     a50:	9002      	str	r0, [sp, #8]
     a52:	9811      	ldr	r0, [sp, #68]	; 0x44
     a54:	9921      	ldr	r1, [sp, #132]	; 0x84
     a56:	1841      	adds	r1, r0, r1
     a58:	1c20      	adds	r0, r4, #0
     a5a:	f7ff fffe 	bl	0 <__rt_sdiv>
     a5e:	9902      	ldr	r1, [sp, #8]
     a60:	4281      	cmp	r1, r0
     a62:	da00      	bge.n	a66 <_DrawBitmapEx+0x25a>
     a64:	9810      	ldr	r0, [sp, #64]	; 0x40
     a66:	0400      	lsls	r0, r0, #16
     a68:	1400      	asrs	r0, r0, #16
     a6a:	9926      	ldr	r1, [sp, #152]	; 0x98
     a6c:	9b03      	ldr	r3, [sp, #12]
     a6e:	8889      	ldrh	r1, [r1, #4]
     a70:	9a08      	ldr	r2, [sp, #32]
     a72:	1a8a      	subs	r2, r1, r2
     a74:	429a      	cmp	r2, r3
     a76:	dc00      	bgt.n	a7a <_DrawBitmapEx+0x26e>
     a78:	1c13      	adds	r3, r2, #0
     a7a:	041a      	lsls	r2, r3, #16
     a7c:	1412      	asrs	r2, r2, #16
     a7e:	9203      	str	r2, [sp, #12]
     a80:	9a22      	ldr	r2, [sp, #136]	; 0x88
     a82:	4290      	cmp	r0, r2
     a84:	dc00      	bgt.n	a88 <_DrawBitmapEx+0x27c>
     a86:	9822      	ldr	r0, [sp, #136]	; 0x88
     a88:	0400      	lsls	r0, r0, #16
     a8a:	1400      	asrs	r0, r0, #16
     a8c:	9a07      	ldr	r2, [sp, #28]
     a8e:	18b2      	adds	r2, r6, r2
     a90:	434a      	muls	r2, r1
     a92:	0051      	lsls	r1, r2, #1
     a94:	9a26      	ldr	r2, [sp, #152]	; 0x98
     a96:	6812      	ldr	r2, [r2, #0]
     a98:	1889      	adds	r1, r1, r2
     a9a:	9a08      	ldr	r2, [sp, #32]
     a9c:	1882      	adds	r2, r0, r2
     a9e:	0052      	lsls	r2, r2, #1
     aa0:	1889      	adds	r1, r1, r2
     aa2:	9109      	str	r1, [sp, #36]	; 0x24
     aa4:	992e      	ldr	r1, [sp, #184]	; 0xb8
     aa6:	8909      	ldrh	r1, [r1, #8]
     aa8:	2902      	cmp	r1, #2
     aaa:	d049      	beq.n	b40 <_DrawBitmapEx+0x334>
     aac:	2906      	cmp	r1, #6
     aae:	d146      	bne.n	b3e <_DrawBitmapEx+0x332>
     ab0:	9006      	str	r0, [sp, #24]
     ab2:	980b      	ldr	r0, [sp, #44]	; 0x2c
     ab4:	990a      	ldr	r1, [sp, #40]	; 0x28
     ab6:	4370      	muls	r0, r6
     ab8:	4371      	muls	r1, r6
     aba:	900f      	str	r0, [sp, #60]	; 0x3c
     abc:	910e      	str	r1, [sp, #56]	; 0x38
     abe:	e03a      	b.n	b36 <_DrawBitmapEx+0x32a>
     ac0:	9906      	ldr	r1, [sp, #24]
     ac2:	1c22      	adds	r2, r4, #0
     ac4:	434a      	muls	r2, r1
     ac6:	980f      	ldr	r0, [sp, #60]	; 0x3c
     ac8:	1a80      	subs	r0, r0, r2
     aca:	0201      	lsls	r1, r0, #8
     acc:	9805      	ldr	r0, [sp, #20]
     ace:	f7ff fffe 	bl	0 <__rt_sdiv>
     ad2:	9923      	ldr	r1, [sp, #140]	; 0x8c
     ad4:	1841      	adds	r1, r0, r1
     ad6:	9102      	str	r1, [sp, #8]
     ad8:	9906      	ldr	r1, [sp, #24]
     ada:	1c28      	adds	r0, r5, #0
     adc:	4348      	muls	r0, r1
     ade:	990e      	ldr	r1, [sp, #56]	; 0x38
     ae0:	1a40      	subs	r0, r0, r1
     ae2:	0201      	lsls	r1, r0, #8
     ae4:	9805      	ldr	r0, [sp, #20]
     ae6:	f7ff fffe 	bl	0 <__rt_sdiv>
     aea:	9924      	ldr	r1, [sp, #144]	; 0x90
     aec:	1840      	adds	r0, r0, r1
     aee:	9902      	ldr	r1, [sp, #8]
     af0:	9a28      	ldr	r2, [sp, #160]	; 0xa0
     af2:	4291      	cmp	r1, r2
     af4:	da19      	bge.n	b2a <_DrawBitmapEx+0x31e>
     af6:	9902      	ldr	r1, [sp, #8]
     af8:	2900      	cmp	r1, #0
     afa:	db16      	blt.n	b2a <_DrawBitmapEx+0x31e>
     afc:	9927      	ldr	r1, [sp, #156]	; 0x9c
     afe:	4288      	cmp	r0, r1
     b00:	da13      	bge.n	b2a <_DrawBitmapEx+0x31e>
     b02:	2800      	cmp	r0, #0
     b04:	db11      	blt.n	b2a <_DrawBitmapEx+0x31e>
     b06:	8979      	ldrh	r1, [r7, #10]
     b08:	9a02      	ldr	r2, [sp, #8]
     b0a:	1889      	adds	r1, r1, r2
     b0c:	88ba      	ldrh	r2, [r7, #4]
     b0e:	4351      	muls	r1, r2
     b10:	683a      	ldr	r2, [r7, #0]
     b12:	0049      	lsls	r1, r1, #1
     b14:	1889      	adds	r1, r1, r2
     b16:	893a      	ldrh	r2, [r7, #8]
     b18:	1810      	adds	r0, r2, r0
     b1a:	0040      	lsls	r0, r0, #1
     b1c:	1808      	adds	r0, r1, r0
     b1e:	8800      	ldrh	r0, [r0, #0]
     b20:	992f      	ldr	r1, [sp, #188]	; 0xbc
     b22:	4288      	cmp	r0, r1
     b24:	d001      	beq.n	b2a <_DrawBitmapEx+0x31e>
     b26:	9909      	ldr	r1, [sp, #36]	; 0x24
     b28:	8008      	strh	r0, [r1, #0]
     b2a:	9909      	ldr	r1, [sp, #36]	; 0x24
     b2c:	3102      	adds	r1, #2
     b2e:	9109      	str	r1, [sp, #36]	; 0x24
     b30:	9806      	ldr	r0, [sp, #24]
     b32:	3001      	adds	r0, #1
     b34:	9006      	str	r0, [sp, #24]
     b36:	9803      	ldr	r0, [sp, #12]
     b38:	9906      	ldr	r1, [sp, #24]
     b3a:	4281      	cmp	r1, r0
     b3c:	dbc0      	blt.n	ac0 <_DrawBitmapEx+0x2b4>
     b3e:	e043      	b.n	bc8 <_DrawBitmapEx+0x3bc>
     b40:	9006      	str	r0, [sp, #24]
     b42:	980b      	ldr	r0, [sp, #44]	; 0x2c
     b44:	990a      	ldr	r1, [sp, #40]	; 0x28
     b46:	4370      	muls	r0, r6
     b48:	4371      	muls	r1, r6
     b4a:	900d      	str	r0, [sp, #52]	; 0x34
     b4c:	910c      	str	r1, [sp, #48]	; 0x30
     b4e:	e037      	b.n	bc0 <_DrawBitmapEx+0x3b4>
     b50:	9906      	ldr	r1, [sp, #24]
     b52:	1c22      	adds	r2, r4, #0
     b54:	434a      	muls	r2, r1
     b56:	980d      	ldr	r0, [sp, #52]	; 0x34
     b58:	1a80      	subs	r0, r0, r2
     b5a:	0201      	lsls	r1, r0, #8
     b5c:	9805      	ldr	r0, [sp, #20]
     b5e:	f7ff fffe 	bl	0 <__rt_sdiv>
     b62:	9923      	ldr	r1, [sp, #140]	; 0x8c
     b64:	1841      	adds	r1, r0, r1
     b66:	9102      	str	r1, [sp, #8]
     b68:	9906      	ldr	r1, [sp, #24]
     b6a:	1c28      	adds	r0, r5, #0
     b6c:	4348      	muls	r0, r1
     b6e:	990c      	ldr	r1, [sp, #48]	; 0x30
     b70:	1a40      	subs	r0, r0, r1
     b72:	0201      	lsls	r1, r0, #8
     b74:	9805      	ldr	r0, [sp, #20]
     b76:	f7ff fffe 	bl	0 <__rt_sdiv>
     b7a:	9924      	ldr	r1, [sp, #144]	; 0x90
     b7c:	1840      	adds	r0, r0, r1
     b7e:	9902      	ldr	r1, [sp, #8]
     b80:	9a28      	ldr	r2, [sp, #160]	; 0xa0
     b82:	4291      	cmp	r1, r2
     b84:	da16      	bge.n	bb4 <_DrawBitmapEx+0x3a8>
     b86:	9902      	ldr	r1, [sp, #8]
     b88:	2900      	cmp	r1, #0
     b8a:	db13      	blt.n	bb4 <_DrawBitmapEx+0x3a8>
     b8c:	9927      	ldr	r1, [sp, #156]	; 0x9c
     b8e:	4288      	cmp	r0, r1
     b90:	da10      	bge.n	bb4 <_DrawBitmapEx+0x3a8>
     b92:	2800      	cmp	r0, #0
     b94:	db0e      	blt.n	bb4 <_DrawBitmapEx+0x3a8>
     b96:	8979      	ldrh	r1, [r7, #10]
     b98:	9a02      	ldr	r2, [sp, #8]
     b9a:	1889      	adds	r1, r1, r2
     b9c:	88ba      	ldrh	r2, [r7, #4]
     b9e:	4351      	muls	r1, r2
     ba0:	683a      	ldr	r2, [r7, #0]
     ba2:	0049      	lsls	r1, r1, #1
     ba4:	1889      	adds	r1, r1, r2
     ba6:	893a      	ldrh	r2, [r7, #8]
     ba8:	1810      	adds	r0, r2, r0
     baa:	0040      	lsls	r0, r0, #1
     bac:	1808      	adds	r0, r1, r0
     bae:	8800      	ldrh	r0, [r0, #0]
     bb0:	9909      	ldr	r1, [sp, #36]	; 0x24
     bb2:	8008      	strh	r0, [r1, #0]
     bb4:	9909      	ldr	r1, [sp, #36]	; 0x24
     bb6:	3102      	adds	r1, #2
     bb8:	9109      	str	r1, [sp, #36]	; 0x24
     bba:	9806      	ldr	r0, [sp, #24]
     bbc:	3001      	adds	r0, #1
     bbe:	9006      	str	r0, [sp, #24]
     bc0:	9803      	ldr	r0, [sp, #12]
     bc2:	9906      	ldr	r1, [sp, #24]
     bc4:	4281      	cmp	r1, r0
     bc6:	dbc3      	blt.n	b50 <_DrawBitmapEx+0x344>
     bc8:	3601      	adds	r6, #1
     bca:	9804      	ldr	r0, [sp, #16]
     bcc:	4286      	cmp	r6, r0
     bce:	da00      	bge.n	bd2 <_DrawBitmapEx+0x3c6>
     bd0:	e67e      	b.n	8d0 <_DrawBitmapEx+0xc4>
     bd2:	b029      	add	sp, #164	; 0xa4
     bd4:	bdf0      	pop	{r4, r5, r6, r7, pc}

00000bd6 <DrawRect>:
     bd6:	b5fe      	push	{r1, r2, r3, r4, r5, r6, r7, lr}
     bd8:	45d5      	cmp	sp, sl
     bda:	d201      	bcs.n	be0 <DrawRect+0xa>
     bdc:	f7ff fffe 	bl	0 <__rt_stkovf_split_small>
     be0:	9c09      	ldr	r4, [sp, #36]	; 0x24
     be2:	9e0a      	ldr	r6, [sp, #40]	; 0x28
     be4:	4f23      	ldr	r7, [pc, #140]	; (c74 <DrawRect+0x9e>)
     be6:	18cb      	adds	r3, r1, r3
     be8:	6c3d      	ldr	r5, [r7, #64]	; 0x40
     bea:	42ab      	cmp	r3, r5
     bec:	dc00      	bgt.n	bf0 <DrawRect+0x1a>
     bee:	1c1d      	adds	r5, r3, #0
     bf0:	4b20      	ldr	r3, [pc, #128]	; (c74 <DrawRect+0x9e>)
     bf2:	1882      	adds	r2, r0, r2
     bf4:	6bdb      	ldr	r3, [r3, #60]	; 0x3c
     bf6:	1c1f      	adds	r7, r3, #0
     bf8:	429a      	cmp	r2, r3
     bfa:	dc00      	bgt.n	bfe <DrawRect+0x28>
     bfc:	1c17      	adds	r7, r2, #0
     bfe:	1c3a      	adds	r2, r7, #0
     c00:	2700      	movs	r7, #0
     c02:	2900      	cmp	r1, #0
     c04:	db00      	blt.n	c08 <DrawRect+0x32>
     c06:	1c0f      	adds	r7, r1, #0
     c08:	46bc      	mov	ip, r7
     c0a:	2100      	movs	r1, #0
     c0c:	2800      	cmp	r0, #0
     c0e:	db00      	blt.n	c12 <DrawRect+0x3c>
     c10:	1c01      	adds	r1, r0, #0
     c12:	1c08      	adds	r0, r1, #0
     c14:	9908      	ldr	r1, [sp, #32]
     c16:	08a4      	lsrs	r4, r4, #2
     c18:	08c9      	lsrs	r1, r1, #3
     c1a:	02c9      	lsls	r1, r1, #11
     c1c:	0164      	lsls	r4, r4, #5
     c1e:	1909      	adds	r1, r1, r4
     c20:	08f4      	lsrs	r4, r6, #3
     c22:	1909      	adds	r1, r1, r4
     c24:	040e      	lsls	r6, r1, #16
     c26:	0c36      	lsrs	r6, r6, #16
     c28:	4565      	cmp	r5, ip
     c2a:	dd38      	ble.n	c9e <DrawRect+0xc8>
     c2c:	4282      	cmp	r2, r0
     c2e:	dd36      	ble.n	c9e <DrawRect+0xc8>
     c30:	4667      	mov	r7, ip
     c32:	435f      	muls	r7, r3
     c34:	490f      	ldr	r1, [pc, #60]	; (c74 <DrawRect+0x9e>)
     c36:	007b      	lsls	r3, r7, #1
     c38:	6b89      	ldr	r1, [r1, #56]	; 0x38
     c3a:	0047      	lsls	r7, r0, #1
     c3c:	1859      	adds	r1, r3, r1
     c3e:	19c9      	adds	r1, r1, r7
     c40:	1c0c      	adds	r4, r1, #0
     c42:	0403      	lsls	r3, r0, #16
     c44:	0c1b      	lsrs	r3, r3, #16
     c46:	e004      	b.n	c52 <DrawRect+0x7c>
     c48:	800e      	strh	r6, [r1, #0]
     c4a:	3102      	adds	r1, #2
     c4c:	3301      	adds	r3, #1
     c4e:	041b      	lsls	r3, r3, #16
     c50:	0c1b      	lsrs	r3, r3, #16
     c52:	4293      	cmp	r3, r2
     c54:	dbf8      	blt.n	c48 <DrawRect+0x72>
     c56:	07a1      	lsls	r1, r4, #30
     c58:	d022      	beq.n	ca0 <DrawRect+0xca>
     c5a:	3402      	adds	r4, #2
     c5c:	9400      	str	r4, [sp, #0]
     c5e:	4661      	mov	r1, ip
     c60:	3101      	adds	r1, #1
     c62:	040c      	lsls	r4, r1, #16
     c64:	1a10      	subs	r0, r2, r0
     c66:	3801      	subs	r0, #1
     c68:	0c24      	lsrs	r4, r4, #16
     c6a:	0040      	lsls	r0, r0, #1
     c6c:	9002      	str	r0, [sp, #8]
     c6e:	e014      	b.n	c9a <DrawRect+0xc4>
     c70:	000003e7 	.word	0x000003e7
     c74:	00000000 	.word	0x00000000
     c78:	49ee      	ldr	r1, [pc, #952]	; (1034 <_mr_EffSetCon+0x42>)
     c7a:	1c22      	adds	r2, r4, #0
     c7c:	6bc8      	ldr	r0, [r1, #60]	; 0x3c
     c7e:	6b89      	ldr	r1, [r1, #56]	; 0x38
     c80:	4342      	muls	r2, r0
     c82:	0050      	lsls	r0, r2, #1
     c84:	1840      	adds	r0, r0, r1
     c86:	19c0      	adds	r0, r0, r7
     c88:	8006      	strh	r6, [r0, #0]
     c8a:	3002      	adds	r0, #2
     c8c:	9900      	ldr	r1, [sp, #0]
     c8e:	9a02      	ldr	r2, [sp, #8]
     c90:	f7ff fffe 	bl	0 <__rt_memcpy>
     c94:	3401      	adds	r4, #1
     c96:	0424      	lsls	r4, r4, #16
     c98:	0c24      	lsrs	r4, r4, #16
     c9a:	42ac      	cmp	r4, r5
     c9c:	dbec      	blt.n	c78 <DrawRect+0xa2>
     c9e:	bdfe      	pop	{r1, r2, r3, r4, r5, r6, r7, pc}
     ca0:	4661      	mov	r1, ip
     ca2:	3101      	adds	r1, #1
     ca4:	040e      	lsls	r6, r1, #16
     ca6:	0c36      	lsrs	r6, r6, #16
     ca8:	1a10      	subs	r0, r2, r0
     caa:	0040      	lsls	r0, r0, #1
     cac:	9001      	str	r0, [sp, #4]
     cae:	e00e      	b.n	cce <DrawRect+0xf8>
     cb0:	49e0      	ldr	r1, [pc, #896]	; (1034 <_mr_EffSetCon+0x42>)
     cb2:	1c32      	adds	r2, r6, #0
     cb4:	6bc8      	ldr	r0, [r1, #60]	; 0x3c
     cb6:	6b89      	ldr	r1, [r1, #56]	; 0x38
     cb8:	4342      	muls	r2, r0
     cba:	0050      	lsls	r0, r2, #1
     cbc:	1840      	adds	r0, r0, r1
     cbe:	19c0      	adds	r0, r0, r7
     cc0:	1c21      	adds	r1, r4, #0
     cc2:	9a01      	ldr	r2, [sp, #4]
     cc4:	f7ff fffe 	bl	0 <__rt_memcpy>
     cc8:	3601      	adds	r6, #1
     cca:	0436      	lsls	r6, r6, #16
     ccc:	0c36      	lsrs	r6, r6, #16
     cce:	42ae      	cmp	r6, r5
     cd0:	dbee      	blt.n	cb0 <DrawRect+0xda>
     cd2:	e7e4      	b.n	c9e <DrawRect+0xc8>

00000cd4 <_DrawText>:
     cd4:	b5ff      	push	{r0, r1, r2, r3, r4, r5, r6, r7, lr}
     cd6:	b085      	sub	sp, #20
     cd8:	45d5      	cmp	sp, sl
     cda:	d201      	bcs.n	ce0 <_DrawText+0xc>
     cdc:	f7ff fffe 	bl	0 <__rt_stkovf_split_small>
     ce0:	9f0e      	ldr	r7, [sp, #56]	; 0x38
     ce2:	1c0d      	adds	r5, r1, #0
     ce4:	2800      	cmp	r0, #0
     ce6:	d106      	bne.n	cf6 <_DrawText+0x22>
     ce8:	1c29      	adds	r1, r5, #0
     cea:	a0d3      	add	r0, pc, #844	; (adr r0, 1038 <_mr_EffSetCon+0x46>)
     cec:	f7ff fffe 	bl	0 <mr_printf>
     cf0:	2000      	movs	r0, #0
     cf2:	b009      	add	sp, #36	; 0x24
     cf4:	bdf0      	pop	{r4, r5, r6, r7, pc}
     cf6:	9910      	ldr	r1, [sp, #64]	; 0x40
     cf8:	2900      	cmp	r1, #0
     cfa:	d10a      	bne.n	d12 <_DrawText+0x3e>
     cfc:	aa03      	add	r2, sp, #12
     cfe:	f7ff fffe 	bl	0 <c2u>
     d02:	1c06      	adds	r6, r0, #0
     d04:	d106      	bne.n	d14 <_DrawText+0x40>
     d06:	1c29      	adds	r1, r5, #0
     d08:	a0d2      	add	r0, pc, #840	; (adr r0, 1054 <_mr_EffSetCon+0x62>)
     d0a:	f7ff fffe 	bl	0 <mr_printf>
     d0e:	2000      	movs	r0, #0
     d10:	e7ef      	b.n	cf2 <_DrawText+0x1e>
     d12:	1c06      	adds	r6, r0, #0
     d14:	1c34      	adds	r4, r6, #0
     d16:	042d      	lsls	r5, r5, #16
     d18:	0c2d      	lsrs	r5, r5, #16
     d1a:	9807      	ldr	r0, [sp, #28]
     d1c:	0400      	lsls	r0, r0, #16
     d1e:	0c00      	lsrs	r0, r0, #16
     d20:	9000      	str	r0, [sp, #0]
     d22:	9808      	ldr	r0, [sp, #32]
     d24:	08b9      	lsrs	r1, r7, #2
     d26:	08c0      	lsrs	r0, r0, #3
     d28:	02c0      	lsls	r0, r0, #11
     d2a:	0149      	lsls	r1, r1, #5
     d2c:	1840      	adds	r0, r0, r1
     d2e:	990f      	ldr	r1, [sp, #60]	; 0x3c
     d30:	08c9      	lsrs	r1, r1, #3
     d32:	1840      	adds	r0, r0, r1
     d34:	0403      	lsls	r3, r0, #16
     d36:	0c1b      	lsrs	r3, r3, #16
     d38:	9304      	str	r3, [sp, #16]
     d3a:	7820      	ldrb	r0, [r4, #0]
     d3c:	7861      	ldrb	r1, [r4, #1]
     d3e:	0200      	lsls	r0, r0, #8
     d40:	1840      	adds	r0, r0, r1
     d42:	0407      	lsls	r7, r0, #16
     d44:	0c3f      	lsrs	r7, r7, #16
     d46:	e018      	b.n	d7a <_DrawText+0xa6>
     d48:	ab01      	add	r3, sp, #4
     d4a:	aa02      	add	r2, sp, #8
     d4c:	1c38      	adds	r0, r7, #0
     d4e:	9911      	ldr	r1, [sp, #68]	; 0x44
     d50:	f7ff fffe 	bl	0 <mr_getCharBitmap>
     d54:	2800      	cmp	r0, #0
     d56:	d009      	beq.n	d6c <_DrawText+0x98>
     d58:	1c29      	adds	r1, r5, #0
     d5a:	1c38      	adds	r0, r7, #0
     d5c:	9a00      	ldr	r2, [sp, #0]
     d5e:	9b04      	ldr	r3, [sp, #16]
     d60:	f7ff fffe 	bl	246 <mr_platDrawChar>
     d64:	9802      	ldr	r0, [sp, #8]
     d66:	1828      	adds	r0, r5, r0
     d68:	0405      	lsls	r5, r0, #16
     d6a:	0c2d      	lsrs	r5, r5, #16
     d6c:	3402      	adds	r4, #2
     d6e:	7820      	ldrb	r0, [r4, #0]
     d70:	7861      	ldrb	r1, [r4, #1]
     d72:	0200      	lsls	r0, r0, #8
     d74:	1840      	adds	r0, r0, r1
     d76:	0407      	lsls	r7, r0, #16
     d78:	0c3f      	lsrs	r7, r7, #16
     d7a:	2f00      	cmp	r7, #0
     d7c:	d1e4      	bne.n	d48 <_DrawText+0x74>
     d7e:	9910      	ldr	r1, [sp, #64]	; 0x40
     d80:	2900      	cmp	r1, #0
     d82:	d103      	bne.n	d8c <_DrawText+0xb8>
     d84:	1c30      	adds	r0, r6, #0
     d86:	9903      	ldr	r1, [sp, #12]
     d88:	f7ff fffe 	bl	138 <mr_free>
     d8c:	2000      	movs	r0, #0
     d8e:	e7b0      	b.n	cf2 <_DrawText+0x1e>

00000d90 <mr_wstrlen>:
     d90:	1c01      	adds	r1, r0, #0
     d92:	2000      	movs	r0, #0
     d94:	e001      	b.n	d9a <mr_wstrlen+0xa>
     d96:	3002      	adds	r0, #2
     d98:	3102      	adds	r1, #2
     d9a:	780a      	ldrb	r2, [r1, #0]
     d9c:	784b      	ldrb	r3, [r1, #1]
     d9e:	0212      	lsls	r2, r2, #8
     da0:	18d2      	adds	r2, r2, r3
     da2:	d1f8      	bne.n	d96 <mr_wstrlen+0x6>
     da4:	4770      	bx	lr

00000da6 <_DrawTextEx>:
     da6:	b40f      	push	{r0, r1, r2, r3}
     da8:	b5f0      	push	{r4, r5, r6, r7, lr}
     daa:	b08b      	sub	sp, #44	; 0x2c
     dac:	45d5      	cmp	sp, sl
     dae:	d201      	bcs.n	db4 <_DrawTextEx+0xe>
     db0:	f7ff fffe 	bl	0 <__rt_stkovf_split_small>
     db4:	2200      	movs	r2, #0
     db6:	9206      	str	r2, [sp, #24]
     db8:	2800      	cmp	r0, #0
     dba:	d109      	bne.n	dd0 <_DrawTextEx+0x2a>
     dbc:	a0ab      	add	r0, pc, #684	; (adr r0, 106c <_mr_EffSetCon+0x7a>)
     dbe:	9911      	ldr	r1, [sp, #68]	; 0x44
     dc0:	f7ff fffe 	bl	0 <mr_printf>
     dc4:	2000      	movs	r0, #0
     dc6:	b00b      	add	sp, #44	; 0x2c
     dc8:	bcf0      	pop	{r4, r5, r6, r7}
     dca:	bc08      	pop	{r3}
     dcc:	b004      	add	sp, #16
     dce:	4718      	bx	r3
     dd0:	9a16      	ldr	r2, [sp, #88]	; 0x58
     dd2:	07d1      	lsls	r1, r2, #31
     dd4:	d40d      	bmi.n	df2 <_DrawTextEx+0x4c>
     dd6:	aa07      	add	r2, sp, #28
     dd8:	2100      	movs	r1, #0
     dda:	f7ff fffe 	bl	0 <c2u>
     dde:	9005      	str	r0, [sp, #20]
     de0:	9805      	ldr	r0, [sp, #20]
     de2:	2800      	cmp	r0, #0
     de4:	d106      	bne.n	df4 <_DrawTextEx+0x4e>
     de6:	a0a9      	add	r0, pc, #676	; (adr r0, 108c <_mr_EffSetCon+0x9a>)
     de8:	9911      	ldr	r1, [sp, #68]	; 0x44
     dea:	f7ff fffe 	bl	0 <mr_printf>
     dee:	2000      	movs	r0, #0
     df0:	e7e9      	b.n	dc6 <_DrawTextEx+0x20>
     df2:	9005      	str	r0, [sp, #20]
     df4:	9d05      	ldr	r5, [sp, #20]
     df6:	9811      	ldr	r0, [sp, #68]	; 0x44
     df8:	0406      	lsls	r6, r0, #16
     dfa:	0c36      	lsrs	r6, r6, #16
     dfc:	960a      	str	r6, [sp, #40]	; 0x28
     dfe:	9812      	ldr	r0, [sp, #72]	; 0x48
     e00:	0400      	lsls	r0, r0, #16
     e02:	0c00      	lsrs	r0, r0, #16
     e04:	9002      	str	r0, [sp, #8]
     e06:	ab10      	add	r3, sp, #64	; 0x40
     e08:	7d18      	ldrb	r0, [r3, #20]
     e0a:	7d59      	ldrb	r1, [r3, #21]
     e0c:	08c0      	lsrs	r0, r0, #3
     e0e:	0889      	lsrs	r1, r1, #2
     e10:	0149      	lsls	r1, r1, #5
     e12:	02c0      	lsls	r0, r0, #11
     e14:	1840      	adds	r0, r0, r1
     e16:	7d99      	ldrb	r1, [r3, #22]
     e18:	08c9      	lsrs	r1, r1, #3
     e1a:	1840      	adds	r0, r0, r1
     e1c:	0403      	lsls	r3, r0, #16
     e1e:	0c1b      	lsrs	r3, r3, #16
     e20:	9301      	str	r3, [sp, #4]
     e22:	7828      	ldrb	r0, [r5, #0]
     e24:	7869      	ldrb	r1, [r5, #1]
     e26:	0200      	lsls	r0, r0, #8
     e28:	1840      	adds	r0, r0, r1
     e2a:	0404      	lsls	r4, r0, #16
     e2c:	0c24      	lsrs	r4, r4, #16
     e2e:	2700      	movs	r7, #0
     e30:	ab10      	add	r3, sp, #64	; 0x40
     e32:	8a59      	ldrh	r1, [r3, #18]
     e34:	9812      	ldr	r0, [sp, #72]	; 0x48
     e36:	180a      	adds	r2, r1, r0
     e38:	9209      	str	r2, [sp, #36]	; 0x24
     e3a:	8a19      	ldrh	r1, [r3, #16]
     e3c:	9811      	ldr	r0, [sp, #68]	; 0x44
     e3e:	180a      	adds	r2, r1, r0
     e40:	9208      	str	r2, [sp, #32]
     e42:	e05b      	b.n	efc <_DrawTextEx+0x156>
     e44:	2c0a      	cmp	r4, #10
     e46:	d001      	beq.n	e4c <_DrawTextEx+0xa6>
     e48:	2c0d      	cmp	r4, #13
     e4a:	d106      	bne.n	e5a <_DrawTextEx+0xb4>
     e4c:	ab03      	add	r3, sp, #12
     e4e:	aa04      	add	r2, sp, #16
     e50:	2020      	movs	r0, #32
     e52:	9917      	ldr	r1, [sp, #92]	; 0x5c
     e54:	f7ff fffe 	bl	0 <mr_getCharBitmap>
     e58:	e005      	b.n	e66 <_DrawTextEx+0xc0>
     e5a:	ab03      	add	r3, sp, #12
     e5c:	aa04      	add	r2, sp, #16
     e5e:	1c20      	adds	r0, r4, #0
     e60:	9917      	ldr	r1, [sp, #92]	; 0x5c
     e62:	f7ff fffe 	bl	0 <mr_getCharBitmap>
     e66:	2800      	cmp	r0, #0
     e68:	d041      	beq.n	eee <_DrawTextEx+0x148>
     e6a:	9804      	ldr	r0, [sp, #16]
     e6c:	9903      	ldr	r1, [sp, #12]
     e6e:	9a16      	ldr	r2, [sp, #88]	; 0x58
     e70:	0792      	lsls	r2, r2, #30
     e72:	d51a      	bpl.n	eaa <_DrawTextEx+0x104>
     e74:	9a08      	ldr	r2, [sp, #32]
     e76:	1830      	adds	r0, r6, r0
     e78:	4290      	cmp	r0, r2
     e7a:	dc01      	bgt.n	e80 <_DrawTextEx+0xda>
     e7c:	2c0a      	cmp	r4, #10
     e7e:	d110      	bne.n	ea2 <_DrawTextEx+0xfc>
     e80:	9802      	ldr	r0, [sp, #8]
     e82:	9a09      	ldr	r2, [sp, #36]	; 0x24
     e84:	19c0      	adds	r0, r0, r7
     e86:	4290      	cmp	r0, r2
     e88:	da02      	bge.n	e90 <_DrawTextEx+0xea>
     e8a:	9a05      	ldr	r2, [sp, #20]
     e8c:	1aaa      	subs	r2, r5, r2
     e8e:	9206      	str	r2, [sp, #24]
     e90:	9e0a      	ldr	r6, [sp, #40]	; 0x28
     e92:	3002      	adds	r0, #2
     e94:	0400      	lsls	r0, r0, #16
     e96:	0c00      	lsrs	r0, r0, #16
     e98:	9002      	str	r0, [sp, #8]
     e9a:	2700      	movs	r7, #0
     e9c:	9a09      	ldr	r2, [sp, #36]	; 0x24
     e9e:	4282      	cmp	r2, r0
     ea0:	db2e      	blt.n	f00 <_DrawTextEx+0x15a>
     ea2:	428f      	cmp	r7, r1
     ea4:	dc0d      	bgt.n	ec2 <_DrawTextEx+0x11c>
     ea6:	1c0f      	adds	r7, r1, #0
     ea8:	e00b      	b.n	ec2 <_DrawTextEx+0x11c>
     eaa:	9a08      	ldr	r2, [sp, #32]
     eac:	42b2      	cmp	r2, r6
     eae:	db27      	blt.n	f00 <_DrawTextEx+0x15a>
     eb0:	2c0a      	cmp	r4, #10
     eb2:	d025      	beq.n	f00 <_DrawTextEx+0x15a>
     eb4:	9a08      	ldr	r2, [sp, #32]
     eb6:	1830      	adds	r0, r6, r0
     eb8:	4290      	cmp	r0, r2
     eba:	dd02      	ble.n	ec2 <_DrawTextEx+0x11c>
     ebc:	9805      	ldr	r0, [sp, #20]
     ebe:	1a28      	subs	r0, r5, r0
     ec0:	9006      	str	r0, [sp, #24]
     ec2:	2c0a      	cmp	r4, #10
     ec4:	d001      	beq.n	eca <_DrawTextEx+0x124>
     ec6:	2c0d      	cmp	r4, #13
     ec8:	d107      	bne.n	eda <_DrawTextEx+0x134>
     eca:	3502      	adds	r5, #2
     ecc:	7828      	ldrb	r0, [r5, #0]
     ece:	7869      	ldrb	r1, [r5, #1]
     ed0:	0200      	lsls	r0, r0, #8
     ed2:	1840      	adds	r0, r0, r1
     ed4:	0404      	lsls	r4, r0, #16
     ed6:	0c24      	lsrs	r4, r4, #16
     ed8:	e010      	b.n	efc <_DrawTextEx+0x156>
     eda:	1c31      	adds	r1, r6, #0
     edc:	1c20      	adds	r0, r4, #0
     ede:	9a02      	ldr	r2, [sp, #8]
     ee0:	9b01      	ldr	r3, [sp, #4]
     ee2:	f7ff fffe 	bl	246 <mr_platDrawChar>
     ee6:	9804      	ldr	r0, [sp, #16]
     ee8:	1830      	adds	r0, r6, r0
     eea:	0406      	lsls	r6, r0, #16
     eec:	0c36      	lsrs	r6, r6, #16
     eee:	3502      	adds	r5, #2
     ef0:	7828      	ldrb	r0, [r5, #0]
     ef2:	7869      	ldrb	r1, [r5, #1]
     ef4:	0200      	lsls	r0, r0, #8
     ef6:	1840      	adds	r0, r0, r1
     ef8:	0404      	lsls	r4, r0, #16
     efa:	0c24      	lsrs	r4, r4, #16
     efc:	2c00      	cmp	r4, #0
     efe:	d1a1      	bne.n	e44 <_DrawTextEx+0x9e>
     f00:	2c00      	cmp	r4, #0
     f02:	d113      	bne.n	f2c <_DrawTextEx+0x186>
     f04:	9a16      	ldr	r2, [sp, #88]	; 0x58
     f06:	0790      	lsls	r0, r2, #30
     f08:	d509      	bpl.n	f1e <_DrawTextEx+0x178>
     f0a:	9802      	ldr	r0, [sp, #8]
     f0c:	9a09      	ldr	r2, [sp, #36]	; 0x24
     f0e:	19c0      	adds	r0, r0, r7
     f10:	4290      	cmp	r0, r2
     f12:	da0b      	bge.n	f2c <_DrawTextEx+0x186>
     f14:	9805      	ldr	r0, [sp, #20]
     f16:	f7ff fffe 	bl	d90 <mr_wstrlen>
     f1a:	9006      	str	r0, [sp, #24]
     f1c:	e006      	b.n	f2c <_DrawTextEx+0x186>
     f1e:	9a08      	ldr	r2, [sp, #32]
     f20:	42b2      	cmp	r2, r6
     f22:	db03      	blt.n	f2c <_DrawTextEx+0x186>
     f24:	9805      	ldr	r0, [sp, #20]
     f26:	f7ff fffe 	bl	d90 <mr_wstrlen>
     f2a:	9006      	str	r0, [sp, #24]
     f2c:	9a16      	ldr	r2, [sp, #88]	; 0x58
     f2e:	07d0      	lsls	r0, r2, #31
     f30:	d403      	bmi.n	f3a <_DrawTextEx+0x194>
     f32:	9805      	ldr	r0, [sp, #20]
     f34:	9907      	ldr	r1, [sp, #28]
     f36:	f7ff fffe 	bl	138 <mr_free>
     f3a:	9806      	ldr	r0, [sp, #24]
     f3c:	e743      	b.n	dc6 <_DrawTextEx+0x20>

00000f3e <_BitmapCheck>:
     f3e:	b5ff      	push	{r0, r1, r2, r3, r4, r5, r6, r7, lr}
     f40:	b086      	sub	sp, #24
     f42:	9c0f      	ldr	r4, [sp, #60]	; 0x3c
     f44:	4684      	mov	ip, r0
     f46:	4b3b      	ldr	r3, [pc, #236]	; (1034 <_mr_EffSetCon+0x42>)
     f48:	1914      	adds	r4, r2, r4
     f4a:	6c18      	ldr	r0, [r3, #64]	; 0x40
     f4c:	4284      	cmp	r4, r0
     f4e:	dc00      	bgt.n	f52 <_BitmapCheck+0x14>
     f50:	1c20      	adds	r0, r4, #0
     f52:	0400      	lsls	r0, r0, #16
     f54:	1400      	asrs	r0, r0, #16
     f56:	9000      	str	r0, [sp, #0]
     f58:	6bd8      	ldr	r0, [r3, #60]	; 0x3c
     f5a:	9c09      	ldr	r4, [sp, #36]	; 0x24
     f5c:	9005      	str	r0, [sp, #20]
     f5e:	190c      	adds	r4, r1, r4
     f60:	4284      	cmp	r4, r0
     f62:	dc00      	bgt.n	f66 <_BitmapCheck+0x28>
     f64:	1c20      	adds	r0, r4, #0
     f66:	0400      	lsls	r0, r0, #16
     f68:	1400      	asrs	r0, r0, #16
     f6a:	4686      	mov	lr, r0
     f6c:	2000      	movs	r0, #0
     f6e:	1c04      	adds	r4, r0, #0
     f70:	2a00      	cmp	r2, #0
     f72:	db00      	blt.n	f76 <_BitmapCheck+0x38>
     f74:	1c14      	adds	r4, r2, #0
     f76:	0425      	lsls	r5, r4, #16
     f78:	142d      	asrs	r5, r5, #16
     f7a:	2900      	cmp	r1, #0
     f7c:	db00      	blt.n	f80 <_BitmapCheck+0x42>
     f7e:	1c08      	adds	r0, r1, #0
     f80:	0404      	lsls	r4, r0, #16
     f82:	1424      	asrs	r4, r4, #16
     f84:	2000      	movs	r0, #0
     f86:	042e      	lsls	r6, r5, #16
     f88:	0425      	lsls	r5, r4, #16
     f8a:	1a61      	subs	r1, r4, r1
     f8c:	0049      	lsls	r1, r1, #1
     f8e:	0c2d      	lsrs	r5, r5, #16
     f90:	9103      	str	r1, [sp, #12]
     f92:	0c36      	lsrs	r6, r6, #16
     f94:	0061      	lsls	r1, r4, #1
     f96:	9102      	str	r1, [sp, #8]
     f98:	9504      	str	r5, [sp, #16]
     f9a:	6b9b      	ldr	r3, [r3, #56]	; 0x38
     f9c:	9301      	str	r3, [sp, #4]
     f9e:	e023      	b.n	fe8 <_BitmapCheck+0xaa>
     fa0:	9905      	ldr	r1, [sp, #20]
     fa2:	1c33      	adds	r3, r6, #0
     fa4:	434b      	muls	r3, r1
     fa6:	0059      	lsls	r1, r3, #1
     fa8:	9b01      	ldr	r3, [sp, #4]
     faa:	18c9      	adds	r1, r1, r3
     fac:	9b02      	ldr	r3, [sp, #8]
     fae:	18cc      	adds	r4, r1, r3
     fb0:	9b09      	ldr	r3, [sp, #36]	; 0x24
     fb2:	1ab1      	subs	r1, r6, r2
     fb4:	4359      	muls	r1, r3
     fb6:	9b03      	ldr	r3, [sp, #12]
     fb8:	0049      	lsls	r1, r1, #1
     fba:	4461      	add	r1, ip
     fbc:	18cd      	adds	r5, r1, r3
     fbe:	9904      	ldr	r1, [sp, #16]
     fc0:	e00d      	b.n	fde <_BitmapCheck+0xa0>
     fc2:	882f      	ldrh	r7, [r5, #0]
     fc4:	9b10      	ldr	r3, [sp, #64]	; 0x40
     fc6:	429f      	cmp	r7, r3
     fc8:	d004      	beq.n	fd4 <_BitmapCheck+0x96>
     fca:	8823      	ldrh	r3, [r4, #0]
     fcc:	9f11      	ldr	r7, [sp, #68]	; 0x44
     fce:	42bb      	cmp	r3, r7
     fd0:	d000      	beq.n	fd4 <_BitmapCheck+0x96>
     fd2:	3001      	adds	r0, #1
     fd4:	3402      	adds	r4, #2
     fd6:	3502      	adds	r5, #2
     fd8:	3101      	adds	r1, #1
     fda:	0409      	lsls	r1, r1, #16
     fdc:	0c09      	lsrs	r1, r1, #16
     fde:	4571      	cmp	r1, lr
     fe0:	dbef      	blt.n	fc2 <_BitmapCheck+0x84>
     fe2:	3601      	adds	r6, #1
     fe4:	0436      	lsls	r6, r6, #16
     fe6:	0c36      	lsrs	r6, r6, #16
     fe8:	9900      	ldr	r1, [sp, #0]
     fea:	428e      	cmp	r6, r1
     fec:	dbd8      	blt.n	fa0 <_BitmapCheck+0x62>
     fee:	b00a      	add	sp, #40	; 0x28
     ff0:	bdf0      	pop	{r4, r5, r6, r7, pc}

00000ff2 <_mr_EffSetCon>:
     ff2:	b5fc      	push	{r2, r3, r4, r5, r6, r7, lr}
     ff4:	4c0f      	ldr	r4, [pc, #60]	; (1034 <_mr_EffSetCon+0x42>)
     ff6:	18cb      	adds	r3, r1, r3
     ff8:	6c25      	ldr	r5, [r4, #64]	; 0x40
     ffa:	42ab      	cmp	r3, r5
     ffc:	dc00      	bgt.n	1000 <_mr_EffSetCon+0xe>
     ffe:	1c1d      	adds	r5, r3, #0
    1000:	9500      	str	r5, [sp, #0]
    1002:	6be3      	ldr	r3, [r4, #60]	; 0x3c
    1004:	1882      	adds	r2, r0, r2
    1006:	429a      	cmp	r2, r3
    1008:	dc00      	bgt.n	100c <_mr_EffSetCon+0x1a>
    100a:	1c13      	adds	r3, r2, #0
    100c:	469c      	mov	ip, r3
    100e:	2300      	movs	r3, #0
    1010:	1c1a      	adds	r2, r3, #0
    1012:	2900      	cmp	r1, #0
    1014:	db00      	blt.n	1018 <_mr_EffSetCon+0x26>
    1016:	1c0a      	adds	r2, r1, #0
    1018:	2800      	cmp	r0, #0
    101a:	db00      	blt.n	101e <_mr_EffSetCon+0x2c>
    101c:	1c03      	adds	r3, r0, #0
    101e:	1c18      	adds	r0, r3, #0
    1020:	0413      	lsls	r3, r2, #16
    1022:	0402      	lsls	r2, r0, #16
    1024:	0c12      	lsrs	r2, r2, #16
    1026:	0041      	lsls	r1, r0, #1
    1028:	0c1b      	lsrs	r3, r3, #16
    102a:	263f      	movs	r6, #63	; 0x3f
    102c:	0176      	lsls	r6, r6, #5
    102e:	9101      	str	r1, [sp, #4]
    1030:	4696      	mov	lr, r2
    1032:	e065      	b.n	1100 <_mr_EffSetCon+0x10e>
    1034:	00000000 	.word	0x00000000
    1038:	77617244 	.word	0x77617244
    103c:	74786554 	.word	0x74786554
    1040:	253d7820 	.word	0x253d7820
    1044:	74203a64 	.word	0x74203a64
    1048:	69207478 	.word	0x69207478
    104c:	696e2073 	.word	0x696e2073
    1050:	0000216c 	.word	0x0000216c
    1054:	77617244 	.word	0x77617244
    1058:	74786554 	.word	0x74786554
    105c:	253d7820 	.word	0x253d7820
    1060:	32633a64 	.word	0x32633a64
    1064:	72652075 	.word	0x72652075
    1068:	00002172 	.word	0x00002172
    106c:	77617244 	.word	0x77617244
    1070:	74786554 	.word	0x74786554
    1074:	78207845 	.word	0x78207845
    1078:	3a64253d 	.word	0x3a64253d
    107c:	74787420 	.word	0x74787420
    1080:	20736920 	.word	0x20736920
    1084:	216c696e 	.word	0x216c696e
    1088:	00000000 	.word	0x00000000
    108c:	77617244 	.word	0x77617244
    1090:	74786554 	.word	0x74786554
    1094:	78207845 	.word	0x78207845
    1098:	3a64253d 	.word	0x3a64253d
    109c:	20753263 	.word	0x20753263
    10a0:	21727265 	.word	0x21727265
    10a4:	00000000 	.word	0x00000000
    10a8:	49e7      	ldr	r1, [pc, #924]	; (1448 <_mr_readFile+0x128>)
    10aa:	1c1a      	adds	r2, r3, #0
    10ac:	6bc8      	ldr	r0, [r1, #60]	; 0x3c
    10ae:	6b89      	ldr	r1, [r1, #56]	; 0x38
    10b0:	4342      	muls	r2, r0
    10b2:	0050      	lsls	r0, r2, #1
    10b4:	1840      	adds	r0, r0, r1
    10b6:	9901      	ldr	r1, [sp, #4]
    10b8:	1840      	adds	r0, r0, r1
    10ba:	4672      	mov	r2, lr
    10bc:	e01b      	b.n	10f6 <_mr_EffSetCon+0x104>
    10be:	8801      	ldrh	r1, [r0, #0]
    10c0:	271f      	movs	r7, #31
    10c2:	02ff      	lsls	r7, r7, #11
    10c4:	1c0c      	adds	r4, r1, #0
    10c6:	9d07      	ldr	r5, [sp, #28]
    10c8:	403c      	ands	r4, r7
    10ca:	436c      	muls	r4, r5
    10cc:	0a24      	lsrs	r4, r4, #8
    10ce:	403c      	ands	r4, r7
    10d0:	1c0d      	adds	r5, r1, #0
    10d2:	9f08      	ldr	r7, [sp, #32]
    10d4:	4035      	ands	r5, r6
    10d6:	437d      	muls	r5, r7
    10d8:	0a2d      	lsrs	r5, r5, #8
    10da:	4035      	ands	r5, r6
    10dc:	432c      	orrs	r4, r5
    10de:	06c9      	lsls	r1, r1, #27
    10e0:	9d09      	ldr	r5, [sp, #36]	; 0x24
    10e2:	0ec9      	lsrs	r1, r1, #27
    10e4:	4369      	muls	r1, r5
    10e6:	04c9      	lsls	r1, r1, #19
    10e8:	0ec9      	lsrs	r1, r1, #27
    10ea:	4321      	orrs	r1, r4
    10ec:	8001      	strh	r1, [r0, #0]
    10ee:	3002      	adds	r0, #2
    10f0:	3201      	adds	r2, #1
    10f2:	0412      	lsls	r2, r2, #16
    10f4:	0c12      	lsrs	r2, r2, #16
    10f6:	4562      	cmp	r2, ip
    10f8:	dbe1      	blt.n	10be <_mr_EffSetCon+0xcc>
    10fa:	3301      	adds	r3, #1
    10fc:	041b      	lsls	r3, r3, #16
    10fe:	0c1b      	lsrs	r3, r3, #16
    1100:	9800      	ldr	r0, [sp, #0]
    1102:	4283      	cmp	r3, r0
    1104:	dbd0      	blt.n	10a8 <_mr_EffSetCon+0xb6>
    1106:	2000      	movs	r0, #0
    1108:	bdfc      	pop	{r2, r3, r4, r5, r6, r7, pc}

0000110a <_mr_showErrorInfo>:
    110a:	b5f0      	push	{r4, r5, r6, r7, lr}
    110c:	b089      	sub	sp, #36	; 0x24
    110e:	45d5      	cmp	sp, sl
    1110:	d201      	bcs.n	1116 <_mr_showErrorInfo+0xc>
    1112:	f7ff fffe 	bl	0 <__rt_stkovf_split_small>
    1116:	1c06      	adds	r6, r0, #0
    1118:	1c30      	adds	r0, r6, #0
    111a:	f7ff fffe 	bl	0 <strlen>
    111e:	1c04      	adds	r4, r0, #0
    1120:	1c30      	adds	r0, r6, #0
    1122:	f7ff fffe 	bl	0 <mr_printf>
    1126:	2560      	movs	r5, #96	; 0x60
    1128:	2c60      	cmp	r4, #96	; 0x60
    112a:	da00      	bge.n	112e <_mr_showErrorInfo+0x24>
    112c:	1c25      	adds	r5, r4, #0
    112e:	21ff      	movs	r1, #255	; 0xff
    1130:	22ff      	movs	r2, #255	; 0xff
    1132:	48c5      	ldr	r0, [pc, #788]	; (1448 <_mr_readFile+0x128>)
    1134:	9202      	str	r2, [sp, #8]
    1136:	9100      	str	r1, [sp, #0]
    1138:	9101      	str	r1, [sp, #4]
    113a:	6c01      	ldr	r1, [r0, #64]	; 0x40
    113c:	6bc0      	ldr	r0, [r0, #60]	; 0x3c
    113e:	040b      	lsls	r3, r1, #16
    1140:	141b      	asrs	r3, r3, #16
    1142:	0402      	lsls	r2, r0, #16
    1144:	1412      	asrs	r2, r2, #16
    1146:	2100      	movs	r1, #0
    1148:	2000      	movs	r0, #0
    114a:	f7ff fffe 	bl	bd6 <DrawRect>
    114e:	2400      	movs	r4, #0
    1150:	2700      	movs	r7, #0
    1152:	e022      	b.n	119a <_mr_showErrorInfo+0x90>
    1154:	2100      	movs	r1, #0
    1156:	2200      	movs	r2, #0
    1158:	a805      	add	r0, sp, #20
    115a:	c006      	stmia	r0!, {r1, r2}
    115c:	c006      	stmia	r0!, {r1, r2}
    115e:	220c      	movs	r2, #12
    1160:	1b28      	subs	r0, r5, r4
    1162:	280c      	cmp	r0, #12
    1164:	dc00      	bgt.n	1168 <_mr_showErrorInfo+0x5e>
    1166:	1c02      	adds	r2, r0, #0
    1168:	1931      	adds	r1, r6, r4
    116a:	a805      	add	r0, sp, #20
    116c:	f7ff fffe 	bl	0 <__rt_memcpy>
    1170:	1c21      	adds	r1, r4, #0
    1172:	200c      	movs	r0, #12
    1174:	f7ff fffe 	bl	0 <__rt_sdiv>
    1178:	2312      	movs	r3, #18
    117a:	4358      	muls	r0, r3
    117c:	2201      	movs	r2, #1
    117e:	9203      	str	r2, [sp, #12]
    1180:	0403      	lsls	r3, r0, #16
    1182:	2200      	movs	r2, #0
    1184:	2100      	movs	r1, #0
    1186:	9200      	str	r2, [sp, #0]
    1188:	141b      	asrs	r3, r3, #16
    118a:	1c1a      	adds	r2, r3, #0
    118c:	1c3b      	adds	r3, r7, #0
    118e:	9101      	str	r1, [sp, #4]
    1190:	9102      	str	r1, [sp, #8]
    1192:	a805      	add	r0, sp, #20
    1194:	f7ff fffe 	bl	cd4 <_DrawText>
    1198:	340c      	adds	r4, #12
    119a:	42ac      	cmp	r4, r5
    119c:	dbda      	blt.n	1154 <_mr_showErrorInfo+0x4a>
    119e:	48aa      	ldr	r0, [pc, #680]	; (1448 <_mr_readFile+0x128>)
    11a0:	6c01      	ldr	r1, [r0, #64]	; 0x40
    11a2:	040a      	lsls	r2, r1, #16
    11a4:	0c12      	lsrs	r2, r2, #16
    11a6:	9200      	str	r2, [sp, #0]
    11a8:	6bc1      	ldr	r1, [r0, #60]	; 0x3c
    11aa:	2200      	movs	r2, #0
    11ac:	040b      	lsls	r3, r1, #16
    11ae:	0c1b      	lsrs	r3, r3, #16
    11b0:	2100      	movs	r1, #0
    11b2:	6b80      	ldr	r0, [r0, #56]	; 0x38
    11b4:	f7ff fffe 	bl	0 <mr_drawBitmap>
    11b8:	b009      	add	sp, #36	; 0x24
    11ba:	bdf0      	pop	{r4, r5, r6, r7, pc}

000011bc <_mr_readFileShowInfo>:
    11bc:	b580      	push	{r7, lr}
    11be:	45d5      	cmp	sp, sl
    11c0:	d201      	bcs.n	11c6 <_mr_readFileShowInfo+0xa>
    11c2:	f7ff fffe 	bl	0 <__rt_stkovf_split_small>
    11c6:	1c0a      	adds	r2, r1, #0
    11c8:	1c01      	adds	r1, r0, #0
    11ca:	a0a0      	add	r0, pc, #640	; (adr r0, 144c <_mr_readFile+0x12c>)
    11cc:	f7ff fffe 	bl	0 <mr_printf>
    11d0:	bd80      	pop	{r7, pc}

000011d2 <encode02>:
    11d2:	b570      	push	{r4, r5, r6, lr}
    11d4:	2400      	movs	r4, #0
    11d6:	e00e      	b.n	11f6 <encode02+0x24>
    11d8:	2c00      	cmp	r4, #0
    11da:	d103      	bne.n	11e4 <encode02+0x12>
    11dc:	7805      	ldrb	r5, [r0, #0]
    11de:	4055      	eors	r5, r2
    11e0:	7005      	strb	r5, [r0, #0]
    11e2:	e007      	b.n	11f4 <encode02+0x22>
    11e4:	1906      	adds	r6, r0, r4
    11e6:	3e10      	subs	r6, #16
    11e8:	5d05      	ldrb	r5, [r0, r4]
    11ea:	7bf6      	ldrb	r6, [r6, #15]
    11ec:	42b5      	cmp	r5, r6
    11ee:	d001      	beq.n	11f4 <encode02+0x22>
    11f0:	4075      	eors	r5, r6
    11f2:	5505      	strb	r5, [r0, r4]
    11f4:	3401      	adds	r4, #1
    11f6:	428c      	cmp	r4, r1
    11f8:	dbee      	blt.n	11d8 <encode02+0x6>
    11fa:	3901      	subs	r1, #1
    11fc:	1c0d      	adds	r5, r1, #0
    11fe:	e00d      	b.n	121c <encode02+0x4a>
    1200:	428d      	cmp	r5, r1
    1202:	d103      	bne.n	120c <encode02+0x3a>
    1204:	5c42      	ldrb	r2, [r0, r1]
    1206:	405a      	eors	r2, r3
    1208:	5442      	strb	r2, [r0, r1]
    120a:	e006      	b.n	121a <encode02+0x48>
    120c:	5c42      	ldrb	r2, [r0, r1]
    120e:	1844      	adds	r4, r0, r1
    1210:	7864      	ldrb	r4, [r4, #1]
    1212:	42a2      	cmp	r2, r4
    1214:	d001      	beq.n	121a <encode02+0x48>
    1216:	4062      	eors	r2, r4
    1218:	5442      	strb	r2, [r0, r1]
    121a:	3901      	subs	r1, #1
    121c:	2900      	cmp	r1, #0
    121e:	daef      	bge.n	1200 <encode02+0x2e>
    1220:	bd70      	pop	{r4, r5, r6, pc}

00001222 <_mr_isMr>:
    1222:	b570      	push	{r4, r5, r6, lr}
    1224:	b094      	sub	sp, #80	; 0x50
    1226:	45d5      	cmp	sp, sl
    1228:	d201      	bcs.n	122e <_mr_isMr+0xc>
    122a:	f7ff fffe 	bl	0 <__rt_stkovf_split_small>
    122e:	1c04      	adds	r4, r0, #0
    1230:	2500      	movs	r5, #0
    1232:	43ed      	mvns	r5, r5
    1234:	a804      	add	r0, sp, #16
    1236:	f7ff fffe 	bl	0 <mr_getUserInfo>
    123a:	2800      	cmp	r0, #0
    123c:	d16d      	bne.n	131a <_mr_isMr+0xf8>
    123e:	6920      	ldr	r0, [r4, #16]
    1240:	22ff      	movs	r2, #255	; 0xff
    1242:	0212      	lsls	r2, r2, #8
    1244:	0a03      	lsrs	r3, r0, #8
    1246:	4013      	ands	r3, r2
    1248:	0e01      	lsrs	r1, r0, #24
    124a:	4319      	orrs	r1, r3
    124c:	1c03      	adds	r3, r0, #0
    124e:	4013      	ands	r3, r2
    1250:	021b      	lsls	r3, r3, #8
    1252:	4319      	orrs	r1, r3
    1254:	0600      	lsls	r0, r0, #24
    1256:	4301      	orrs	r1, r0
    1258:	6960      	ldr	r0, [r4, #20]
    125a:	0a06      	lsrs	r6, r0, #8
    125c:	4016      	ands	r6, r2
    125e:	4002      	ands	r2, r0
    1260:	0e03      	lsrs	r3, r0, #24
    1262:	4333      	orrs	r3, r6
    1264:	0212      	lsls	r2, r2, #8
    1266:	431a      	orrs	r2, r3
    1268:	0600      	lsls	r0, r0, #24
    126a:	4302      	orrs	r2, r0
    126c:	1c16      	adds	r6, r2, #0
    126e:	ab00      	add	r3, sp, #0
    1270:	7c58      	ldrb	r0, [r3, #17]
    1272:	7018      	strb	r0, [r3, #0]
    1274:	7c98      	ldrb	r0, [r3, #18]
    1276:	7058      	strb	r0, [r3, #1]
    1278:	7cd8      	ldrb	r0, [r3, #19]
    127a:	7098      	strb	r0, [r3, #2]
    127c:	7d18      	ldrb	r0, [r3, #20]
    127e:	70d8      	strb	r0, [r3, #3]
    1280:	7d58      	ldrb	r0, [r3, #21]
    1282:	7118      	strb	r0, [r3, #4]
    1284:	7dd8      	ldrb	r0, [r3, #23]
    1286:	7158      	strb	r0, [r3, #5]
    1288:	7e18      	ldrb	r0, [r3, #24]
    128a:	7198      	strb	r0, [r3, #6]
    128c:	20ef      	movs	r0, #239	; 0xef
    128e:	f7ff fffe 	bl	0 <__rt_sdiv>
    1292:	ab00      	add	r3, sp, #0
    1294:	71d9      	strb	r1, [r3, #7]
    1296:	1c31      	adds	r1, r6, #0
    1298:	20ed      	movs	r0, #237	; 0xed
    129a:	f7ff fffe 	bl	0 <__rt_sdiv>
    129e:	ab00      	add	r3, sp, #0
    12a0:	7219      	strb	r1, [r3, #8]
    12a2:	a80c      	add	r0, sp, #48	; 0x30
    12a4:	7801      	ldrb	r1, [r0, #0]
    12a6:	7259      	strb	r1, [r3, #9]
    12a8:	7a01      	ldrb	r1, [r0, #8]
    12aa:	7299      	strb	r1, [r3, #10]
    12ac:	f7ff fffe 	bl	0 <strlen>
    12b0:	ab00      	add	r3, sp, #0
    12b2:	72d8      	strb	r0, [r3, #11]
    12b4:	2003      	movs	r0, #3
    12b6:	7318      	strb	r0, [r3, #12]
    12b8:	2023      	movs	r0, #35	; 0x23
    12ba:	7358      	strb	r0, [r3, #13]
    12bc:	20fd      	movs	r0, #253	; 0xfd
    12be:	9910      	ldr	r1, [sp, #64]	; 0x40
    12c0:	f7ff fffe 	bl	0 <__rt_udiv>
    12c4:	ab00      	add	r3, sp, #0
    12c6:	7399      	strb	r1, [r3, #14]
    12c8:	20f1      	movs	r0, #241	; 0xf1
    12ca:	9910      	ldr	r1, [sp, #64]	; 0x40
    12cc:	f7ff fffe 	bl	0 <__rt_udiv>
    12d0:	ab00      	add	r3, sp, #0
    12d2:	73d9      	strb	r1, [r3, #15]
    12d4:	7ed8      	ldrb	r0, [r3, #27]
    12d6:	7f19      	ldrb	r1, [r3, #28]
    12d8:	1840      	adds	r0, r0, r1
    12da:	f7ff fffe 	bl	0 <__rt_udiv10>
    12de:	2015      	movs	r0, #21
    12e0:	4348      	muls	r0, r1
    12e2:	ab00      	add	r3, sp, #0
    12e4:	7f99      	ldrb	r1, [r3, #30]
    12e6:	1840      	adds	r0, r0, r1
    12e8:	0606      	lsls	r6, r0, #24
    12ea:	0e36      	lsrs	r6, r6, #24
    12ec:	7c18      	ldrb	r0, [r3, #16]
    12ee:	f7ff fffe 	bl	0 <__rt_udiv10>
    12f2:	2015      	movs	r0, #21
    12f4:	4348      	muls	r0, r1
    12f6:	ab00      	add	r3, sp, #0
    12f8:	7d99      	ldrb	r1, [r3, #22]
    12fa:	1840      	adds	r0, r0, r1
    12fc:	0602      	lsls	r2, r0, #24
    12fe:	0e12      	lsrs	r2, r2, #24
    1300:	1c33      	adds	r3, r6, #0
    1302:	2110      	movs	r1, #16
    1304:	4668      	mov	r0, sp
    1306:	f7ff fffe 	bl	11d2 <encode02>
    130a:	2210      	movs	r2, #16
    130c:	1c21      	adds	r1, r4, #0
    130e:	4668      	mov	r0, sp
    1310:	f7ff fffe 	bl	0 <memcmp>
    1314:	2800      	cmp	r0, #0
    1316:	d100      	bne.n	131a <_mr_isMr+0xf8>
    1318:	2500      	movs	r5, #0
    131a:	1c28      	adds	r0, r5, #0
    131c:	b014      	add	sp, #80	; 0x50
    131e:	bd70      	pop	{r4, r5, r6, pc}

00001320 <_mr_readFile>:
    1320:	b5f7      	push	{r0, r1, r2, r4, r5, r6, r7, lr}
    1322:	b0ac      	sub	sp, #176	; 0xb0
    1324:	45d5      	cmp	sp, sl
    1326:	d201      	bcs.n	132c <_mr_readFile+0xc>
    1328:	f7ff fffe 	bl	0 <__rt_stkovf_split_small>
    132c:	1c04      	adds	r4, r0, #0
    132e:	2000      	movs	r0, #0
    1330:	9029      	str	r0, [sp, #164]	; 0xa4
    1332:	9007      	str	r0, [sp, #28]
    1334:	484d      	ldr	r0, [pc, #308]	; (146c <_mr_readFile+0x14c>)
    1336:	7806      	ldrb	r6, [r0, #0]
    1338:	2e2a      	cmp	r6, #42	; 0x2a
    133a:	d001      	beq.n	1340 <_mr_readFile+0x20>
    133c:	2e24      	cmp	r6, #36	; 0x24
    133e:	d16d      	bne.n	141c <_mr_readFile+0xfc>
    1340:	484a      	ldr	r0, [pc, #296]	; (146c <_mr_readFile+0x14c>)
    1342:	4a41      	ldr	r2, [pc, #260]	; (1448 <_mr_readFile+0x128>)
    1344:	7841      	ldrb	r1, [r0, #1]
    1346:	32a0      	adds	r2, #160	; 0xa0
    1348:	0088      	lsls	r0, r1, #2
    134a:	1880      	adds	r0, r0, r2
    134c:	38ff      	subs	r0, #255	; 0xff
    134e:	3841      	subs	r0, #65	; 0x41
    1350:	2e2a      	cmp	r6, #42	; 0x2a
    1352:	d101      	bne.n	1358 <_mr_readFile+0x38>
    1354:	6bc5      	ldr	r5, [r0, #60]	; 0x3c
    1356:	e001      	b.n	135c <_mr_readFile+0x3c>
    1358:	4d3b      	ldr	r5, [pc, #236]	; (1448 <_mr_readFile+0x128>)
    135a:	69ad      	ldr	r5, [r5, #24]
    135c:	2d00      	cmp	r5, #0
    135e:	d114      	bne.n	138a <_mr_readFile+0x6a>
    1360:	6bc0      	ldr	r0, [r0, #60]	; 0x3c
    1362:	2800      	cmp	r0, #0
    1364:	d103      	bne.n	136e <_mr_readFile+0x4e>
    1366:	3941      	subs	r1, #65	; 0x41
    1368:	a041      	add	r0, pc, #260	; (adr r0, 1470 <_mr_readFile+0x150>)
    136a:	f7ff fffe 	bl	0 <mr_printf>
    136e:	4936      	ldr	r1, [pc, #216]	; (1448 <_mr_readFile+0x128>)
    1370:	6988      	ldr	r0, [r1, #24]
    1372:	2800      	cmp	r0, #0
    1374:	d102      	bne.n	137c <_mr_readFile+0x5c>
    1376:	a044      	add	r0, pc, #272	; (adr r0, 1488 <_mr_readFile+0x168>)
    1378:	f7ff fffe 	bl	0 <mr_printf>
    137c:	4947      	ldr	r1, [pc, #284]	; (149c <_mr_readFile+0x17c>)
    137e:	1c20      	adds	r0, r4, #0
    1380:	f7ff fffe 	bl	11bc <_mr_readFileShowInfo>
    1384:	2000      	movs	r0, #0
    1386:	b02f      	add	sp, #188	; 0xbc
    1388:	bdf0      	pop	{r4, r5, r6, r7, pc}
    138a:	1d29      	adds	r1, r5, #4
    138c:	2204      	movs	r2, #4
    138e:	a828      	add	r0, sp, #160	; 0xa0
    1390:	f7ff fffe 	bl	0 <__rt_memcpy>
    1394:	2e24      	cmp	r6, #36	; 0x24
    1396:	d111      	bne.n	13bc <_mr_readFile+0x9c>
    1398:	492b      	ldr	r1, [pc, #172]	; (1448 <_mr_readFile+0x128>)
    139a:	6cc8      	ldr	r0, [r1, #76]	; 0x4c
    139c:	9006      	str	r0, [sp, #24]
    139e:	6888      	ldr	r0, [r1, #8]
    13a0:	0780      	lsls	r0, r0, #30
    13a2:	d511      	bpl.n	13c8 <_mr_readFile+0xa8>
    13a4:	1c28      	adds	r0, r5, #0
    13a6:	3034      	adds	r0, #52	; 0x34
    13a8:	f7ff fffe 	bl	1222 <_mr_isMr>
    13ac:	2800      	cmp	r0, #0
    13ae:	d00b      	beq.n	13c8 <_mr_readFile+0xa8>
    13b0:	2103      	movs	r1, #3
    13b2:	a03b      	add	r0, pc, #236	; (adr r0, 14a0 <_mr_readFile+0x180>)
    13b4:	f7ff fffe 	bl	11bc <_mr_readFileShowInfo>
    13b8:	2000      	movs	r0, #0
    13ba:	e7e4      	b.n	1386 <_mr_readFile+0x66>
    13bc:	1c29      	adds	r1, r5, #0
    13be:	3108      	adds	r1, #8
    13c0:	2204      	movs	r2, #4
    13c2:	a806      	add	r0, sp, #24
    13c4:	f7ff fffe 	bl	0 <__rt_memcpy>
    13c8:	9828      	ldr	r0, [sp, #160]	; 0xa0
    13ca:	3008      	adds	r0, #8
    13cc:	e092      	b.n	14f4 <_mr_readFile+0x1d4>
    13ce:	9906      	ldr	r1, [sp, #24]
    13d0:	1d07      	adds	r7, r0, #4
    13d2:	428f      	cmp	r7, r1
    13d4:	912b      	str	r1, [sp, #172]	; 0xac
    13d6:	d205      	bcs.n	13e4 <_mr_readFile+0xc4>
    13d8:	9928      	ldr	r1, [sp, #160]	; 0xa0
    13da:	2901      	cmp	r1, #1
    13dc:	d302      	bcc.n	13e4 <_mr_readFile+0xc4>
    13de:	4a34      	ldr	r2, [pc, #208]	; (14b0 <_mr_readFile+0x190>)
    13e0:	4291      	cmp	r1, r2
    13e2:	d306      	bcc.n	13f2 <_mr_readFile+0xd2>
    13e4:	21fb      	movs	r1, #251	; 0xfb
    13e6:	0089      	lsls	r1, r1, #2
    13e8:	1c20      	adds	r0, r4, #0
    13ea:	f7ff fffe 	bl	11bc <_mr_readFileShowInfo>
    13ee:	2000      	movs	r0, #0
    13f0:	e7c9      	b.n	1386 <_mr_readFile+0x66>
    13f2:	1829      	adds	r1, r5, r0
    13f4:	a828      	add	r0, sp, #160	; 0xa0
    13f6:	2204      	movs	r2, #4
    13f8:	f7ff fffe 	bl	0 <__rt_memcpy>
    13fc:	9e28      	ldr	r6, [sp, #160]	; 0xa0
    13fe:	992b      	ldr	r1, [sp, #172]	; 0xac
    1400:	19f0      	adds	r0, r6, r7
    1402:	4288      	cmp	r0, r1
    1404:	d203      	bcs.n	140e <_mr_readFile+0xee>
    1406:	2e01      	cmp	r6, #1
    1408:	d301      	bcc.n	140e <_mr_readFile+0xee>
    140a:	2e80      	cmp	r6, #128	; 0x80
    140c:	d307      	bcc.n	141e <_mr_readFile+0xfe>
    140e:	4923      	ldr	r1, [pc, #140]	; (149c <_mr_readFile+0x17c>)
    1410:	3101      	adds	r1, #1
    1412:	1c20      	adds	r0, r4, #0
    1414:	f7ff fffe 	bl	11bc <_mr_readFileShowInfo>
    1418:	2000      	movs	r0, #0
    141a:	e7b4      	b.n	1386 <_mr_readFile+0x66>
    141c:	e083      	b.n	1526 <_mr_readFile+0x206>
    141e:	2180      	movs	r1, #128	; 0x80
    1420:	a808      	add	r0, sp, #32
    1422:	f7ff fffe 	bl	0 <__rt_memclr_w>
    1426:	19e9      	adds	r1, r5, r7
    1428:	1c32      	adds	r2, r6, #0
    142a:	a808      	add	r0, sp, #32
    142c:	f7ff fffe 	bl	0 <__rt_memcpy>
    1430:	9828      	ldr	r0, [sp, #160]	; 0xa0
    1432:	183e      	adds	r6, r7, r0
    1434:	a908      	add	r1, sp, #32
    1436:	1c20      	adds	r0, r4, #0
    1438:	f7ff fffe 	bl	0 <strcmp>
    143c:	2800      	cmp	r0, #0
    143e:	d151      	bne.n	14e4 <_mr_readFile+0x1c4>
    1440:	982e      	ldr	r0, [sp, #184]	; 0xb8
    1442:	2801      	cmp	r0, #1
    1444:	d136      	bne.n	14b4 <_mr_readFile+0x194>
    1446:	e79e      	b.n	1386 <_mr_readFile+0x66>
    1448:	00000000 	.word	0x00000000
    144c:	64616572 	.word	0x64616572
    1450:	6c696620 	.word	0x6c696620
    1454:	22202065 	.word	0x22202065
    1458:	20227325 	.word	0x20227325
    145c:	2c727265 	.word	0x2c727265
    1460:	646f6320 	.word	0x646f6320
    1464:	64253d65 	.word	0x64253d65
    1468:	00000000 	.word	0x00000000
    146c:	00000414 	.word	0x00000414
    1470:	6d5f726d 	.word	0x6d5f726d
    1474:	69665f30 	.word	0x69665f30
    1478:	5b73656c 	.word	0x5b73656c
    147c:	205d6425 	.word	0x205d6425
    1480:	216c696e 	.word	0x216c696e
    1484:	00000000 	.word	0x00000000
    1488:	725f726d 	.word	0x725f726d
    148c:	665f6d61 	.word	0x665f6d61
    1490:	20656c69 	.word	0x20656c69
    1494:	216c696e 	.word	0x216c696e
    1498:	00000000 	.word	0x00000000
    149c:	000003e9 	.word	0x000003e9
    14a0:	75616e75 	.word	0x75616e75
    14a4:	726f6874 	.word	0x726f6874
    14a8:	64657a69 	.word	0x64657a69
    14ac:	00000000 	.word	0x00000000
    14b0:	7fffffff 	.word	0x7fffffff
    14b4:	2001      	movs	r0, #1
    14b6:	9029      	str	r0, [sp, #164]	; 0xa4
    14b8:	19a9      	adds	r1, r5, r6
    14ba:	2204      	movs	r2, #4
    14bc:	a828      	add	r0, sp, #160	; 0xa0
    14be:	f7ff fffe 	bl	0 <__rt_memcpy>
    14c2:	1d30      	adds	r0, r6, #4
    14c4:	9928      	ldr	r1, [sp, #160]	; 0xa0
    14c6:	9b06      	ldr	r3, [sp, #24]
    14c8:	180a      	adds	r2, r1, r0
    14ca:	429a      	cmp	r2, r3
    14cc:	d804      	bhi.n	14d8 <_mr_readFile+0x1b8>
    14ce:	2901      	cmp	r1, #1
    14d0:	d302      	bcc.n	14d8 <_mr_readFile+0x1b8>
    14d2:	4aea      	ldr	r2, [pc, #936]	; (187c <_mr_readFile+0x55c>)
    14d4:	4291      	cmp	r1, r2
    14d6:	d30d      	bcc.n	14f4 <_mr_readFile+0x1d4>
    14d8:	49e9      	ldr	r1, [pc, #932]	; (1880 <_mr_readFile+0x560>)
    14da:	1c20      	adds	r0, r4, #0
    14dc:	f7ff fffe 	bl	11bc <_mr_readFileShowInfo>
    14e0:	2000      	movs	r0, #0
    14e2:	e750      	b.n	1386 <_mr_readFile+0x66>
    14e4:	19a9      	adds	r1, r5, r6
    14e6:	2204      	movs	r2, #4
    14e8:	a828      	add	r0, sp, #160	; 0xa0
    14ea:	f7ff fffe 	bl	0 <__rt_memcpy>
    14ee:	9828      	ldr	r0, [sp, #160]	; 0xa0
    14f0:	1830      	adds	r0, r6, r0
    14f2:	3004      	adds	r0, #4
    14f4:	9929      	ldr	r1, [sp, #164]	; 0xa4
    14f6:	2900      	cmp	r1, #0
    14f8:	d100      	bne.n	14fc <_mr_readFile+0x1dc>
    14fa:	e768      	b.n	13ce <_mr_readFile+0xae>
    14fc:	9928      	ldr	r1, [sp, #160]	; 0xa0
    14fe:	9a2d      	ldr	r2, [sp, #180]	; 0xb4
    1500:	6011      	str	r1, [r2, #0]
    1502:	2900      	cmp	r1, #0
    1504:	dc06      	bgt.n	1514 <_mr_readFile+0x1f4>
    1506:	49de      	ldr	r1, [pc, #888]	; (1880 <_mr_readFile+0x560>)
    1508:	3102      	adds	r1, #2
    150a:	1c20      	adds	r0, r4, #0
    150c:	f7ff fffe 	bl	11bc <_mr_readFileShowInfo>
    1510:	2000      	movs	r0, #0
    1512:	e738      	b.n	1386 <_mr_readFile+0x66>
    1514:	992e      	ldr	r1, [sp, #184]	; 0xb8
    1516:	2902      	cmp	r1, #2
    1518:	d101      	bne.n	151e <_mr_readFile+0x1fe>
    151a:	1828      	adds	r0, r5, r0
    151c:	e733      	b.n	1386 <_mr_readFile+0x66>
    151e:	182f      	adds	r7, r5, r0
    1520:	2001      	movs	r0, #1
    1522:	9007      	str	r0, [sp, #28]
    1524:	e15a      	b.n	17dc <_mr_readFile+0x4bc>
    1526:	2101      	movs	r1, #1
    1528:	f7ff fffe 	bl	0 <mr_open>
    152c:	1c05      	adds	r5, r0, #0
    152e:	d105      	bne.n	153c <_mr_readFile+0x21c>
    1530:	49d4      	ldr	r1, [pc, #848]	; (1884 <_mr_readFile+0x564>)
    1532:	1c20      	adds	r0, r4, #0
    1534:	f7ff fffe 	bl	11bc <_mr_readFileShowInfo>
    1538:	2000      	movs	r0, #0
    153a:	e724      	b.n	1386 <_mr_readFile+0x66>
    153c:	2100      	movs	r1, #0
    153e:	2200      	movs	r2, #0
    1540:	a803      	add	r0, sp, #12
    1542:	c006      	stmia	r0!, {r1, r2}
    1544:	c006      	stmia	r0!, {r1, r2}
    1546:	2210      	movs	r2, #16
    1548:	1c28      	adds	r0, r5, #0
    154a:	a903      	add	r1, sp, #12
    154c:	f7ff fffe 	bl	0 <mr_read>
    1550:	2810      	cmp	r0, #16
    1552:	d103      	bne.n	155c <_mr_readFile+0x23c>
    1554:	49cc      	ldr	r1, [pc, #816]	; (1888 <_mr_readFile+0x568>)
    1556:	9803      	ldr	r0, [sp, #12]
    1558:	4288      	cmp	r0, r1
    155a:	d008      	beq.n	156e <_mr_readFile+0x24e>
    155c:	1c28      	adds	r0, r5, #0
    155e:	f7ff fffe 	bl	0 <mr_close>
    1562:	49ca      	ldr	r1, [pc, #808]	; (188c <_mr_readFile+0x56c>)
    1564:	1c20      	adds	r0, r4, #0
    1566:	f7ff fffe 	bl	11bc <_mr_readFileShowInfo>
    156a:	2000      	movs	r0, #0
    156c:	e70b      	b.n	1386 <_mr_readFile+0x66>
    156e:	9804      	ldr	r0, [sp, #16]
    1570:	28e8      	cmp	r0, #232	; 0xe8
    1572:	d809      	bhi.n	1588 <_mr_readFile+0x268>
    1574:	1c28      	adds	r0, r5, #0
    1576:	f7ff fffe 	bl	0 <mr_close>
    157a:	49c4      	ldr	r1, [pc, #784]	; (188c <_mr_readFile+0x56c>)
    157c:	3132      	adds	r1, #50	; 0x32
    157e:	1c20      	adds	r0, r4, #0
    1580:	f7ff fffe 	bl	11bc <_mr_readFileShowInfo>
    1584:	2000      	movs	r0, #0
    1586:	e6fe      	b.n	1386 <_mr_readFile+0x66>
    1588:	9804      	ldr	r0, [sp, #16]
    158a:	9906      	ldr	r1, [sp, #24]
    158c:	3008      	adds	r0, #8
    158e:	1a47      	subs	r7, r0, r1
    1590:	1c38      	adds	r0, r7, #0
    1592:	f7ff fffe 	bl	84 <mr_malloc>
    1596:	1c06      	adds	r6, r0, #0
    1598:	2000      	movs	r0, #0
    159a:	9002      	str	r0, [sp, #8]
    159c:	2e00      	cmp	r6, #0
    159e:	d109      	bne.n	15b4 <_mr_readFile+0x294>
    15a0:	1c28      	adds	r0, r5, #0
    15a2:	f7ff fffe 	bl	0 <mr_close>
    15a6:	49b9      	ldr	r1, [pc, #740]	; (188c <_mr_readFile+0x56c>)
    15a8:	3102      	adds	r1, #2
    15aa:	1c20      	adds	r0, r4, #0
    15ac:	f7ff fffe 	bl	11bc <_mr_readFileShowInfo>
    15b0:	2000      	movs	r0, #0
    15b2:	e6e8      	b.n	1386 <_mr_readFile+0x66>
    15b4:	9906      	ldr	r1, [sp, #24]
    15b6:	2201      	movs	r2, #1
    15b8:	3910      	subs	r1, #16
    15ba:	1c28      	adds	r0, r5, #0
    15bc:	f7ff fffe 	bl	0 <mr_seek>
    15c0:	2800      	cmp	r0, #0
    15c2:	da0d      	bge.n	15e0 <_mr_readFile+0x2c0>
    15c4:	1c28      	adds	r0, r5, #0
    15c6:	f7ff fffe 	bl	0 <mr_close>
    15ca:	1c39      	adds	r1, r7, #0
    15cc:	1c30      	adds	r0, r6, #0
    15ce:	f7ff fffe 	bl	138 <mr_free>
    15d2:	49ae      	ldr	r1, [pc, #696]	; (188c <_mr_readFile+0x56c>)
    15d4:	3101      	adds	r1, #1
    15d6:	1c20      	adds	r0, r4, #0
    15d8:	f7ff fffe 	bl	11bc <_mr_readFileShowInfo>
    15dc:	2000      	movs	r0, #0
    15de:	e6d2      	b.n	1386 <_mr_readFile+0x66>
    15e0:	1c3a      	adds	r2, r7, #0
    15e2:	1c31      	adds	r1, r6, #0
    15e4:	1c28      	adds	r0, r5, #0
    15e6:	f7ff fffe 	bl	0 <mr_read>
    15ea:	42b8      	cmp	r0, r7
    15ec:	d071      	beq.n	16d2 <_mr_readFile+0x3b2>
    15ee:	1c28      	adds	r0, r5, #0
    15f0:	f7ff fffe 	bl	0 <mr_close>
    15f4:	1c39      	adds	r1, r7, #0
    15f6:	1c30      	adds	r0, r6, #0
    15f8:	f7ff fffe 	bl	138 <mr_free>
    15fc:	49a3      	ldr	r1, [pc, #652]	; (188c <_mr_readFile+0x56c>)
    15fe:	3102      	adds	r1, #2
    1600:	1c20      	adds	r0, r4, #0
    1602:	f7ff fffe 	bl	11bc <_mr_readFileShowInfo>
    1606:	2000      	movs	r0, #0
    1608:	e6bd      	b.n	1386 <_mr_readFile+0x66>
    160a:	9802      	ldr	r0, [sp, #8]
    160c:	1831      	adds	r1, r6, r0
    160e:	a828      	add	r0, sp, #160	; 0xa0
    1610:	2204      	movs	r2, #4
    1612:	f7ff fffe 	bl	0 <__rt_memcpy>
    1616:	9902      	ldr	r1, [sp, #8]
    1618:	3104      	adds	r1, #4
    161a:	9102      	str	r1, [sp, #8]
    161c:	9828      	ldr	r0, [sp, #160]	; 0xa0
    161e:	902a      	str	r0, [sp, #168]	; 0xa8
    1620:	9902      	ldr	r1, [sp, #8]
    1622:	1840      	adds	r0, r0, r1
    1624:	42b8      	cmp	r0, r7
    1626:	d805      	bhi.n	1634 <_mr_readFile+0x314>
    1628:	982a      	ldr	r0, [sp, #168]	; 0xa8
    162a:	2801      	cmp	r0, #1
    162c:	d302      	bcc.n	1634 <_mr_readFile+0x314>
    162e:	982a      	ldr	r0, [sp, #168]	; 0xa8
    1630:	2880      	cmp	r0, #128	; 0x80
    1632:	d30d      	bcc.n	1650 <_mr_readFile+0x330>
    1634:	1c28      	adds	r0, r5, #0
    1636:	f7ff fffe 	bl	0 <mr_close>
    163a:	1c39      	adds	r1, r7, #0
    163c:	1c30      	adds	r0, r6, #0
    163e:	f7ff fffe 	bl	138 <mr_free>
    1642:	4992      	ldr	r1, [pc, #584]	; (188c <_mr_readFile+0x56c>)
    1644:	3103      	adds	r1, #3
    1646:	1c20      	adds	r0, r4, #0
    1648:	f7ff fffe 	bl	11bc <_mr_readFileShowInfo>
    164c:	2000      	movs	r0, #0
    164e:	e69a      	b.n	1386 <_mr_readFile+0x66>
    1650:	2180      	movs	r1, #128	; 0x80
    1652:	a808      	add	r0, sp, #32
    1654:	f7ff fffe 	bl	0 <__rt_memclr_w>
    1658:	9902      	ldr	r1, [sp, #8]
    165a:	a808      	add	r0, sp, #32
    165c:	9a2a      	ldr	r2, [sp, #168]	; 0xa8
    165e:	1871      	adds	r1, r6, r1
    1660:	f7ff fffe 	bl	0 <__rt_memcpy>
    1664:	9828      	ldr	r0, [sp, #160]	; 0xa0
    1666:	9902      	ldr	r1, [sp, #8]
    1668:	1808      	adds	r0, r1, r0
    166a:	9002      	str	r0, [sp, #8]
    166c:	a908      	add	r1, sp, #32
    166e:	1c20      	adds	r0, r4, #0
    1670:	f7ff fffe 	bl	0 <strcmp>
    1674:	2800      	cmp	r0, #0
    1676:	d136      	bne.n	16e6 <_mr_readFile+0x3c6>
    1678:	982e      	ldr	r0, [sp, #184]	; 0xb8
    167a:	2801      	cmp	r0, #1
    167c:	d108      	bne.n	1690 <_mr_readFile+0x370>
    167e:	1c28      	adds	r0, r5, #0
    1680:	f7ff fffe 	bl	0 <mr_close>
    1684:	1c39      	adds	r1, r7, #0
    1686:	1c30      	adds	r0, r6, #0
    1688:	f7ff fffe 	bl	138 <mr_free>
    168c:	2001      	movs	r0, #1
    168e:	e67a      	b.n	1386 <_mr_readFile+0x66>
    1690:	2001      	movs	r0, #1
    1692:	9029      	str	r0, [sp, #164]	; 0xa4
    1694:	9802      	ldr	r0, [sp, #8]
    1696:	2204      	movs	r2, #4
    1698:	1831      	adds	r1, r6, r0
    169a:	4668      	mov	r0, sp
    169c:	1880      	adds	r0, r0, r2
    169e:	f7ff fffe 	bl	0 <__rt_memcpy>
    16a2:	9802      	ldr	r0, [sp, #8]
    16a4:	3004      	adds	r0, #4
    16a6:	9002      	str	r0, [sp, #8]
    16a8:	9802      	ldr	r0, [sp, #8]
    16aa:	1831      	adds	r1, r6, r0
    16ac:	4668      	mov	r0, sp
    16ae:	2204      	movs	r2, #4
    16b0:	f7ff fffe 	bl	0 <__rt_memcpy>
    16b4:	9802      	ldr	r0, [sp, #8]
    16b6:	3004      	adds	r0, #4
    16b8:	9002      	str	r0, [sp, #8]
    16ba:	9801      	ldr	r0, [sp, #4]
    16bc:	9900      	ldr	r1, [sp, #0]
    16be:	1840      	adds	r0, r0, r1
    16c0:	9905      	ldr	r1, [sp, #20]
    16c2:	4288      	cmp	r0, r1
    16c4:	d905      	bls.n	16d2 <_mr_readFile+0x3b2>
    16c6:	1c28      	adds	r0, r5, #0
    16c8:	f7ff fffe 	bl	0 <mr_close>
    16cc:	1c39      	adds	r1, r7, #0
    16ce:	1c30      	adds	r0, r6, #0
    16d0:	e000      	b.n	16d4 <_mr_readFile+0x3b4>
    16d2:	e01c      	b.n	170e <_mr_readFile+0x3ee>
    16d4:	f7ff fffe 	bl	138 <mr_free>
    16d8:	496c      	ldr	r1, [pc, #432]	; (188c <_mr_readFile+0x56c>)
    16da:	3104      	adds	r1, #4
    16dc:	1c20      	adds	r0, r4, #0
    16de:	f7ff fffe 	bl	11bc <_mr_readFileShowInfo>
    16e2:	2000      	movs	r0, #0
    16e4:	e64f      	b.n	1386 <_mr_readFile+0x66>
    16e6:	9802      	ldr	r0, [sp, #8]
    16e8:	300c      	adds	r0, #12
    16ea:	9002      	str	r0, [sp, #8]
    16ec:	9802      	ldr	r0, [sp, #8]
    16ee:	42b8      	cmp	r0, r7
    16f0:	d30d      	bcc.n	170e <_mr_readFile+0x3ee>
    16f2:	1c28      	adds	r0, r5, #0
    16f4:	f7ff fffe 	bl	0 <mr_close>
    16f8:	1c39      	adds	r1, r7, #0
    16fa:	1c30      	adds	r0, r6, #0
    16fc:	f7ff fffe 	bl	138 <mr_free>
    1700:	4962      	ldr	r1, [pc, #392]	; (188c <_mr_readFile+0x56c>)
    1702:	3105      	adds	r1, #5
    1704:	1c20      	adds	r0, r4, #0
    1706:	f7ff fffe 	bl	11bc <_mr_readFileShowInfo>
    170a:	2000      	movs	r0, #0
    170c:	e63b      	b.n	1386 <_mr_readFile+0x66>
    170e:	9829      	ldr	r0, [sp, #164]	; 0xa4
    1710:	2800      	cmp	r0, #0
    1712:	d100      	bne.n	1716 <_mr_readFile+0x3f6>
    1714:	e779      	b.n	160a <_mr_readFile+0x2ea>
    1716:	1c39      	adds	r1, r7, #0
    1718:	1c30      	adds	r0, r6, #0
    171a:	f7ff fffe 	bl	138 <mr_free>
    171e:	9800      	ldr	r0, [sp, #0]
    1720:	9a2d      	ldr	r2, [sp, #180]	; 0xb4
    1722:	6010      	str	r0, [r2, #0]
    1724:	f7ff fffe 	bl	84 <mr_malloc>
    1728:	1c07      	adds	r7, r0, #0
    172a:	d109      	bne.n	1740 <_mr_readFile+0x420>
    172c:	1c28      	adds	r0, r5, #0
    172e:	f7ff fffe 	bl	0 <mr_close>
    1732:	4956      	ldr	r1, [pc, #344]	; (188c <_mr_readFile+0x56c>)
    1734:	3106      	adds	r1, #6
    1736:	1c20      	adds	r0, r4, #0
    1738:	f7ff fffe 	bl	11bc <_mr_readFileShowInfo>
    173c:	2000      	movs	r0, #0
    173e:	e622      	b.n	1386 <_mr_readFile+0x66>
    1740:	2200      	movs	r2, #0
    1742:	1c28      	adds	r0, r5, #0
    1744:	9901      	ldr	r1, [sp, #4]
    1746:	f7ff fffe 	bl	0 <mr_seek>
    174a:	2800      	cmp	r0, #0
    174c:	da0e      	bge.n	176c <_mr_readFile+0x44c>
    174e:	982d      	ldr	r0, [sp, #180]	; 0xb4
    1750:	6801      	ldr	r1, [r0, #0]
    1752:	1c38      	adds	r0, r7, #0
    1754:	f7ff fffe 	bl	138 <mr_free>
    1758:	1c28      	adds	r0, r5, #0
    175a:	f7ff fffe 	bl	0 <mr_close>
    175e:	212f      	movs	r1, #47	; 0x2f
    1760:	0189      	lsls	r1, r1, #6
    1762:	1c20      	adds	r0, r4, #0
    1764:	f7ff fffe 	bl	11bc <_mr_readFileShowInfo>
    1768:	2000      	movs	r0, #0
    176a:	e60c      	b.n	1386 <_mr_readFile+0x66>
    176c:	2600      	movs	r6, #0
    176e:	982d      	ldr	r0, [sp, #180]	; 0xb4
    1770:	6801      	ldr	r1, [r0, #0]
    1772:	2900      	cmp	r1, #0
    1774:	da2b      	bge.n	17ce <_mr_readFile+0x4ae>
    1776:	a046      	add	r0, pc, #280	; (adr r0, 1890 <_mr_readFile+0x570>)
    1778:	f7ff fffe 	bl	0 <mr_printf>
    177c:	1c38      	adds	r0, r7, #0
    177e:	9900      	ldr	r1, [sp, #0]
    1780:	f7ff fffe 	bl	138 <mr_free>
    1784:	1c28      	adds	r0, r5, #0
    1786:	f7ff fffe 	bl	0 <mr_close>
    178a:	4940      	ldr	r1, [pc, #256]	; (188c <_mr_readFile+0x56c>)
    178c:	3109      	adds	r1, #9
    178e:	1c20      	adds	r0, r4, #0
    1790:	f7ff fffe 	bl	11bc <_mr_readFileShowInfo>
    1794:	2000      	movs	r0, #0
    1796:	e5f6      	b.n	1386 <_mr_readFile+0x66>
    1798:	1b82      	subs	r2, r0, r6
    179a:	19b9      	adds	r1, r7, r6
    179c:	1c28      	adds	r0, r5, #0
    179e:	f7ff fffe 	bl	0 <mr_read>
    17a2:	2800      	cmp	r0, #0
    17a4:	dd03      	ble.n	17ae <_mr_readFile+0x48e>
    17a6:	2101      	movs	r1, #1
    17a8:	0509      	lsls	r1, r1, #20
    17aa:	428e      	cmp	r6, r1
    17ac:	dd0e      	ble.n	17cc <_mr_readFile+0x4ac>
    17ae:	982d      	ldr	r0, [sp, #180]	; 0xb4
    17b0:	6801      	ldr	r1, [r0, #0]
    17b2:	1c38      	adds	r0, r7, #0
    17b4:	f7ff fffe 	bl	138 <mr_free>
    17b8:	1c28      	adds	r0, r5, #0
    17ba:	f7ff fffe 	bl	0 <mr_close>
    17be:	4933      	ldr	r1, [pc, #204]	; (188c <_mr_readFile+0x56c>)
    17c0:	3108      	adds	r1, #8
    17c2:	1c20      	adds	r0, r4, #0
    17c4:	f7ff fffe 	bl	11bc <_mr_readFileShowInfo>
    17c8:	2000      	movs	r0, #0
    17ca:	e5dc      	b.n	1386 <_mr_readFile+0x66>
    17cc:	1836      	adds	r6, r6, r0
    17ce:	982d      	ldr	r0, [sp, #180]	; 0xb4
    17d0:	6800      	ldr	r0, [r0, #0]
    17d2:	42b0      	cmp	r0, r6
    17d4:	dce0      	bgt.n	1798 <_mr_readFile+0x478>
    17d6:	1c28      	adds	r0, r5, #0
    17d8:	f7ff fffe 	bl	0 <mr_close>
    17dc:	4d2f      	ldr	r5, [pc, #188]	; (189c <_mr_readFile+0x57c>)
    17de:	652f      	str	r7, [r5, #80]	; 0x50
    17e0:	2000      	movs	r0, #0
    17e2:	65e8      	str	r0, [r5, #92]	; 0x5c
    17e4:	65a8      	str	r0, [r5, #88]	; 0x58
    17e6:	982d      	ldr	r0, [sp, #180]	; 0xb4
    17e8:	6800      	ldr	r0, [r0, #0]
    17ea:	f7ff fffe 	bl	0 <mr_get_method>
    17ee:	2800      	cmp	r0, #0
    17f0:	da01      	bge.n	17f6 <_mr_readFile+0x4d6>
    17f2:	1c38      	adds	r0, r7, #0
    17f4:	e5c7      	b.n	1386 <_mr_readFile+0x66>
    17f6:	982d      	ldr	r0, [sp, #180]	; 0xb4
    17f8:	6800      	ldr	r0, [r0, #0]
    17fa:	19c0      	adds	r0, r0, r7
    17fc:	3810      	subs	r0, #16
    17fe:	7b01      	ldrb	r1, [r0, #12]
    1800:	7b42      	ldrb	r2, [r0, #13]
    1802:	0212      	lsls	r2, r2, #8
    1804:	4311      	orrs	r1, r2
    1806:	7b82      	ldrb	r2, [r0, #14]
    1808:	0412      	lsls	r2, r2, #16
    180a:	4311      	orrs	r1, r2
    180c:	7bc0      	ldrb	r0, [r0, #15]
    180e:	0600      	lsls	r0, r0, #24
    1810:	4308      	orrs	r0, r1
    1812:	1c06      	adds	r6, r0, #0
    1814:	1c30      	adds	r0, r6, #0
    1816:	f7ff fffe 	bl	84 <mr_malloc>
    181a:	1c2f      	adds	r7, r5, #0
    181c:	6568      	str	r0, [r5, #84]	; 0x54
    181e:	982d      	ldr	r0, [sp, #180]	; 0xb4
    1820:	6805      	ldr	r5, [r0, #0]
    1822:	982d      	ldr	r0, [sp, #180]	; 0xb4
    1824:	6006      	str	r6, [r0, #0]
    1826:	6d78      	ldr	r0, [r7, #84]	; 0x54
    1828:	2800      	cmp	r0, #0
    182a:	d108      	bne.n	183e <_mr_readFile+0x51e>
    182c:	9807      	ldr	r0, [sp, #28]
    182e:	2800      	cmp	r0, #0
    1830:	d103      	bne.n	183a <_mr_readFile+0x51a>
    1832:	1c29      	adds	r1, r5, #0
    1834:	6d38      	ldr	r0, [r7, #80]	; 0x50
    1836:	f7ff fffe 	bl	138 <mr_free>
    183a:	2000      	movs	r0, #0
    183c:	e5a3      	b.n	1386 <_mr_readFile+0x66>
    183e:	f7ff fffe 	bl	0 <mr_unzip>
    1842:	2800      	cmp	r0, #0
    1844:	d010      	beq.n	1868 <_mr_readFile+0x548>
    1846:	9807      	ldr	r0, [sp, #28]
    1848:	2800      	cmp	r0, #0
    184a:	d103      	bne.n	1854 <_mr_readFile+0x534>
    184c:	1c29      	adds	r1, r5, #0
    184e:	6d38      	ldr	r0, [r7, #80]	; 0x50
    1850:	f7ff fffe 	bl	138 <mr_free>
    1854:	1c31      	adds	r1, r6, #0
    1856:	6d78      	ldr	r0, [r7, #84]	; 0x54
    1858:	f7ff fffe 	bl	138 <mr_free>
    185c:	1c21      	adds	r1, r4, #0
    185e:	a010      	add	r0, pc, #64	; (adr r0, 18a0 <_mr_readFile+0x580>)
    1860:	f7ff fffe 	bl	0 <mr_printf>
    1864:	2000      	movs	r0, #0
    1866:	e58e      	b.n	1386 <_mr_readFile+0x66>
    1868:	9807      	ldr	r0, [sp, #28]
    186a:	2800      	cmp	r0, #0
    186c:	d103      	bne.n	1876 <_mr_readFile+0x556>
    186e:	1c29      	adds	r1, r5, #0
    1870:	6d38      	ldr	r0, [r7, #80]	; 0x50
    1872:	f7ff fffe 	bl	138 <mr_free>
    1876:	6d78      	ldr	r0, [r7, #84]	; 0x54
    1878:	e585      	b.n	1386 <_mr_readFile+0x66>
    187a:	0000      	.short	0x0000
    187c:	7fffffff 	.word	0x7fffffff
    1880:	000003eb 	.word	0x000003eb
    1884:	000007d2 	.word	0x000007d2
    1888:	4750524d 	.word	0x4750524d
    188c:	00000bb9 	.word	0x00000bb9
    1890:	656c6966 	.word	0x656c6966
    1894:	3d6e656c 	.word	0x3d6e656c
    1898:	00006425 	.word	0x00006425
    189c:	00000000 	.word	0x00000000
    18a0:	5f726d5f 	.word	0x5f726d5f
    18a4:	64616572 	.word	0x64616572
    18a8:	656c6946 	.word	0x656c6946
    18ac:	2522203a 	.word	0x2522203a
    18b0:	55202273 	.word	0x55202273
    18b4:	70697a6e 	.word	0x70697a6e
    18b8:	72726520 	.word	0x72726520
    18bc:	00000021 	.word	0x00000021

000018c0 <_DispUpEx>:
    18c0:	b538      	push	{r3, r4, r5, lr}
    18c2:	45d5      	cmp	sp, sl
    18c4:	d201      	bcs.n	18ca <_DispUpEx+0xa>
    18c6:	f7ff fffe 	bl	0 <__rt_stkovf_split_small>
    18ca:	1c15      	adds	r5, r2, #0
    18cc:	1c1a      	adds	r2, r3, #0
    18ce:	4ce5      	ldr	r4, [pc, #916]	; (1c64 <_mr_newSIMInd+0x84>)
    18d0:	6863      	ldr	r3, [r4, #4]
    18d2:	2b01      	cmp	r3, #1
    18d4:	d001      	beq.n	18da <_DispUpEx+0x1a>
    18d6:	2000      	movs	r0, #0
    18d8:	bd38      	pop	{r3, r4, r5, pc}
    18da:	9200      	str	r2, [sp, #0]
    18dc:	1c0a      	adds	r2, r1, #0
    18de:	1c2b      	adds	r3, r5, #0
    18e0:	1c01      	adds	r1, r0, #0
    18e2:	6ba0      	ldr	r0, [r4, #56]	; 0x38
    18e4:	f7ff fffe 	bl	0 <mr_drawBitmap>
    18e8:	2000      	movs	r0, #0
    18ea:	e7f5      	b.n	18d8 <_DispUpEx+0x18>

000018ec <_mr_save_sms_cfg>:
    18ec:	b5b0      	push	{r4, r5, r7, lr}
    18ee:	45d5      	cmp	sp, sl
    18f0:	d201      	bcs.n	18f6 <_mr_save_sms_cfg+0xa>
    18f2:	f7ff fffe 	bl	0 <__rt_stkovf_split_small>
    18f6:	49db      	ldr	r1, [pc, #876]	; (1c64 <_mr_newSIMInd+0x84>)
    18f8:	69c8      	ldr	r0, [r1, #28]
    18fa:	2800      	cmp	r0, #0
    18fc:	d029      	beq.n	1952 <_mr_save_sms_cfg+0x66>
    18fe:	2000      	movs	r0, #0
    1900:	61c8      	str	r0, [r1, #28]
    1902:	48d9      	ldr	r0, [pc, #868]	; (1c68 <_mr_newSIMInd+0x88>)
    1904:	210a      	movs	r1, #10
    1906:	6800      	ldr	r0, [r0, #0]
    1908:	f7ff fffe 	bl	0 <mr_open>
    190c:	1c04      	adds	r4, r0, #0
    190e:	2500      	movs	r5, #0
    1910:	43ed      	mvns	r5, r5
    1912:	2c00      	cmp	r4, #0
    1914:	d101      	bne.n	191a <_mr_save_sms_cfg+0x2e>
    1916:	1c28      	adds	r0, r5, #0
    1918:	bdb0      	pop	{r4, r5, r7, pc}
    191a:	2200      	movs	r2, #0
    191c:	2100      	movs	r1, #0
    191e:	1c20      	adds	r0, r4, #0
    1920:	f7ff fffe 	bl	0 <mr_seek>
    1924:	1c43      	adds	r3, r0, #1
    1926:	d104      	bne.n	1932 <_mr_save_sms_cfg+0x46>
    1928:	1c20      	adds	r0, r4, #0
    192a:	f7ff fffe 	bl	0 <mr_close>
    192e:	1c28      	adds	r0, r5, #0
    1930:	bdb0      	pop	{r4, r5, r7, pc}
    1932:	2287      	movs	r2, #135	; 0x87
    1934:	0152      	lsls	r2, r2, #5
    1936:	1c20      	adds	r0, r4, #0
    1938:	49cc      	ldr	r1, [pc, #816]	; (1c6c <_mr_newSIMInd+0x8c>)
    193a:	f7ff fffe 	bl	0 <mr_write>
    193e:	1c43      	adds	r3, r0, #1
    1940:	d104      	bne.n	194c <_mr_save_sms_cfg+0x60>
    1942:	1c20      	adds	r0, r4, #0
    1944:	f7ff fffe 	bl	0 <mr_close>
    1948:	1c28      	adds	r0, r5, #0
    194a:	bdb0      	pop	{r4, r5, r7, pc}
    194c:	1c20      	adds	r0, r4, #0
    194e:	f7ff fffe 	bl	0 <mr_close>
    1952:	2000      	movs	r0, #0
    1954:	bdb0      	pop	{r4, r5, r7, pc}

00001956 <_mr_smsGetBytes>:
    1956:	b510      	push	{r4, lr}
    1958:	45d5      	cmp	sp, sl
    195a:	d201      	bcs.n	1960 <_mr_smsGetBytes+0xa>
    195c:	f7ff fffe 	bl	0 <__rt_stkovf_split_small>
    1960:	1c0b      	adds	r3, r1, #0
    1962:	2187      	movs	r1, #135	; 0x87
    1964:	0149      	lsls	r1, r1, #5
    1966:	4288      	cmp	r0, r1
    1968:	da04      	bge.n	1974 <_mr_smsGetBytes+0x1e>
    196a:	2800      	cmp	r0, #0
    196c:	db02      	blt.n	1974 <_mr_smsGetBytes+0x1e>
    196e:	1884      	adds	r4, r0, r2
    1970:	428c      	cmp	r4, r1
    1972:	db02      	blt.n	197a <_mr_smsGetBytes+0x24>
    1974:	2000      	movs	r0, #0
    1976:	43c0      	mvns	r0, r0
    1978:	bd10      	pop	{r4, pc}
    197a:	49bc      	ldr	r1, [pc, #752]	; (1c6c <_mr_newSIMInd+0x8c>)
    197c:	1809      	adds	r1, r1, r0
    197e:	1c18      	adds	r0, r3, #0
    1980:	f7ff fffe 	bl	0 <__rt_memcpy>
    1984:	2000      	movs	r0, #0
    1986:	bd10      	pop	{r4, pc}

00001988 <_mr_smsSetBytes>:
    1988:	b510      	push	{r4, lr}
    198a:	45d5      	cmp	sp, sl
    198c:	d201      	bcs.n	1992 <_mr_smsSetBytes+0xa>
    198e:	f7ff fffe 	bl	0 <__rt_stkovf_split_small>
    1992:	2387      	movs	r3, #135	; 0x87
    1994:	015b      	lsls	r3, r3, #5
    1996:	4298      	cmp	r0, r3
    1998:	da04      	bge.n	19a4 <_mr_smsSetBytes+0x1c>
    199a:	2800      	cmp	r0, #0
    199c:	db02      	blt.n	19a4 <_mr_smsSetBytes+0x1c>
    199e:	1884      	adds	r4, r0, r2
    19a0:	429c      	cmp	r4, r3
    19a2:	db02      	blt.n	19aa <_mr_smsSetBytes+0x22>
    19a4:	2000      	movs	r0, #0
    19a6:	43c0      	mvns	r0, r0
    19a8:	bd10      	pop	{r4, pc}
    19aa:	4cae      	ldr	r4, [pc, #696]	; (1c64 <_mr_newSIMInd+0x84>)
    19ac:	2301      	movs	r3, #1
    19ae:	61e3      	str	r3, [r4, #28]
    19b0:	4bae      	ldr	r3, [pc, #696]	; (1c6c <_mr_newSIMInd+0x8c>)
    19b2:	1818      	adds	r0, r3, r0
    19b4:	f7ff fffe 	bl	0 <__rt_memcpy>
    19b8:	2000      	movs	r0, #0
    19ba:	bd10      	pop	{r4, pc}

000019bc <_mr_smsAddNum>:
    19bc:	b570      	push	{r4, r5, r6, lr}
    19be:	b088      	sub	sp, #32
    19c0:	45d5      	cmp	sp, sl
    19c2:	d201      	bcs.n	19c8 <_mr_smsAddNum+0xc>
    19c4:	f7ff fffe 	bl	0 <__rt_stkovf_split_small>
    19c8:	1c06      	adds	r6, r0, #0
    19ca:	1c0d      	adds	r5, r1, #0
    19cc:	1c28      	adds	r0, r5, #0
    19ce:	f7ff fffe 	bl	0 <strlen>
    19d2:	1c04      	adds	r4, r0, #0
    19d4:	2c15      	cmp	r4, #21
    19d6:	dd06      	ble.n	19e6 <_mr_smsAddNum+0x2a>
    19d8:	a0a5      	add	r0, pc, #660	; (adr r0, 1c70 <_mr_newSIMInd+0x90>)
    19da:	f7ff fffe 	bl	0 <mr_printf>
    19de:	2000      	movs	r0, #0
    19e0:	43c0      	mvns	r0, r0
    19e2:	b008      	add	sp, #32
    19e4:	bd70      	pop	{r4, r5, r6, pc}
    19e6:	2120      	movs	r1, #32
    19e8:	4668      	mov	r0, sp
    19ea:	f7ff fffe 	bl	0 <__rt_memclr_w>
    19ee:	1c21      	adds	r1, r4, #0
    19f0:	1c28      	adds	r0, r5, #0
    19f2:	466a      	mov	r2, sp
    19f4:	f7ff fffe 	bl	0 <_mr_encode>
    19f8:	0170      	lsls	r0, r6, #5
    19fa:	3078      	adds	r0, #120	; 0x78
    19fc:	2220      	movs	r2, #32
    19fe:	4669      	mov	r1, sp
    1a00:	f7ff fffe 	bl	1988 <_mr_smsSetBytes>
    1a04:	2000      	movs	r0, #0
    1a06:	e7ec      	b.n	19e2 <_mr_smsAddNum+0x26>

00001a08 <_mr_load_sms_cfg>:
    1a08:	b5f8      	push	{r3, r4, r5, r6, r7, lr}
    1a0a:	45d5      	cmp	sp, sl
    1a0c:	d201      	bcs.n	1a12 <_mr_load_sms_cfg+0xa>
    1a0e:	f7ff fffe 	bl	0 <__rt_stkovf_split_small>
    1a12:	4994      	ldr	r1, [pc, #592]	; (1c64 <_mr_newSIMInd+0x84>)
    1a14:	2000      	movs	r0, #0
    1a16:	61c8      	str	r0, [r1, #28]
    1a18:	2787      	movs	r7, #135	; 0x87
    1a1a:	017f      	lsls	r7, r7, #5
    1a1c:	4d93      	ldr	r5, [pc, #588]	; (1c6c <_mr_newSIMInd+0x8c>)
    1a1e:	1c39      	adds	r1, r7, #0
    1a20:	1c28      	adds	r0, r5, #0
    1a22:	f7ff fffe 	bl	0 <__rt_memclr_w>
    1a26:	4c90      	ldr	r4, [pc, #576]	; (1c68 <_mr_newSIMInd+0x88>)
    1a28:	6820      	ldr	r0, [r4, #0]
    1a2a:	f7ff fffe 	bl	0 <mr_info>
    1a2e:	2801      	cmp	r0, #1
    1a30:	d12d      	bne.n	1a8e <_mr_load_sms_cfg+0x86>
    1a32:	2101      	movs	r1, #1
    1a34:	6820      	ldr	r0, [r4, #0]
    1a36:	f7ff fffe 	bl	0 <mr_open>
    1a3a:	1c04      	adds	r4, r0, #0
    1a3c:	2600      	movs	r6, #0
    1a3e:	43f6      	mvns	r6, r6
    1a40:	2c00      	cmp	r4, #0
    1a42:	d101      	bne.n	1a48 <_mr_load_sms_cfg+0x40>
    1a44:	1c30      	adds	r0, r6, #0
    1a46:	bdf8      	pop	{r3, r4, r5, r6, r7, pc}
    1a48:	1c3a      	adds	r2, r7, #0
    1a4a:	1c29      	adds	r1, r5, #0
    1a4c:	1c20      	adds	r0, r4, #0
    1a4e:	f7ff fffe 	bl	0 <mr_read>
    1a52:	1c05      	adds	r5, r0, #0
    1a54:	1c20      	adds	r0, r4, #0
    1a56:	f7ff fffe 	bl	0 <mr_close>
    1a5a:	42bd      	cmp	r5, r7
    1a5c:	d023      	beq.n	1aa6 <_mr_load_sms_cfg+0x9e>
    1a5e:	4c82      	ldr	r4, [pc, #520]	; (1c68 <_mr_newSIMInd+0x88>)
    1a60:	210a      	movs	r1, #10
    1a62:	6820      	ldr	r0, [r4, #0]
    1a64:	f7ff fffe 	bl	0 <mr_open>
    1a68:	2800      	cmp	r0, #0
    1a6a:	d101      	bne.n	1a70 <_mr_load_sms_cfg+0x68>
    1a6c:	1c30      	adds	r0, r6, #0
    1a6e:	e7ea      	b.n	1a46 <_mr_load_sms_cfg+0x3e>
    1a70:	f7ff fffe 	bl	0 <mr_close>
    1a74:	a182      	add	r1, pc, #520	; (adr r1, 1c80 <_mr_newSIMInd+0xa0>)
    1a76:	2000      	movs	r0, #0
    1a78:	f7ff fffe 	bl	19bc <_mr_smsAddNum>
    1a7c:	a183      	add	r1, pc, #524	; (adr r1, 1c8c <_mr_newSIMInd+0xac>)
    1a7e:	2001      	movs	r0, #1
    1a80:	f7ff fffe 	bl	19bc <_mr_smsAddNum>
    1a84:	a184      	add	r1, pc, #528	; (adr r1, 1c98 <_mr_newSIMInd+0xb8>)
    1a86:	2003      	movs	r0, #3
    1a88:	f7ff fffe 	bl	19bc <_mr_smsAddNum>
    1a8c:	e00b      	b.n	1aa6 <_mr_load_sms_cfg+0x9e>
    1a8e:	a17c      	add	r1, pc, #496	; (adr r1, 1c80 <_mr_newSIMInd+0xa0>)
    1a90:	2000      	movs	r0, #0
    1a92:	f7ff fffe 	bl	19bc <_mr_smsAddNum>
    1a96:	a17d      	add	r1, pc, #500	; (adr r1, 1c8c <_mr_newSIMInd+0xac>)
    1a98:	2001      	movs	r0, #1
    1a9a:	f7ff fffe 	bl	19bc <_mr_smsAddNum>
    1a9e:	a17e      	add	r1, pc, #504	; (adr r1, 1c98 <_mr_newSIMInd+0xb8>)
    1aa0:	2003      	movs	r0, #3
    1aa2:	f7ff fffe 	bl	19bc <_mr_smsAddNum>
    1aa6:	2000      	movs	r0, #0
    1aa8:	e7cd      	b.n	1a46 <_mr_load_sms_cfg+0x3e>

00001aaa <_mr_smsReplyServer>:
    1aaa:	b5f0      	push	{r4, r5, r6, r7, lr}
    1aac:	4f7b      	ldr	r7, [pc, #492]	; (1c9c <_mr_newSIMInd+0xbc>)
    1aae:	446f      	add	r7, sp
    1ab0:	4557      	cmp	r7, sl
    1ab2:	d201      	bcs.n	1ab8 <_mr_smsReplyServer+0xe>
    1ab4:	f7ff fffe 	bl	0 <__rt_stkovf_split_big_t>
    1ab8:	1c06      	adds	r6, r0, #0
    1aba:	1c0c      	adds	r4, r1, #0
    1abc:	46bd      	mov	sp, r7
    1abe:	a801      	add	r0, sp, #4
    1ac0:	f7ff fffe 	bl	0 <mr_getUserInfo>
    1ac4:	2800      	cmp	r0, #0
    1ac6:	d003      	beq.n	1ad0 <_mr_smsReplyServer+0x26>
    1ac8:	2000      	movs	r0, #0
    1aca:	43c0      	mvns	r0, r0
    1acc:	b057      	add	sp, #348	; 0x15c
    1ace:	bdf0      	pop	{r4, r5, r6, r7, pc}
    1ad0:	21a0      	movs	r1, #160	; 0xa0
    1ad2:	a811      	add	r0, sp, #68	; 0x44
    1ad4:	f7ff fffe 	bl	0 <__rt_memclr_w>
    1ad8:	20fa      	movs	r0, #250	; 0xfa
    1ada:	ab38      	add	r3, sp, #224	; 0xe0
    1adc:	7118      	strb	r0, [r3, #4]
    1ade:	20f1      	movs	r0, #241	; 0xf1
    1ae0:	7158      	strb	r0, [r3, #5]
    1ae2:	2002      	movs	r0, #2
    1ae4:	2511      	movs	r5, #17
    1ae6:	2c00      	cmp	r4, #0
    1ae8:	d008      	beq.n	1afc <_mr_smsReplyServer+0x52>
    1aea:	719d      	strb	r5, [r3, #6]
    1aec:	2006      	movs	r0, #6
    1aee:	71d8      	strb	r0, [r3, #7]
    1af0:	2210      	movs	r2, #16
    1af2:	1c21      	adds	r1, r4, #0
    1af4:	a83a      	add	r0, sp, #232	; 0xe8
    1af6:	f7ff fffe 	bl	0 <__rt_memcpy>
    1afa:	2014      	movs	r0, #20
    1afc:	a939      	add	r1, sp, #228	; 0xe4
    1afe:	540d      	strb	r5, [r1, r0]
    1b00:	3001      	adds	r0, #1
    1b02:	2102      	movs	r1, #2
    1b04:	aa39      	add	r2, sp, #228	; 0xe4
    1b06:	5411      	strb	r1, [r2, r0]
    1b08:	1c44      	adds	r4, r0, #1
    1b0a:	a839      	add	r0, sp, #228	; 0xe4
    1b0c:	1900      	adds	r0, r0, r4
    1b0e:	2210      	movs	r2, #16
    1b10:	a901      	add	r1, sp, #4
    1b12:	f7ff fffe 	bl	0 <__rt_memcpy>
    1b16:	1c20      	adds	r0, r4, #0
    1b18:	3010      	adds	r0, #16
    1b1a:	a939      	add	r1, sp, #228	; 0xe4
    1b1c:	540d      	strb	r5, [r1, r0]
    1b1e:	3001      	adds	r0, #1
    1b20:	2103      	movs	r1, #3
    1b22:	aa39      	add	r2, sp, #228	; 0xe4
    1b24:	5411      	strb	r1, [r2, r0]
    1b26:	1c44      	adds	r4, r0, #1
    1b28:	a839      	add	r0, sp, #228	; 0xe4
    1b2a:	1900      	adds	r0, r0, r4
    1b2c:	2210      	movs	r2, #16
    1b2e:	a905      	add	r1, sp, #20
    1b30:	f7ff fffe 	bl	0 <__rt_memcpy>
    1b34:	1c20      	adds	r0, r4, #0
    1b36:	3010      	adds	r0, #16
    1b38:	2115      	movs	r1, #21
    1b3a:	aa39      	add	r2, sp, #228	; 0xe4
    1b3c:	5411      	strb	r1, [r2, r0]
    1b3e:	3001      	adds	r0, #1
    1b40:	2104      	movs	r1, #4
    1b42:	aa39      	add	r2, sp, #228	; 0xe4
    1b44:	5411      	strb	r1, [r2, r0]
    1b46:	1c44      	adds	r4, r0, #1
    1b48:	990d      	ldr	r1, [sp, #52]	; 0x34
    1b4a:	980d      	ldr	r0, [sp, #52]	; 0x34
    1b4c:	0a0a      	lsrs	r2, r1, #8
    1b4e:	21ff      	movs	r1, #255	; 0xff
    1b50:	0209      	lsls	r1, r1, #8
    1b52:	400a      	ands	r2, r1
    1b54:	0e00      	lsrs	r0, r0, #24
    1b56:	4310      	orrs	r0, r2
    1b58:	9a0d      	ldr	r2, [sp, #52]	; 0x34
    1b5a:	400a      	ands	r2, r1
    1b5c:	0211      	lsls	r1, r2, #8
    1b5e:	4308      	orrs	r0, r1
    1b60:	990d      	ldr	r1, [sp, #52]	; 0x34
    1b62:	0609      	lsls	r1, r1, #24
    1b64:	4308      	orrs	r0, r1
    1b66:	900d      	str	r0, [sp, #52]	; 0x34
    1b68:	a839      	add	r0, sp, #228	; 0xe4
    1b6a:	1900      	adds	r0, r0, r4
    1b6c:	2214      	movs	r2, #20
    1b6e:	a909      	add	r1, sp, #36	; 0x24
    1b70:	f7ff fffe 	bl	0 <__rt_memcpy>
    1b74:	1c21      	adds	r1, r4, #0
    1b76:	3114      	adds	r1, #20
    1b78:	aa11      	add	r2, sp, #68	; 0x44
    1b7a:	a839      	add	r0, sp, #228	; 0xe4
    1b7c:	f7ff fffe 	bl	0 <_mr_encode>
    1b80:	2218      	movs	r2, #24
    1b82:	1c30      	adds	r0, r6, #0
    1b84:	a911      	add	r1, sp, #68	; 0x44
    1b86:	f7ff fffe 	bl	0 <mr_sendSms>
    1b8a:	2000      	movs	r0, #0
    1b8c:	e79e      	b.n	1acc <_mr_smsReplyServer+0x22>

00001b8e <_mr_smsGetNum>:
    1b8e:	b510      	push	{r4, lr}
    1b90:	b088      	sub	sp, #32
    1b92:	45d5      	cmp	sp, sl
    1b94:	d201      	bcs.n	1b9a <_mr_smsGetNum+0xc>
    1b96:	f7ff fffe 	bl	0 <__rt_stkovf_split_small>
    1b9a:	1c0c      	adds	r4, r1, #0
    1b9c:	0140      	lsls	r0, r0, #5
    1b9e:	3078      	adds	r0, #120	; 0x78
    1ba0:	2220      	movs	r2, #32
    1ba2:	4669      	mov	r1, sp
    1ba4:	f7ff fffe 	bl	1956 <_mr_smsGetBytes>
    1ba8:	4668      	mov	r0, sp
    1baa:	f7ff fffe 	bl	0 <strlen>
    1bae:	281f      	cmp	r0, #31
    1bb0:	d901      	bls.n	1bb6 <_mr_smsGetNum+0x28>
    1bb2:	201f      	movs	r0, #31
    1bb4:	e002      	b.n	1bbc <_mr_smsGetNum+0x2e>
    1bb6:	4668      	mov	r0, sp
    1bb8:	f7ff fffe 	bl	0 <strlen>
    1bbc:	1c01      	adds	r1, r0, #0
    1bbe:	4668      	mov	r0, sp
    1bc0:	1c22      	adds	r2, r4, #0
    1bc2:	f7ff fffe 	bl	0 <_mr_decode>
    1bc6:	2100      	movs	r1, #0
    1bc8:	2800      	cmp	r0, #0
    1bca:	d001      	beq.n	1bd0 <_mr_smsGetNum+0x42>
    1bcc:	2820      	cmp	r0, #32
    1bce:	d304      	bcc.n	1bda <_mr_smsGetNum+0x4c>
    1bd0:	7021      	strb	r1, [r4, #0]
    1bd2:	2000      	movs	r0, #0
    1bd4:	43c0      	mvns	r0, r0
    1bd6:	b008      	add	sp, #32
    1bd8:	bd10      	pop	{r4, pc}
    1bda:	5421      	strb	r1, [r4, r0]
    1bdc:	2000      	movs	r0, #0
    1bde:	e7fa      	b.n	1bd6 <_mr_smsGetNum+0x48>

00001be0 <_mr_newSIMInd>:
    1be0:	b5f0      	push	{r4, r5, r6, r7, lr}
    1be2:	b089      	sub	sp, #36	; 0x24
    1be4:	45d5      	cmp	sp, sl
    1be6:	d201      	bcs.n	1bec <_mr_newSIMInd+0xc>
    1be8:	f7ff fffe 	bl	0 <__rt_stkovf_split_small>
    1bec:	1c04      	adds	r4, r0, #0
    1bee:	1c0e      	adds	r6, r1, #0
    1bf0:	f7ff fffe 	bl	0 <mr_getNetworkID>
    1bf4:	1c05      	adds	r5, r0, #0
    1bf6:	2c00      	cmp	r4, #0
    1bf8:	d001      	beq.n	1bfe <_mr_newSIMInd+0x1e>
    1bfa:	2c01      	cmp	r4, #1
    1bfc:	d130      	bne.n	1c60 <_mr_newSIMInd+0x80>
    1bfe:	f7ff fffe 	bl	1a08 <_mr_load_sms_cfg>
    1c02:	f7ff fffe 	bl	18ec <_mr_save_sms_cfg>
    1c06:	2201      	movs	r2, #1
    1c08:	2005      	movs	r0, #5
    1c0a:	a908      	add	r1, sp, #32
    1c0c:	f7ff fffe 	bl	1956 <_mr_smsGetBytes>
    1c10:	ab08      	add	r3, sp, #32
    1c12:	7818      	ldrb	r0, [r3, #0]
    1c14:	2880      	cmp	r0, #128	; 0x80
    1c16:	d304      	bcc.n	1c22 <_mr_newSIMInd+0x42>
    1c18:	4669      	mov	r1, sp
    1c1a:	2003      	movs	r0, #3
    1c1c:	f7ff fffe 	bl	1b8e <_mr_smsGetNum>
    1c20:	e01a      	b.n	1c58 <_mr_newSIMInd+0x78>
    1c22:	2400      	movs	r4, #0
    1c24:	43e4      	mvns	r4, r4
    1c26:	2d00      	cmp	r5, #0
    1c28:	d00c      	beq.n	1c44 <_mr_newSIMInd+0x64>
    1c2a:	2d01      	cmp	r5, #1
    1c2c:	d001      	beq.n	1c32 <_mr_newSIMInd+0x52>
    1c2e:	2d02      	cmp	r5, #2
    1c30:	d110      	bne.n	1c54 <_mr_newSIMInd+0x74>
    1c32:	4669      	mov	r1, sp
    1c34:	2001      	movs	r0, #1
    1c36:	f7ff fffe 	bl	1b8e <_mr_smsGetNum>
    1c3a:	1c43      	adds	r3, r0, #1
    1c3c:	d10c      	bne.n	1c58 <_mr_newSIMInd+0x78>
    1c3e:	1c20      	adds	r0, r4, #0
    1c40:	b009      	add	sp, #36	; 0x24
    1c42:	bdf0      	pop	{r4, r5, r6, r7, pc}
    1c44:	4669      	mov	r1, sp
    1c46:	2000      	movs	r0, #0
    1c48:	f7ff fffe 	bl	1b8e <_mr_smsGetNum>
    1c4c:	1c43      	adds	r3, r0, #1
    1c4e:	d103      	bne.n	1c58 <_mr_newSIMInd+0x78>
    1c50:	1c20      	adds	r0, r4, #0
    1c52:	e7f5      	b.n	1c40 <_mr_newSIMInd+0x60>
    1c54:	1c20      	adds	r0, r4, #0
    1c56:	e7f3      	b.n	1c40 <_mr_newSIMInd+0x60>
    1c58:	1c31      	adds	r1, r6, #0
    1c5a:	4668      	mov	r0, sp
    1c5c:	f7ff fffe 	bl	1aaa <_mr_smsReplyServer>
    1c60:	2000      	movs	r0, #0
    1c62:	e7ed      	b.n	1c40 <_mr_newSIMInd+0x60>
	...
    1c6c:	00000714 	.word	0x00000714
    1c70:	206d756e 	.word	0x206d756e
    1c74:	206f6f74 	.word	0x206f6f74
    1c78:	676e6f6c 	.word	0x676e6f6c
    1c7c:	00000000 	.word	0x00000000
    1c80:	38383135 	.word	0x38383135
    1c84:	35303936 	.word	0x35303936
    1c88:	00000038 	.word	0x00000038
    1c8c:	38383139 	.word	0x38383139
    1c90:	35303936 	.word	0x35303936
    1c94:	00000038 	.word	0x00000038
    1c98:	00006161 	.word	0x00006161
    1c9c:	fffffea4 	.word	0xfffffea4

00001ca0 <mr_newSIMInd>:
    1ca0:	e79e      	b.n	1be0 <_mr_newSIMInd>

00001ca2 <_mr_TestCom>:
    1ca2:	b5f8      	push	{r3, r4, r5, r6, r7, lr}
    1ca4:	45d5      	cmp	sp, sl
    1ca6:	d201      	bcs.n	1cac <_mr_TestCom+0xa>
    1ca8:	f7ff fffe 	bl	0 <__rt_stkovf_split_small>
    1cac:	1c14      	adds	r4, r2, #0
    1cae:	2500      	movs	r5, #0
    1cb0:	4ee7      	ldr	r6, [pc, #924]	; (2050 <_mr_smsUpdateURL+0x54>)
    1cb2:	23ff      	movs	r3, #255	; 0xff
    1cb4:	3331      	adds	r3, #49	; 0x31
    1cb6:	4299      	cmp	r1, r3
    1cb8:	68b0      	ldr	r0, [r6, #8]
    1cba:	d066      	beq.n	1d8a <_mr_TestCom+0xe8>
    1cbc:	dc3b      	bgt.n	1d36 <_mr_TestCom+0x94>
    1cbe:	2964      	cmp	r1, #100	; 0x64
    1cc0:	d064      	beq.n	1d8c <_mr_TestCom+0xea>
    1cc2:	dc11      	bgt.n	1ce8 <_mr_TestCom+0x46>
    1cc4:	290a      	cmp	r1, #10
    1cc6:	d204      	bcs.n	1cd2 <_mr_TestCom+0x30>
    1cc8:	a302      	add	r3, pc, #8	; (adr r3, 1cd4 <_mr_TestCom+0x32>)
    1cca:	185b      	adds	r3, r3, r1
    1ccc:	5a5b      	ldrh	r3, [r3, r1]
    1cce:	005b      	lsls	r3, r3, #1
    1cd0:	449f      	add	pc, r3
    1cd2:	e059      	b.n	1d88 <_mr_TestCom+0xe6>
    1cd4:	008a010c 	.word	0x008a010c
    1cd8:	00920090 	.word	0x00920090
    1cdc:	00960094 	.word	0x00960094
    1ce0:	009a0098 	.word	0x009a0098
    1ce4:	009d010c 	.word	0x009d010c
    1ce8:	0622      	lsls	r2, r4, #24
    1cea:	23ff      	movs	r3, #255	; 0xff
    1cec:	332d      	adds	r3, #45	; 0x2d
    1cee:	1612      	asrs	r2, r2, #24
    1cf0:	4299      	cmp	r1, r3
    1cf2:	d066      	beq.n	1dc2 <_mr_TestCom+0x120>
    1cf4:	dc11      	bgt.n	1d1a <_mr_TestCom+0x78>
    1cf6:	2965      	cmp	r1, #101	; 0x65
    1cf8:	d064      	beq.n	1dc4 <_mr_TestCom+0x122>
    1cfa:	2966      	cmp	r1, #102	; 0x66
    1cfc:	d063      	beq.n	1dc6 <_mr_TestCom+0x124>
    1cfe:	29c8      	cmp	r1, #200	; 0xc8
    1d00:	d142      	bne.n	1d88 <_mr_TestCom+0xe6>
    1d02:	6870      	ldr	r0, [r6, #4]
    1d04:	2801      	cmp	r0, #1
    1d06:	d13f      	bne.n	1d88 <_mr_TestCom+0xe6>
    1d08:	2301      	movs	r3, #1
    1d0a:	56f0      	ldrsb	r0, [r6, r3]
    1d0c:	2800      	cmp	r0, #0
    1d0e:	d03b      	beq.n	1d88 <_mr_TestCom+0xe6>
    1d10:	1c20      	adds	r0, r4, #0
    1d12:	f7ff fffe 	bl	0 <mr_startShake>
    1d16:	1c05      	adds	r5, r0, #0
    1d18:	e036      	b.n	1d88 <_mr_TestCom+0xe6>
    1d1a:	23ff      	movs	r3, #255	; 0xff
    1d1c:	332e      	adds	r3, #46	; 0x2e
    1d1e:	4299      	cmp	r1, r3
    1d20:	d066      	beq.n	1df0 <_mr_TestCom+0x14e>
    1d22:	2204      	movs	r2, #4
    1d24:	3301      	adds	r3, #1
    1d26:	4299      	cmp	r1, r3
    1d28:	d063      	beq.n	1df2 <_mr_TestCom+0x150>
    1d2a:	3301      	adds	r3, #1
    1d2c:	4299      	cmp	r1, r3
    1d2e:	d12b      	bne.n	1d88 <_mr_TestCom+0xe6>
    1d30:	4390      	bics	r0, r2
    1d32:	60b0      	str	r0, [r6, #8]
    1d34:	e028      	b.n	1d88 <_mr_TestCom+0xe6>
    1d36:	23ff      	movs	r3, #255	; 0xff
    1d38:	3398      	adds	r3, #152	; 0x98
    1d3a:	2201      	movs	r2, #1
    1d3c:	2700      	movs	r7, #0
    1d3e:	4299      	cmp	r1, r3
    1d40:	d064      	beq.n	1e0c <_mr_TestCom+0x16a>
    1d42:	dc24      	bgt.n	1d8e <_mr_TestCom+0xec>
    1d44:	3b06      	subs	r3, #6
    1d46:	4299      	cmp	r1, r3
    1d48:	d064      	beq.n	1e14 <_mr_TestCom+0x172>
    1d4a:	dc11      	bgt.n	1d70 <_mr_TestCom+0xce>
    1d4c:	23ff      	movs	r3, #255	; 0xff
    1d4e:	3332      	adds	r3, #50	; 0x32
    1d50:	4299      	cmp	r1, r3
    1d52:	d064      	beq.n	1e1e <_mr_TestCom+0x17c>
    1d54:	3301      	adds	r3, #1
    1d56:	4299      	cmp	r1, r3
    1d58:	d064      	beq.n	1e24 <_mr_TestCom+0x182>
    1d5a:	3301      	adds	r3, #1
    1d5c:	4299      	cmp	r1, r3
    1d5e:	d064      	beq.n	1e2a <_mr_TestCom+0x188>
    1d60:	23ff      	movs	r3, #255	; 0xff
    1d62:	3391      	adds	r3, #145	; 0x91
    1d64:	4299      	cmp	r1, r3
    1d66:	d10f      	bne.n	1d88 <_mr_TestCom+0xe6>
    1d68:	1c20      	adds	r0, r4, #0
    1d6a:	f7ff fffe 	bl	0 <mr_sleep>
    1d6e:	e00b      	b.n	1d88 <_mr_TestCom+0xe6>
    1d70:	23ff      	movs	r3, #255	; 0xff
    1d72:	3395      	adds	r3, #149	; 0x95
    1d74:	4299      	cmp	r1, r3
    1d76:	d066      	beq.n	1e46 <_mr_TestCom+0x1a4>
    1d78:	3301      	adds	r3, #1
    1d7a:	4299      	cmp	r1, r3
    1d7c:	d064      	beq.n	1e48 <_mr_TestCom+0x1a6>
    1d7e:	3301      	adds	r3, #1
    1d80:	4299      	cmp	r1, r3
    1d82:	d101      	bne.n	1d88 <_mr_TestCom+0xe6>
    1d84:	6c35      	ldr	r5, [r6, #64]	; 0x40
    1d86:	6434      	str	r4, [r6, #64]	; 0x40
    1d88:	e04e      	b.n	1e28 <_mr_TestCom+0x186>
    1d8a:	e054      	b.n	1e36 <_mr_TestCom+0x194>
    1d8c:	e043      	b.n	1e16 <_mr_TestCom+0x174>
    1d8e:	23ff      	movs	r3, #255	; 0xff
    1d90:	33f9      	adds	r3, #249	; 0xf9
    1d92:	4299      	cmp	r1, r3
    1d94:	d063      	beq.n	1e5e <_mr_TestCom+0x1bc>
    1d96:	dc17      	bgt.n	1dc8 <_mr_TestCom+0x126>
    1d98:	23ff      	movs	r3, #255	; 0xff
    1d9a:	3399      	adds	r3, #153	; 0x99
    1d9c:	4299      	cmp	r1, r3
    1d9e:	d066      	beq.n	1e6e <_mr_TestCom+0x1cc>
    1da0:	23ff      	movs	r3, #255	; 0xff
    1da2:	33f5      	adds	r3, #245	; 0xf5
    1da4:	4299      	cmp	r1, r3
    1da6:	d063      	beq.n	1e70 <_mr_TestCom+0x1ce>
    1da8:	3303      	adds	r3, #3
    1daa:	4299      	cmp	r1, r3
    1dac:	d13c      	bne.n	1e28 <_mr_TestCom+0x186>
    1dae:	ab00      	add	r3, sp, #0
    1db0:	701f      	strb	r7, [r3, #0]
    1db2:	2201      	movs	r2, #1
    1db4:	2005      	movs	r0, #5
    1db6:	4669      	mov	r1, sp
    1db8:	f7ff fffe 	bl	1956 <_mr_smsGetBytes>
    1dbc:	ab00      	add	r3, sp, #0
    1dbe:	781d      	ldrb	r5, [r3, #0]
    1dc0:	e032      	b.n	1e28 <_mr_TestCom+0x186>
    1dc2:	e030      	b.n	1e26 <_mr_TestCom+0x184>
    1dc4:	e029      	b.n	1e1a <_mr_TestCom+0x178>
    1dc6:	e02b      	b.n	1e20 <_mr_TestCom+0x17e>
    1dc8:	4ba2      	ldr	r3, [pc, #648]	; (2054 <_mr_smsUpdateURL+0x58>)
    1dca:	2702      	movs	r7, #2
    1dcc:	4299      	cmp	r1, r3
    1dce:	d06c      	beq.n	1eaa <_mr_TestCom+0x208>
    1dd0:	4ba1      	ldr	r3, [pc, #644]	; (2058 <_mr_smsUpdateURL+0x5c>)
    1dd2:	4299      	cmp	r1, r3
    1dd4:	d06a      	beq.n	1eac <_mr_TestCom+0x20a>
    1dd6:	4ba1      	ldr	r3, [pc, #644]	; (205c <_mr_smsUpdateURL+0x60>)
    1dd8:	4299      	cmp	r1, r3
    1dda:	d125      	bne.n	1e28 <_mr_TestCom+0x186>
    1ddc:	49a0      	ldr	r1, [pc, #640]	; (2060 <_mr_smsUpdateURL+0x64>)
    1dde:	428c      	cmp	r4, r1
    1de0:	d122      	bne.n	1e28 <_mr_TestCom+0x186>
    1de2:	4338      	orrs	r0, r7
    1de4:	60b0      	str	r0, [r6, #8]
    1de6:	e01f      	b.n	1e28 <_mr_TestCom+0x186>
    1de8:	f7ff fffe 	bl	0 <mr_getTime>
    1dec:	1c05      	adds	r5, r0, #0
    1dee:	e01b      	b.n	1e28 <_mr_TestCom+0x186>
    1df0:	e01c      	b.n	1e2c <_mr_TestCom+0x18a>
    1df2:	e01d      	b.n	1e30 <_mr_TestCom+0x18e>
    1df4:	6234      	str	r4, [r6, #32]
    1df6:	e017      	b.n	1e28 <_mr_TestCom+0x186>
    1df8:	6274      	str	r4, [r6, #36]	; 0x24
    1dfa:	e015      	b.n	1e28 <_mr_TestCom+0x186>
    1dfc:	62b4      	str	r4, [r6, #40]	; 0x28
    1dfe:	e013      	b.n	1e28 <_mr_TestCom+0x186>
    1e00:	62f4      	str	r4, [r6, #44]	; 0x2c
    1e02:	e011      	b.n	1e28 <_mr_TestCom+0x186>
    1e04:	6334      	str	r4, [r6, #48]	; 0x30
    1e06:	e00f      	b.n	1e28 <_mr_TestCom+0x186>
    1e08:	1c20      	adds	r0, r4, #0
    1e0a:	bdf8      	pop	{r3, r4, r5, r6, r7, pc}
    1e0c:	e035      	b.n	1e7a <_mr_TestCom+0x1d8>
    1e0e:	4895      	ldr	r0, [pc, #596]	; (2064 <_mr_smsUpdateURL+0x68>)
    1e10:	60c4      	str	r4, [r0, #12]
    1e12:	e009      	b.n	1e28 <_mr_TestCom+0x186>
    1e14:	e020      	b.n	1e58 <_mr_TestCom+0x1b6>
    1e16:	6e35      	ldr	r5, [r6, #96]	; 0x60
    1e18:	e006      	b.n	1e28 <_mr_TestCom+0x186>
    1e1a:	6e75      	ldr	r5, [r6, #100]	; 0x64
    1e1c:	e004      	b.n	1e28 <_mr_TestCom+0x186>
    1e1e:	e00e      	b.n	1e3e <_mr_TestCom+0x19c>
    1e20:	6ff5      	ldr	r5, [r6, #124]	; 0x7c
    1e22:	e001      	b.n	1e28 <_mr_TestCom+0x186>
    1e24:	e011      	b.n	1e4a <_mr_TestCom+0x1a8>
    1e26:	7032      	strb	r2, [r6, #0]
    1e28:	e060      	b.n	1eec <_mr_TestCom+0x24a>
    1e2a:	e013      	b.n	1e54 <_mr_TestCom+0x1b2>
    1e2c:	7072      	strb	r2, [r6, #1]
    1e2e:	e05d      	b.n	1eec <_mr_TestCom+0x24a>
    1e30:	4310      	orrs	r0, r2
    1e32:	60b0      	str	r0, [r6, #8]
    1e34:	e05a      	b.n	1eec <_mr_TestCom+0x24a>
    1e36:	2108      	movs	r1, #8
    1e38:	4308      	orrs	r0, r1
    1e3a:	60b0      	str	r0, [r6, #8]
    1e3c:	e056      	b.n	1eec <_mr_TestCom+0x24a>
    1e3e:	2108      	movs	r1, #8
    1e40:	4388      	bics	r0, r1
    1e42:	60b0      	str	r0, [r6, #8]
    1e44:	e052      	b.n	1eec <_mr_TestCom+0x24a>
    1e46:	e00b      	b.n	1e60 <_mr_TestCom+0x1be>
    1e48:	e013      	b.n	1e72 <_mr_TestCom+0x1d0>
    1e4a:	70b2      	strb	r2, [r6, #2]
    1e4c:	4880      	ldr	r0, [pc, #512]	; (2050 <_mr_smsUpdateURL+0x54>)
    1e4e:	3080      	adds	r0, #128	; 0x80
    1e50:	6004      	str	r4, [r0, #0]
    1e52:	e04b      	b.n	1eec <_mr_TestCom+0x24a>
    1e54:	70b7      	strb	r7, [r6, #2]
    1e56:	e049      	b.n	1eec <_mr_TestCom+0x24a>
    1e58:	6bf5      	ldr	r5, [r6, #60]	; 0x3c
    1e5a:	63f4      	str	r4, [r6, #60]	; 0x3c
    1e5c:	e046      	b.n	1eec <_mr_TestCom+0x24a>
    1e5e:	e035      	b.n	1ecc <_mr_TestCom+0x22a>
    1e60:	2100      	movs	r1, #0
    1e62:	0420      	lsls	r0, r4, #16
    1e64:	1400      	asrs	r0, r0, #16
    1e66:	f7ff fffe 	bl	1ca0 <mr_newSIMInd>
    1e6a:	1c05      	adds	r5, r0, #0
    1e6c:	e03e      	b.n	1eec <_mr_TestCom+0x24a>
    1e6e:	e00a      	b.n	1e86 <_mr_TestCom+0x1e4>
    1e70:	e028      	b.n	1ec4 <_mr_TestCom+0x222>
    1e72:	f7ff fffe 	bl	0 <mr_closeNetwork>
    1e76:	1c05      	adds	r5, r0, #0
    1e78:	e038      	b.n	1eec <_mr_TestCom+0x24a>
    1e7a:	6134      	str	r4, [r6, #16]
    1e7c:	1c21      	adds	r1, r4, #0
    1e7e:	487a      	ldr	r0, [pc, #488]	; (2068 <_mr_smsUpdateURL+0x6c>)
    1e80:	f7ff fffe 	bl	0 <mr_plat>
    1e84:	e032      	b.n	1eec <_mr_TestCom+0x24a>
    1e86:	4f79      	ldr	r7, [pc, #484]	; (206c <_mr_smsUpdateURL+0x70>)
    1e88:	6ab8      	ldr	r0, [r7, #40]	; 0x28
    1e8a:	2800      	cmp	r0, #0
    1e8c:	d112      	bne.n	1eb4 <_mr_TestCom+0x212>
    1e8e:	1c20      	adds	r0, r4, #0
    1e90:	f7ff fffe 	bl	84 <mr_malloc>
    1e94:	62f8      	str	r0, [r7, #44]	; 0x2c
    1e96:	2800      	cmp	r0, #0
    1e98:	d009      	beq.n	1eae <_mr_TestCom+0x20c>
    1e9a:	6a79      	ldr	r1, [r7, #36]	; 0x24
    1e9c:	6bb0      	ldr	r0, [r6, #56]	; 0x38
    1e9e:	f7ff fffe 	bl	138 <mr_free>
    1ea2:	6af8      	ldr	r0, [r7, #44]	; 0x2c
    1ea4:	63b0      	str	r0, [r6, #56]	; 0x38
    1ea6:	627c      	str	r4, [r7, #36]	; 0x24
    1ea8:	e020      	b.n	1eec <_mr_TestCom+0x24a>
    1eaa:	e01a      	b.n	1ee2 <_mr_TestCom+0x240>
    1eac:	e013      	b.n	1ed6 <_mr_TestCom+0x234>
    1eae:	2500      	movs	r5, #0
    1eb0:	43ed      	mvns	r5, r5
    1eb2:	e01b      	b.n	1eec <_mr_TestCom+0x24a>
    1eb4:	2801      	cmp	r0, #1
    1eb6:	d119      	bne.n	1eec <_mr_TestCom+0x24a>
    1eb8:	6a78      	ldr	r0, [r7, #36]	; 0x24
    1eba:	42a0      	cmp	r0, r4
    1ebc:	d216      	bcs.n	1eec <_mr_TestCom+0x24a>
    1ebe:	2500      	movs	r5, #0
    1ec0:	43ed      	mvns	r5, r5
    1ec2:	e013      	b.n	1eec <_mr_TestCom+0x24a>
    1ec4:	f7ff fffe 	bl	1a08 <_mr_load_sms_cfg>
    1ec8:	1c05      	adds	r5, r0, #0
    1eca:	e00f      	b.n	1eec <_mr_TestCom+0x24a>
    1ecc:	1c20      	adds	r0, r4, #0
    1ece:	f7ff fffe 	bl	18ec <_mr_save_sms_cfg>
    1ed2:	1c05      	adds	r5, r0, #0
    1ed4:	e00a      	b.n	1eec <_mr_TestCom+0x24a>
    1ed6:	4966      	ldr	r1, [pc, #408]	; (2070 <_mr_smsUpdateURL+0x74>)
    1ed8:	428c      	cmp	r4, r1
    1eda:	d107      	bne.n	1eec <_mr_TestCom+0x24a>
    1edc:	4310      	orrs	r0, r2
    1ede:	60b0      	str	r0, [r6, #8]
    1ee0:	e004      	b.n	1eec <_mr_TestCom+0x24a>
    1ee2:	4964      	ldr	r1, [pc, #400]	; (2074 <_mr_smsUpdateURL+0x78>)
    1ee4:	428c      	cmp	r4, r1
    1ee6:	d101      	bne.n	1eec <_mr_TestCom+0x24a>
    1ee8:	43b8      	bics	r0, r7
    1eea:	60b0      	str	r0, [r6, #8]
    1eec:	1c28      	adds	r0, r5, #0
    1eee:	e78c      	b.n	1e0a <_mr_TestCom+0x168>

00001ef0 <_mr_c_function_new>:
    1ef0:	b570      	push	{r4, r5, r6, lr}
    1ef2:	45d5      	cmp	sp, sl
    1ef4:	d201      	bcs.n	1efa <_mr_c_function_new+0xa>
    1ef6:	f7ff fffe 	bl	0 <__rt_stkovf_split_small>
    1efa:	1c06      	adds	r6, r0, #0
    1efc:	1c0c      	adds	r4, r1, #0
    1efe:	4d54      	ldr	r5, [pc, #336]	; (2050 <_mr_smsUpdateURL+0x54>)
    1f00:	3580      	adds	r5, #128	; 0x80
    1f02:	68e8      	ldr	r0, [r5, #12]
    1f04:	2800      	cmp	r0, #0
    1f06:	d002      	beq.n	1f0e <_mr_c_function_new+0x1e>
    1f08:	6929      	ldr	r1, [r5, #16]
    1f0a:	f7ff fffe 	bl	138 <mr_free>
    1f0e:	1c20      	adds	r0, r4, #0
    1f10:	f7ff fffe 	bl	84 <mr_malloc>
    1f14:	60e8      	str	r0, [r5, #12]
    1f16:	2800      	cmp	r0, #0
    1f18:	d104      	bne.n	1f24 <_mr_c_function_new+0x34>
    1f1a:	494d      	ldr	r1, [pc, #308]	; (2050 <_mr_smsUpdateURL+0x54>)
    1f1c:	2005      	movs	r0, #5
    1f1e:	6048      	str	r0, [r1, #4]
    1f20:	3806      	subs	r0, #6
    1f22:	bd70      	pop	{r4, r5, r6, pc}
    1f24:	612c      	str	r4, [r5, #16]
    1f26:	1c21      	adds	r1, r4, #0
    1f28:	f7ff fffe 	bl	0 <__rt_memclr>
    1f2c:	60ae      	str	r6, [r5, #8]
    1f2e:	6968      	ldr	r0, [r5, #20]
    1f30:	2800      	cmp	r0, #0
    1f32:	d002      	beq.n	1f3a <_mr_c_function_new+0x4a>
    1f34:	68e9      	ldr	r1, [r5, #12]
    1f36:	6041      	str	r1, [r0, #4]
    1f38:	e003      	b.n	1f42 <_mr_c_function_new+0x52>
    1f3a:	6869      	ldr	r1, [r5, #4]
    1f3c:	68e8      	ldr	r0, [r5, #12]
    1f3e:	3940      	subs	r1, #64	; 0x40
    1f40:	63c8      	str	r0, [r1, #60]	; 0x3c
    1f42:	2000      	movs	r0, #0
    1f44:	bd70      	pop	{r4, r5, r6, pc}

00001f46 <_mr_smsDsmSave>:
    1f46:	b530      	push	{r4, r5, lr}
    1f48:	b09f      	sub	sp, #124	; 0x7c
    1f4a:	45d5      	cmp	sp, sl
    1f4c:	d201      	bcs.n	1f52 <_mr_smsDsmSave+0xc>
    1f4e:	f7ff fffe 	bl	0 <__rt_stkovf_split_small>
    1f52:	1c05      	adds	r5, r0, #0
    1f54:	1c0c      	adds	r4, r1, #0
    1f56:	2080      	movs	r0, #128	; 0x80
    1f58:	ab00      	add	r3, sp, #0
    1f5a:	7018      	strb	r0, [r3, #0]
    1f5c:	a046      	add	r0, pc, #280	; (adr r0, 2078 <_mr_smsUpdateURL+0x7c>)
    1f5e:	f7ff fffe 	bl	0 <mr_printf>
    1f62:	2178      	movs	r1, #120	; 0x78
    1f64:	a801      	add	r0, sp, #4
    1f66:	f7ff fffe 	bl	0 <__rt_memclr_w>
    1f6a:	1c22      	adds	r2, r4, #0
    1f6c:	1c29      	adds	r1, r5, #0
    1f6e:	a801      	add	r0, sp, #4
    1f70:	f7ff fffe 	bl	0 <__rt_memcpy>
    1f74:	ab00      	add	r3, sp, #0
    1f76:	799c      	ldrb	r4, [r3, #6]
    1f78:	2c1f      	cmp	r4, #31
    1f7a:	dd03      	ble.n	1f84 <_mr_smsDsmSave+0x3e>
    1f7c:	2000      	movs	r0, #0
    1f7e:	43c0      	mvns	r0, r0
    1f80:	b01f      	add	sp, #124	; 0x7c
    1f82:	bd30      	pop	{r4, r5, pc}
    1f84:	2201      	movs	r2, #1
    1f86:	2004      	movs	r0, #4
    1f88:	4669      	mov	r1, sp
    1f8a:	f7ff fffe 	bl	1988 <_mr_smsSetBytes>
    1f8e:	2201      	movs	r2, #1
    1f90:	1c20      	adds	r0, r4, #0
    1f92:	3020      	adds	r0, #32
    1f94:	4669      	mov	r1, sp
    1f96:	f7ff fffe 	bl	1988 <_mr_smsSetBytes>
    1f9a:	2078      	movs	r0, #120	; 0x78
    1f9c:	4360      	muls	r0, r4
    1f9e:	a901      	add	r1, sp, #4
    1fa0:	30ff      	adds	r0, #255	; 0xff
    1fa2:	30e1      	adds	r0, #225	; 0xe1
    1fa4:	2278      	movs	r2, #120	; 0x78
    1fa6:	f7ff fffe 	bl	1988 <_mr_smsSetBytes>
    1faa:	2000      	movs	r0, #0
    1fac:	e7e8      	b.n	1f80 <_mr_smsDsmSave+0x3a>

00001fae <_mr_getChunk>:
    1fae:	b530      	push	{r4, r5, lr}
    1fb0:	680c      	ldr	r4, [r1, #0]
    1fb2:	6805      	ldr	r5, [r0, #0]
    1fb4:	2c01      	cmp	r4, #1
    1fb6:	dc04      	bgt.n	1fc2 <_mr_getChunk+0x14>
    1fb8:	6015      	str	r5, [r2, #0]
    1fba:	6808      	ldr	r0, [r1, #0]
    1fbc:	6018      	str	r0, [r3, #0]
    1fbe:	2001      	movs	r0, #1
    1fc0:	bd30      	pop	{r4, r5, pc}
    1fc2:	782c      	ldrb	r4, [r5, #0]
    1fc4:	601c      	str	r4, [r3, #0]
    1fc6:	680d      	ldr	r5, [r1, #0]
    1fc8:	42ac      	cmp	r4, r5
    1fca:	da01      	bge.n	1fd0 <_mr_getChunk+0x22>
    1fcc:	2c00      	cmp	r4, #0
    1fce:	dc06      	bgt.n	1fde <_mr_getChunk+0x30>
    1fd0:	6800      	ldr	r0, [r0, #0]
    1fd2:	6010      	str	r0, [r2, #0]
    1fd4:	6808      	ldr	r0, [r1, #0]
    1fd6:	6018      	str	r0, [r3, #0]
    1fd8:	2000      	movs	r0, #0
    1fda:	43c0      	mvns	r0, r0
    1fdc:	bd30      	pop	{r4, r5, pc}
    1fde:	6804      	ldr	r4, [r0, #0]
    1fe0:	3401      	adds	r4, #1
    1fe2:	6014      	str	r4, [r2, #0]
    1fe4:	6802      	ldr	r2, [r0, #0]
    1fe6:	681c      	ldr	r4, [r3, #0]
    1fe8:	1912      	adds	r2, r2, r4
    1fea:	3201      	adds	r2, #1
    1fec:	6002      	str	r2, [r0, #0]
    1fee:	6808      	ldr	r0, [r1, #0]
    1ff0:	681a      	ldr	r2, [r3, #0]
    1ff2:	1a80      	subs	r0, r0, r2
    1ff4:	3801      	subs	r0, #1
    1ff6:	6008      	str	r0, [r1, #0]
    1ff8:	2000      	movs	r0, #0
    1ffa:	bd30      	pop	{r4, r5, pc}

00001ffc <_mr_smsUpdateURL>:
    1ffc:	b530      	push	{r4, r5, lr}
    1ffe:	b09f      	sub	sp, #124	; 0x7c
    2000:	45d5      	cmp	sp, sl
    2002:	d201      	bcs.n	2008 <_mr_smsUpdateURL+0xc>
    2004:	f7ff fffe 	bl	0 <__rt_stkovf_split_small>
    2008:	1c05      	adds	r5, r0, #0
    200a:	1c0c      	adds	r4, r1, #0
    200c:	2080      	movs	r0, #128	; 0x80
    200e:	ab18      	add	r3, sp, #96	; 0x60
    2010:	7618      	strb	r0, [r3, #24]
    2012:	2c57      	cmp	r4, #87	; 0x57
    2014:	d906      	bls.n	2024 <_mr_smsUpdateURL+0x28>
    2016:	a01c      	add	r0, pc, #112	; (adr r0, 2088 <_mr_smsUpdateURL+0x8c>)
    2018:	f7ff fffe 	bl	0 <mr_printf>
    201c:	2000      	movs	r0, #0
    201e:	43c0      	mvns	r0, r0
    2020:	b01f      	add	sp, #124	; 0x7c
    2022:	bd30      	pop	{r4, r5, pc}
    2024:	2201      	movs	r2, #1
    2026:	2006      	movs	r0, #6
    2028:	a91e      	add	r1, sp, #120	; 0x78
    202a:	f7ff fffe 	bl	1988 <_mr_smsSetBytes>
    202e:	2178      	movs	r1, #120	; 0x78
    2030:	4668      	mov	r0, sp
    2032:	f7ff fffe 	bl	0 <__rt_memclr_w>
    2036:	1c21      	adds	r1, r4, #0
    2038:	1c28      	adds	r0, r5, #0
    203a:	466a      	mov	r2, sp
    203c:	f7ff fffe 	bl	0 <_mr_encode>
    2040:	2278      	movs	r2, #120	; 0x78
    2042:	20ff      	movs	r0, #255	; 0xff
    2044:	3069      	adds	r0, #105	; 0x69
    2046:	4669      	mov	r1, sp
    2048:	f7ff fffe 	bl	1988 <_mr_smsSetBytes>
    204c:	2000      	movs	r0, #0
    204e:	e7e7      	b.n	2020 <_mr_smsUpdateURL+0x24>
    2050:	00000000 	.word	0x00000000
    2054:	00000cb3 	.word	0x00000cb3
    2058:	00000e2d 	.word	0x00000e2d
    205c:	00000f51 	.word	0x00000f51
    2060:	00018030 	.word	0x00018030
    2064:	000017f4 	.word	0x000017f4
    2068:	000004b2 	.word	0x000004b2
    206c:	0000034c 	.word	0x0000034c
    2070:	00000b61 	.word	0x00000b61
    2074:	0009e67a 	.word	0x0009e67a
    2078:	5f726d5f 	.word	0x5f726d5f
    207c:	44736d73 	.word	0x44736d73
    2080:	61536d73 	.word	0x61536d73
    2084:	00006576 	.word	0x00006576
    2088:	206c7275 	.word	0x206c7275
    208c:	206f6f74 	.word	0x206f6f74
    2090:	676e6f6c 	.word	0x676e6f6c
    2094:	00000000 	.word	0x00000000

00002098 <_mr_smsDelNum>:
    2098:	b510      	push	{r4, lr}
    209a:	b088      	sub	sp, #32
    209c:	45d5      	cmp	sp, sl
    209e:	d201      	bcs.n	20a4 <_mr_smsDelNum+0xc>
    20a0:	f7ff fffe 	bl	0 <__rt_stkovf_split_small>
    20a4:	1c04      	adds	r4, r0, #0
    20a6:	2120      	movs	r1, #32
    20a8:	4668      	mov	r0, sp
    20aa:	f7ff fffe 	bl	0 <__rt_memclr_w>
    20ae:	0160      	lsls	r0, r4, #5
    20b0:	3078      	adds	r0, #120	; 0x78
    20b2:	2220      	movs	r2, #32
    20b4:	4669      	mov	r1, sp
    20b6:	f7ff fffe 	bl	1988 <_mr_smsSetBytes>
    20ba:	2000      	movs	r0, #0
    20bc:	b008      	add	sp, #32
    20be:	bd10      	pop	{r4, pc}

000020c0 <_mr_u2c_c>:
    20c0:	b5ff      	push	{r0, r1, r2, r3, r4, r5, r6, r7, lr}
    20c2:	b081      	sub	sp, #4
    20c4:	45d5      	cmp	sp, sl
    20c6:	d201      	bcs.n	20cc <_mr_u2c_c+0xc>
    20c8:	f7ff fffe 	bl	0 <__rt_stkovf_split_small>
    20cc:	1c06      	adds	r6, r0, #0
    20ce:	1c1f      	adds	r7, r3, #0
    20d0:	2500      	movs	r5, #0
    20d2:	2400      	movs	r4, #0
    20d4:	1c39      	adds	r1, r7, #0
    20d6:	9803      	ldr	r0, [sp, #12]
    20d8:	f7ff fffe 	bl	0 <__rt_memclr>
    20dc:	9a02      	ldr	r2, [sp, #8]
    20de:	3a01      	subs	r2, #1
    20e0:	e005      	b.n	20ee <_mr_u2c_c+0x2e>
    20e2:	2800      	cmp	r0, #0
    20e4:	d10c      	bne.n	2100 <_mr_u2c_c+0x40>
    20e6:	9803      	ldr	r0, [sp, #12]
    20e8:	5541      	strb	r1, [r0, r5]
    20ea:	3501      	adds	r5, #1
    20ec:	3402      	adds	r4, #2
    20ee:	4294      	cmp	r4, r2
    20f0:	da06      	bge.n	2100 <_mr_u2c_c+0x40>
    20f2:	5d30      	ldrb	r0, [r6, r4]
    20f4:	1931      	adds	r1, r6, r4
    20f6:	7849      	ldrb	r1, [r1, #1]
    20f8:	1843      	adds	r3, r0, r1
    20fa:	d001      	beq.n	2100 <_mr_u2c_c+0x40>
    20fc:	42bd      	cmp	r5, r7
    20fe:	dbf0      	blt.n	20e2 <_mr_u2c_c+0x22>
    2100:	1c28      	adds	r0, r5, #0
    2102:	b005      	add	sp, #20
    2104:	bdf0      	pop	{r4, r5, r6, r7, pc}

00002106 <_mr_memfind_c>:
    2106:	b5ff      	push	{r0, r1, r2, r3, r4, r5, r6, r7, lr}
    2108:	b081      	sub	sp, #4
    210a:	45d5      	cmp	sp, sl
    210c:	d201      	bcs.n	2112 <_mr_memfind_c+0xc>
    210e:	f7ff fffe 	bl	0 <__rt_stkovf_split_small>
    2112:	1c06      	adds	r6, r0, #0
    2114:	2b00      	cmp	r3, #0
    2116:	d102      	bne.n	211e <_mr_memfind_c+0x18>
    2118:	1c30      	adds	r0, r6, #0
    211a:	b005      	add	sp, #20
    211c:	bdf0      	pop	{r4, r5, r6, r7, pc}
    211e:	428b      	cmp	r3, r1
    2120:	d901      	bls.n	2126 <_mr_memfind_c+0x20>
    2122:	2000      	movs	r0, #0
    2124:	e7f9      	b.n	211a <_mr_memfind_c+0x14>
    2126:	1e5f      	subs	r7, r3, #1
    2128:	1bcc      	subs	r4, r1, r7
    212a:	9903      	ldr	r1, [sp, #12]
    212c:	3101      	adds	r1, #1
    212e:	9100      	str	r1, [sp, #0]
    2130:	e00c      	b.n	214c <_mr_memfind_c+0x46>
    2132:	1c45      	adds	r5, r0, #1
    2134:	1c3a      	adds	r2, r7, #0
    2136:	1c28      	adds	r0, r5, #0
    2138:	9900      	ldr	r1, [sp, #0]
    213a:	f7ff fffe 	bl	0 <memcmp>
    213e:	2800      	cmp	r0, #0
    2140:	d101      	bne.n	2146 <_mr_memfind_c+0x40>
    2142:	1e68      	subs	r0, r5, #1
    2144:	e7e9      	b.n	211a <_mr_memfind_c+0x14>
    2146:	1ba8      	subs	r0, r5, r6
    2148:	1a24      	subs	r4, r4, r0
    214a:	1c2e      	adds	r6, r5, #0
    214c:	2c00      	cmp	r4, #0
    214e:	d007      	beq.n	2160 <_mr_memfind_c+0x5a>
    2150:	9803      	ldr	r0, [sp, #12]
    2152:	1c22      	adds	r2, r4, #0
    2154:	7801      	ldrb	r1, [r0, #0]
    2156:	1c30      	adds	r0, r6, #0
    2158:	f7ff fffe 	bl	0 <memchr>
    215c:	2800      	cmp	r0, #0
    215e:	d1e8      	bne.n	2132 <_mr_memfind_c+0x2c>
    2160:	2000      	movs	r0, #0
    2162:	e7da      	b.n	211a <_mr_memfind_c+0x14>

00002164 <_mr_TestComC>:
    2164:	b5f0      	push	{r4, r5, r6, r7, lr}
    2166:	b085      	sub	sp, #20
    2168:	45d5      	cmp	sp, sl
    216a:	d201      	bcs.n	2170 <_mr_TestComC+0xc>
    216c:	f7ff fffe 	bl	0 <__rt_stkovf_split_small>
    2170:	1c06      	adds	r6, r0, #0
    2172:	1c10      	adds	r0, r2, #0
    2174:	1c0f      	adds	r7, r1, #0
    2176:	1c1c      	adds	r4, r3, #0
    2178:	2500      	movs	r5, #0
    217a:	1c31      	adds	r1, r6, #0
    217c:	2319      	movs	r3, #25
    217e:	015b      	lsls	r3, r3, #5
    2180:	4299      	cmp	r1, r3
    2182:	4ee7      	ldr	r6, [pc, #924]	; (2520 <_mr_TestCom1+0x102>)
    2184:	d012      	beq.n	21ac <_mr_TestComC+0x48>
    2186:	3301      	adds	r3, #1
    2188:	4299      	cmp	r1, r3
    218a:	d10c      	bne.n	21a6 <_mr_TestComC+0x42>
    218c:	2100      	movs	r1, #0
    218e:	9103      	str	r1, [sp, #12]
    2190:	9104      	str	r1, [sp, #16]
    2192:	aa04      	add	r2, sp, #16
    2194:	9201      	str	r2, [sp, #4]
    2196:	a903      	add	r1, sp, #12
    2198:	9100      	str	r1, [sp, #0]
    219a:	1c03      	adds	r3, r0, #0
    219c:	1c3a      	adds	r2, r7, #0
    219e:	1c21      	adds	r1, r4, #0
    21a0:	68f0      	ldr	r0, [r6, #12]
    21a2:	68b4      	ldr	r4, [r6, #8]
    21a4:	47a0      	blx	r4
    21a6:	1c28      	adds	r0, r5, #0
    21a8:	b005      	add	sp, #20
    21aa:	bdf0      	pop	{r4, r5, r6, r7, pc}
    21ac:	1c38      	adds	r0, r7, #0
    21ae:	3008      	adds	r0, #8
    21b0:	6070      	str	r0, [r6, #4]
    21b2:	48dc      	ldr	r0, [pc, #880]	; (2524 <_mr_TestCom1+0x106>)
    21b4:	6038      	str	r0, [r7, #0]
    21b6:	2100      	movs	r1, #0
    21b8:	2000      	movs	r0, #0
    21ba:	f7ff fffe 	bl	0 <mr_cacheSync>
    21be:	6871      	ldr	r1, [r6, #4]
    21c0:	1c20      	adds	r0, r4, #0
    21c2:	4788      	blx	r1
    21c4:	e7ef      	b.n	21a6 <_mr_TestComC+0x42>

000021c6 <_mr_smsIndiaction>:
    21c6:	b5f0      	push	{r4, r5, r6, r7, lr}
    21c8:	b0bb      	sub	sp, #236	; 0xec
    21ca:	45d5      	cmp	sp, sl
    21cc:	d201      	bcs.n	21d2 <_mr_smsIndiaction+0xc>
    21ce:	f7ff fffe 	bl	0 <__rt_stkovf_split_small>
    21d2:	1c04      	adds	r4, r0, #0
    21d4:	1c0d      	adds	r5, r1, #0
    21d6:	1c17      	adds	r7, r2, #0
    21d8:	1c1e      	adds	r6, r3, #0
    21da:	49d1      	ldr	r1, [pc, #836]	; (2520 <_mr_TestCom1+0x102>)
    21dc:	3980      	subs	r1, #128	; 0x80
    21de:	6848      	ldr	r0, [r1, #4]
    21e0:	2801      	cmp	r0, #1
    21e2:	d004      	beq.n	21ee <_mr_smsIndiaction+0x28>
    21e4:	6909      	ldr	r1, [r1, #16]
    21e6:	2900      	cmp	r1, #0
    21e8:	d00e      	beq.n	2208 <_mr_smsIndiaction+0x42>
    21ea:	2802      	cmp	r0, #2
    21ec:	d10c      	bne.n	2208 <_mr_smsIndiaction+0x42>
    21ee:	49cc      	ldr	r1, [pc, #816]	; (2520 <_mr_TestCom1+0x102>)
    21f0:	2007      	movs	r0, #7
    21f2:	31f8      	adds	r1, #248	; 0xf8
    21f4:	6008      	str	r0, [r1, #0]
    21f6:	604c      	str	r4, [r1, #4]
    21f8:	608f      	str	r7, [r1, #8]
    21fa:	60ce      	str	r6, [r1, #12]
    21fc:	610d      	str	r5, [r1, #16]
    21fe:	2301      	movs	r3, #1
    2200:	2214      	movs	r2, #20
    2202:	48c9      	ldr	r0, [pc, #804]	; (2528 <_mr_TestCom1+0x10a>)
    2204:	f7ff fffe 	bl	2164 <_mr_TestComC>
    2208:	2d0c      	cmp	r5, #12
    220a:	db01      	blt.n	2210 <_mr_smsIndiaction+0x4a>
    220c:	2da0      	cmp	r5, #160	; 0xa0
    220e:	dd02      	ble.n	2216 <_mr_smsIndiaction+0x50>
    2210:	2001      	movs	r0, #1
    2212:	b03b      	add	sp, #236	; 0xec
    2214:	bdf0      	pop	{r4, r5, r6, r7, pc}
    2216:	21a0      	movs	r1, #160	; 0xa0
    2218:	a813      	add	r0, sp, #76	; 0x4c
    221a:	f7ff fffe 	bl	0 <__rt_memclr_w>
    221e:	2e00      	cmp	r6, #0
    2220:	d021      	beq.n	2266 <_mr_smsIndiaction+0xa0>
    2222:	2e01      	cmp	r6, #1
    2224:	d156      	bne.n	22d4 <_mr_smsIndiaction+0x10e>
    2226:	2308      	movs	r3, #8
    2228:	1c29      	adds	r1, r5, #0
    222a:	1c20      	adds	r0, r4, #0
    222c:	a2bf      	add	r2, pc, #764	; (adr r2, 252c <_mr_TestCom1+0x10e>)
    222e:	f7ff fffe 	bl	2106 <_mr_memfind_c>
    2232:	1c06      	adds	r6, r0, #0
    2234:	d04c      	beq.n	22d0 <_mr_smsIndiaction+0x10a>
    2236:	1b30      	subs	r0, r6, r4
    2238:	1a29      	subs	r1, r5, r0
    223a:	2304      	movs	r3, #4
    223c:	1c30      	adds	r0, r6, #0
    223e:	a2be      	add	r2, pc, #760	; (adr r2, 2538 <_mr_TestCom1+0x11a>)
    2240:	f7ff fffe 	bl	2106 <_mr_memfind_c>
    2244:	2800      	cmp	r0, #0
    2246:	d041      	beq.n	22cc <_mr_smsIndiaction+0x106>
    2248:	1b81      	subs	r1, r0, r6
    224a:	3908      	subs	r1, #8
    224c:	1c30      	adds	r0, r6, #0
    224e:	2346      	movs	r3, #70	; 0x46
    2250:	3008      	adds	r0, #8
    2252:	aa01      	add	r2, sp, #4
    2254:	f7ff fffe 	bl	20c0 <_mr_u2c_c>
    2258:	1c01      	adds	r1, r0, #0
    225a:	aa13      	add	r2, sp, #76	; 0x4c
    225c:	a801      	add	r0, sp, #4
    225e:	f7ff fffe 	bl	0 <_mr_decode>
    2262:	1c04      	adds	r4, r0, #0
    2264:	e02a      	b.n	22bc <_mr_smsIndiaction+0xf6>
    2266:	7820      	ldrb	r0, [r4, #0]
    2268:	284d      	cmp	r0, #77	; 0x4d
    226a:	d10f      	bne.n	228c <_mr_smsIndiaction+0xc6>
    226c:	7860      	ldrb	r0, [r4, #1]
    226e:	2852      	cmp	r0, #82	; 0x52
    2270:	d10c      	bne.n	228c <_mr_smsIndiaction+0xc6>
    2272:	78a0      	ldrb	r0, [r4, #2]
    2274:	2850      	cmp	r0, #80	; 0x50
    2276:	d109      	bne.n	228c <_mr_smsIndiaction+0xc6>
    2278:	78e0      	ldrb	r0, [r4, #3]
    227a:	2847      	cmp	r0, #71	; 0x47
    227c:	d106      	bne.n	228c <_mr_smsIndiaction+0xc6>
    227e:	1f29      	subs	r1, r5, #4
    2280:	1d20      	adds	r0, r4, #4
    2282:	aa13      	add	r2, sp, #76	; 0x4c
    2284:	f7ff fffe 	bl	0 <_mr_decode>
    2288:	1c04      	adds	r4, r0, #0
    228a:	e017      	b.n	22bc <_mr_smsIndiaction+0xf6>
    228c:	2304      	movs	r3, #4
    228e:	1c29      	adds	r1, r5, #0
    2290:	1c20      	adds	r0, r4, #0
    2292:	a2ab      	add	r2, pc, #684	; (adr r2, 2540 <_mr_TestCom1+0x122>)
    2294:	f7ff fffe 	bl	2106 <_mr_memfind_c>
    2298:	1c06      	adds	r6, r0, #0
    229a:	d015      	beq.n	22c8 <_mr_smsIndiaction+0x102>
    229c:	1b30      	subs	r0, r6, r4
    229e:	1a29      	subs	r1, r5, r0
    22a0:	2302      	movs	r3, #2
    22a2:	1c30      	adds	r0, r6, #0
    22a4:	a2a8      	add	r2, pc, #672	; (adr r2, 2548 <_mr_TestCom1+0x12a>)
    22a6:	f7ff fffe 	bl	2106 <_mr_memfind_c>
    22aa:	2800      	cmp	r0, #0
    22ac:	d00a      	beq.n	22c4 <_mr_smsIndiaction+0xfe>
    22ae:	1b81      	subs	r1, r0, r6
    22b0:	3904      	subs	r1, #4
    22b2:	1d30      	adds	r0, r6, #4
    22b4:	aa13      	add	r2, sp, #76	; 0x4c
    22b6:	f7ff fffe 	bl	0 <_mr_decode>
    22ba:	1c04      	adds	r4, r0, #0
    22bc:	2c00      	cmp	r4, #0
    22be:	da0b      	bge.n	22d8 <_mr_smsIndiaction+0x112>
    22c0:	2001      	movs	r0, #1
    22c2:	e7a6      	b.n	2212 <_mr_smsIndiaction+0x4c>
    22c4:	2001      	movs	r0, #1
    22c6:	e7a4      	b.n	2212 <_mr_smsIndiaction+0x4c>
    22c8:	2001      	movs	r0, #1
    22ca:	e7a2      	b.n	2212 <_mr_smsIndiaction+0x4c>
    22cc:	2001      	movs	r0, #1
    22ce:	e7a0      	b.n	2212 <_mr_smsIndiaction+0x4c>
    22d0:	2001      	movs	r0, #1
    22d2:	e79e      	b.n	2212 <_mr_smsIndiaction+0x4c>
    22d4:	2001      	movs	r0, #1
    22d6:	e79c      	b.n	2212 <_mr_smsIndiaction+0x4c>
    22d8:	a09c      	add	r0, pc, #624	; (adr r0, 254c <_mr_TestCom1+0x12e>)
    22da:	f7ff fffe 	bl	0 <mr_printf>
    22de:	f7ff fffe 	bl	1a08 <_mr_load_sms_cfg>
    22e2:	1c05      	adds	r5, r0, #0
    22e4:	ab10      	add	r3, sp, #64	; 0x40
    22e6:	7b18      	ldrb	r0, [r3, #12]
    22e8:	28fc      	cmp	r0, #252	; 0xfc
    22ea:	d161      	bne.n	23b0 <_mr_smsIndiaction+0x1ea>
    22ec:	7b58      	ldrb	r0, [r3, #13]
    22ee:	28fc      	cmp	r0, #252	; 0xfc
    22f0:	d15e      	bne.n	23b0 <_mr_smsIndiaction+0x1ea>
    22f2:	a813      	add	r0, sp, #76	; 0x4c
    22f4:	3002      	adds	r0, #2
    22f6:	9012      	str	r0, [sp, #72]	; 0x48
    22f8:	3c02      	subs	r4, #2
    22fa:	9411      	str	r4, [sp, #68]	; 0x44
    22fc:	ab0f      	add	r3, sp, #60	; 0x3c
    22fe:	aa10      	add	r2, sp, #64	; 0x40
    2300:	a911      	add	r1, sp, #68	; 0x44
    2302:	a812      	add	r0, sp, #72	; 0x48
    2304:	f7ff fffe 	bl	1fae <_mr_getChunk>
    2308:	2400      	movs	r4, #0
    230a:	43e4      	mvns	r4, r4
    230c:	e04d      	b.n	23aa <_mr_smsIndiaction+0x1e4>
    230e:	9e10      	ldr	r6, [sp, #64]	; 0x40
    2310:	7830      	ldrb	r0, [r6, #0]
    2312:	2806      	cmp	r0, #6
    2314:	d02f      	beq.n	2376 <_mr_smsIndiaction+0x1b0>
    2316:	dc08      	bgt.n	232a <_mr_smsIndiaction+0x164>
    2318:	2806      	cmp	r0, #6
    231a:	d23b      	bcs.n	2394 <_mr_smsIndiaction+0x1ce>
    231c:	a301      	add	r3, pc, #4	; (adr r3, 2324 <_mr_smsIndiaction+0x15e>)
    231e:	5c1b      	ldrb	r3, [r3, r0]
    2320:	005b      	lsls	r3, r3, #1
    2322:	449f      	add	pc, r3
    2324:	15110c37 	.word	0x15110c37
    2328:	221d      	.short	0x221d
    232a:	2807      	cmp	r0, #7
    232c:	d005      	beq.n	233a <_mr_smsIndiaction+0x174>
    232e:	2811      	cmp	r0, #17
    2330:	d003      	beq.n	233a <_mr_smsIndiaction+0x174>
    2332:	281b      	cmp	r0, #27
    2334:	d001      	beq.n	233a <_mr_smsIndiaction+0x174>
    2336:	2825      	cmp	r0, #37	; 0x25
    2338:	d12c      	bne.n	2394 <_mr_smsIndiaction+0x1ce>
    233a:	2000      	movs	r0, #0
    233c:	e023      	b.n	2386 <_mr_smsIndiaction+0x1c0>
    233e:	7870      	ldrb	r0, [r6, #1]
    2340:	1cb1      	adds	r1, r6, #2
    2342:	f7ff fffe 	bl	19bc <_mr_smsAddNum>
    2346:	e01e      	b.n	2386 <_mr_smsIndiaction+0x1c0>
    2348:	7870      	ldrb	r0, [r6, #1]
    234a:	f7ff fffe 	bl	2098 <_mr_smsDelNum>
    234e:	e01a      	b.n	2386 <_mr_smsIndiaction+0x1c0>
    2350:	980f      	ldr	r0, [sp, #60]	; 0x3c
    2352:	30ff      	adds	r0, #255	; 0xff
    2354:	0601      	lsls	r1, r0, #24
    2356:	0e09      	lsrs	r1, r1, #24
    2358:	1c70      	adds	r0, r6, #1
    235a:	f7ff fffe 	bl	1ffc <_mr_smsUpdateURL>
    235e:	e012      	b.n	2386 <_mr_smsIndiaction+0x1c0>
    2360:	2100      	movs	r1, #0
    2362:	1c38      	adds	r0, r7, #0
    2364:	f7ff fffe 	bl	1aaa <_mr_smsReplyServer>
    2368:	e00d      	b.n	2386 <_mr_smsIndiaction+0x1c0>
    236a:	2201      	movs	r2, #1
    236c:	18b1      	adds	r1, r6, r2
    236e:	2005      	movs	r0, #5
    2370:	f7ff fffe 	bl	1988 <_mr_smsSetBytes>
    2374:	e007      	b.n	2386 <_mr_smsIndiaction+0x1c0>
    2376:	7870      	ldrb	r0, [r6, #1]
    2378:	78b1      	ldrb	r1, [r6, #2]
    237a:	78f2      	ldrb	r2, [r6, #3]
    237c:	0200      	lsls	r0, r0, #8
    237e:	1840      	adds	r0, r0, r1
    2380:	1d31      	adds	r1, r6, #4
    2382:	f7ff fffe 	bl	1988 <_mr_smsSetBytes>
    2386:	2800      	cmp	r0, #0
    2388:	d009      	beq.n	239e <_mr_smsIndiaction+0x1d8>
    238a:	1c28      	adds	r0, r5, #0
    238c:	f7ff fffe 	bl	18ec <_mr_save_sms_cfg>
    2390:	1c20      	adds	r0, r4, #0
    2392:	e73e      	b.n	2212 <_mr_smsIndiaction+0x4c>
    2394:	1c28      	adds	r0, r5, #0
    2396:	f7ff fffe 	bl	18ec <_mr_save_sms_cfg>
    239a:	1c20      	adds	r0, r4, #0
    239c:	e739      	b.n	2212 <_mr_smsIndiaction+0x4c>
    239e:	ab0f      	add	r3, sp, #60	; 0x3c
    23a0:	aa10      	add	r2, sp, #64	; 0x40
    23a2:	a911      	add	r1, sp, #68	; 0x44
    23a4:	a812      	add	r0, sp, #72	; 0x48
    23a6:	f7ff fffe 	bl	1fae <_mr_getChunk>
    23aa:	2800      	cmp	r0, #0
    23ac:	d0af      	beq.n	230e <_mr_smsIndiaction+0x148>
    23ae:	e00a      	b.n	23c6 <_mr_smsIndiaction+0x200>
    23b0:	ab10      	add	r3, sp, #64	; 0x40
    23b2:	7b18      	ldrb	r0, [r3, #12]
    23b4:	28fa      	cmp	r0, #250	; 0xfa
    23b6:	d106      	bne.n	23c6 <_mr_smsIndiaction+0x200>
    23b8:	7b58      	ldrb	r0, [r3, #13]
    23ba:	28f2      	cmp	r0, #242	; 0xf2
    23bc:	d103      	bne.n	23c6 <_mr_smsIndiaction+0x200>
    23be:	1c21      	adds	r1, r4, #0
    23c0:	a813      	add	r0, sp, #76	; 0x4c
    23c2:	f7ff fffe 	bl	1f46 <_mr_smsDsmSave>
    23c6:	1c28      	adds	r0, r5, #0
    23c8:	f7ff fffe 	bl	18ec <_mr_save_sms_cfg>
    23cc:	2000      	movs	r0, #0
    23ce:	e720      	b.n	2212 <_mr_smsIndiaction+0x4c>

000023d0 <mr_smsIndiaction>:
    23d0:	b5b0      	push	{r4, r5, r7, lr}
    23d2:	45d5      	cmp	sp, sl
    23d4:	d201      	bcs.n	23da <mr_smsIndiaction+0xa>
    23d6:	f7ff fffe 	bl	0 <__rt_stkovf_split_small>
    23da:	4c51      	ldr	r4, [pc, #324]	; (2520 <_mr_TestCom1+0x102>)
    23dc:	2500      	movs	r5, #0
    23de:	3c80      	subs	r4, #128	; 0x80
    23e0:	70a5      	strb	r5, [r4, #2]
    23e2:	f7ff fffe 	bl	21c6 <_mr_smsIndiaction>
    23e6:	78a1      	ldrb	r1, [r4, #2]
    23e8:	2901      	cmp	r1, #1
    23ea:	d101      	bne.n	23f0 <mr_smsIndiaction+0x20>
    23ec:	484c      	ldr	r0, [pc, #304]	; (2520 <_mr_TestCom1+0x102>)
    23ee:	6800      	ldr	r0, [r0, #0]
    23f0:	bdb0      	pop	{r4, r5, r7, pc}

000023f2 <mr_strncpy>:
    23f2:	b580      	push	{r7, lr}
    23f4:	45d5      	cmp	sp, sl
    23f6:	d201      	bcs.n	23fc <mr_strncpy+0xa>
    23f8:	f7ff fffe 	bl	0 <__rt_stkovf_split_small>
    23fc:	2800      	cmp	r0, #0
    23fe:	d006      	beq.n	240e <mr_strncpy+0x1c>
    2400:	2900      	cmp	r1, #0
    2402:	d004      	beq.n	240e <mr_strncpy+0x1c>
    2404:	2a00      	cmp	r2, #0
    2406:	d002      	beq.n	240e <mr_strncpy+0x1c>
    2408:	f7ff fffe 	bl	0 <strncpy>
    240c:	bd80      	pop	{r7, pc}
    240e:	1c13      	adds	r3, r2, #0
    2410:	1c0a      	adds	r2, r1, #0
    2412:	1c01      	adds	r1, r0, #0
    2414:	a054      	add	r0, pc, #336	; (adr r0, 2568 <_mr_TestCom1+0x14a>)
    2416:	f7ff fffe 	bl	0 <mr_printf>
    241a:	2000      	movs	r0, #0
    241c:	bd80      	pop	{r7, pc}

0000241e <_mr_TestCom1>:
    241e:	b5fe      	push	{r1, r2, r3, r4, r5, r6, r7, lr}
    2420:	45d5      	cmp	sp, sl
    2422:	d201      	bcs.n	2428 <_mr_TestCom1+0xa>
    2424:	f7ff fffe 	bl	0 <__rt_stkovf_split_small>
    2428:	1c14      	adds	r4, r2, #0
    242a:	1c1e      	adds	r6, r3, #0
    242c:	2500      	movs	r5, #0
    242e:	1c08      	adds	r0, r1, #0
    2430:	2909      	cmp	r1, #9
    2432:	d067      	beq.n	2504 <_mr_TestCom1+0xe6>
    2434:	dc0b      	bgt.n	244e <_mr_TestCom1+0x30>
    2436:	4f3a      	ldr	r7, [pc, #232]	; (2520 <_mr_TestCom1+0x102>)
    2438:	3802      	subs	r0, #2
    243a:	3f80      	subs	r7, #128	; 0x80
    243c:	2805      	cmp	r0, #5
    243e:	d22e      	bcs.n	249e <_mr_TestCom1+0x80>
    2440:	a301      	add	r3, pc, #4	; (adr r3, 2448 <_mr_TestCom1+0x2a>)
    2442:	5c1b      	ldrb	r3, [r3, r0]
    2444:	005b      	lsls	r3, r3, #1
    2446:	449f      	add	pc, r3
    2448:	5e4f372c 	.word	0x5e4f372c
    244c:	0060      	.short	0x0060
    244e:	23af      	movs	r3, #175	; 0xaf
    2450:	009b      	lsls	r3, r3, #2
    2452:	4298      	cmp	r0, r3
    2454:	d062      	beq.n	251c <_mr_TestCom1+0xfe>
    2456:	dc0f      	bgt.n	2478 <_mr_TestCom1+0x5a>
    2458:	28c8      	cmp	r0, #200	; 0xc8
    245a:	d120      	bne.n	249e <_mr_TestCom1+0x80>
    245c:	2100      	movs	r1, #0
    245e:	2000      	movs	r0, #0
    2460:	f7ff fffe 	bl	0 <mr_updcrc>
    2464:	1c31      	adds	r1, r6, #0
    2466:	1c20      	adds	r0, r4, #0
    2468:	f7ff fffe 	bl	0 <mr_updcrc>
    246c:	2100      	movs	r1, #0
    246e:	1c20      	adds	r0, r4, #0
    2470:	f7ff fffe 	bl	0 <mr_updcrc>
    2474:	1c05      	adds	r5, r0, #0
    2476:	e012      	b.n	249e <_mr_TestCom1+0x80>
    2478:	4b2b      	ldr	r3, [pc, #172]	; (2528 <_mr_TestCom1+0x10a>)
    247a:	3b64      	subs	r3, #100	; 0x64
    247c:	4298      	cmp	r0, r3
    247e:	d04e      	beq.n	251e <_mr_TestCom1+0x100>
    2480:	23e1      	movs	r3, #225	; 0xe1
    2482:	009b      	lsls	r3, r3, #2
    2484:	4298      	cmp	r0, r3
    2486:	d10a      	bne.n	249e <_mr_TestCom1+0x80>
    2488:	2200      	movs	r2, #0
    248a:	9200      	str	r2, [sp, #0]
    248c:	9201      	str	r2, [sp, #4]
    248e:	4924      	ldr	r1, [pc, #144]	; (2520 <_mr_TestCom1+0x102>)
    2490:	2210      	movs	r2, #16
    2492:	2300      	movs	r3, #0
    2494:	31e8      	adds	r1, #232	; 0xe8
    2496:	4839      	ldr	r0, [pc, #228]	; (257c <_mr_TestCom1+0x15e>)
    2498:	f7ff fffe 	bl	0 <mr_platEx>
    249c:	1c05      	adds	r5, r0, #0
    249e:	1c28      	adds	r0, r5, #0
    24a0:	bdfe      	pop	{r1, r2, r3, r4, r5, r6, r7, pc}
    24a2:	69b8      	ldr	r0, [r7, #24]
    24a4:	2800      	cmp	r0, #0
    24a6:	d004      	beq.n	24b2 <_mr_TestCom1+0x94>
    24a8:	6cf9      	ldr	r1, [r7, #76]	; 0x4c
    24aa:	f7ff fffe 	bl	138 <mr_free>
    24ae:	2000      	movs	r0, #0
    24b0:	61b8      	str	r0, [r7, #24]
    24b2:	61bc      	str	r4, [r7, #24]
    24b4:	64fe      	str	r6, [r7, #76]	; 0x4c
    24b6:	e7f2      	b.n	249e <_mr_TestCom1+0x80>
    24b8:	4e31      	ldr	r6, [pc, #196]	; (2580 <_mr_TestCom1+0x162>)
    24ba:	2180      	movs	r1, #128	; 0x80
    24bc:	1c30      	adds	r0, r6, #0
    24be:	f7ff fffe 	bl	0 <__rt_memclr_w>
    24c2:	2c00      	cmp	r4, #0
    24c4:	d004      	beq.n	24d0 <_mr_TestCom1+0xb2>
    24c6:	227f      	movs	r2, #127	; 0x7f
    24c8:	1c21      	adds	r1, r4, #0
    24ca:	1c30      	adds	r0, r6, #0
    24cc:	f7ff fffe 	bl	23f2 <mr_strncpy>
    24d0:	4c2b      	ldr	r4, [pc, #172]	; (2580 <_mr_TestCom1+0x162>)
    24d2:	2180      	movs	r1, #128	; 0x80
    24d4:	3480      	adds	r4, #128	; 0x80
    24d6:	1c20      	adds	r0, r4, #0
    24d8:	f7ff fffe 	bl	0 <__rt_memclr_w>
    24dc:	227f      	movs	r2, #127	; 0x7f
    24de:	1c20      	adds	r0, r4, #0
    24e0:	a128      	add	r1, pc, #160	; (adr r1, 2584 <_mr_TestCom1+0x166>)
    24e2:	f7ff fffe 	bl	23f2 <mr_strncpy>
    24e6:	e7da      	b.n	249e <_mr_TestCom1+0x80>
    24e8:	4e25      	ldr	r6, [pc, #148]	; (2580 <_mr_TestCom1+0x162>)
    24ea:	2180      	movs	r1, #128	; 0x80
    24ec:	3e80      	subs	r6, #128	; 0x80
    24ee:	1c30      	adds	r0, r6, #0
    24f0:	f7ff fffe 	bl	0 <__rt_memclr_w>
    24f4:	2c00      	cmp	r4, #0
    24f6:	d0d2      	beq.n	249e <_mr_TestCom1+0x80>
    24f8:	227f      	movs	r2, #127	; 0x7f
    24fa:	1c21      	adds	r1, r4, #0
    24fc:	1c30      	adds	r0, r6, #0
    24fe:	f7ff fffe 	bl	23f2 <mr_strncpy>
    2502:	e7cc      	b.n	249e <_mr_TestCom1+0x80>
    2504:	e004      	b.n	2510 <_mr_TestCom1+0xf2>
    2506:	617c      	str	r4, [r7, #20]
    2508:	e7c9      	b.n	249e <_mr_TestCom1+0x80>
    250a:	2000      	movs	r0, #0
    250c:	6178      	str	r0, [r7, #20]
    250e:	e7c6      	b.n	249e <_mr_TestCom1+0x80>
    2510:	2100      	movs	r1, #0
    2512:	2000      	movs	r0, #0
    2514:	f7ff fffe 	bl	0 <mr_cacheSync>
    2518:	2000      	movs	r0, #0
    251a:	e7c1      	b.n	24a0 <_mr_TestCom1+0x82>
    251c:	e038      	b.n	2590 <_mr_TestCom1+0x172>
    251e:	e03e      	b.n	259e <_mr_TestCom1+0x180>
    2520:	00000080 	.word	0x00000080
    2524:	00000004 	.word	0x00000004
    2528:	00000321 	.word	0x00000321
    252c:	23007e00 	.word	0x23007e00
    2530:	7e005e00 	.word	0x7e005e00
    2534:	00000000 	.word	0x00000000
    2538:	5e002600 	.word	0x5e002600
    253c:	00000000 	.word	0x00000000
    2540:	7e5e237e 	.word	0x7e5e237e
    2544:	00000000 	.word	0x00000000
    2548:	00005e26 	.word	0x00005e26
    254c:	735f726d 	.word	0x735f726d
    2550:	6e49736d 	.word	0x6e49736d
    2554:	63616964 	.word	0x63616964
    2558:	6e6f6974 	.word	0x6e6f6974
    255c:	65686320 	.word	0x65686320
    2560:	6f206b63 	.word	0x6f206b63
    2564:	0000216b 	.word	0x0000216b
    2568:	735f726d 	.word	0x735f726d
    256c:	636e7274 	.word	0x636e7274
    2570:	25207970 	.word	0x25207970
    2574:	78252c78 	.word	0x78252c78
    2578:	0078252c 	.word	0x0078252c
    257c:	00030d41 	.word	0x00030d41
    2580:	00000594 	.word	0x00000594
    2584:	72617473 	.word	0x72617473
    2588:	726d2e74 	.word	0x726d2e74
    258c:	00000000 	.word	0x00000000
    2590:	1c21      	adds	r1, r4, #0
    2592:	0430      	lsls	r0, r6, #16
    2594:	1400      	asrs	r0, r0, #16
    2596:	f7ff fffe 	bl	1ca0 <mr_newSIMInd>
    259a:	1c05      	adds	r5, r0, #0
    259c:	e77f      	b.n	249e <_mr_TestCom1+0x80>
    259e:	1c62      	adds	r2, r4, #1
    25a0:	2002      	movs	r0, #2
    25a2:	5903      	ldr	r3, [r0, r4]
    25a4:	1c31      	adds	r1, r6, #0
    25a6:	1c20      	adds	r0, r4, #0
    25a8:	f7ff fffe 	bl	23d0 <mr_smsIndiaction>
    25ac:	1c05      	adds	r5, r0, #0
    25ae:	e776      	b.n	249e <_mr_TestCom1+0x80>

000025b0 <mrc_GetMrpInfoClose>:
    25b0:	b580      	push	{r7, lr}
    25b2:	45d5      	cmp	sp, sl
    25b4:	d201      	bcs.n	25ba <mrc_GetMrpInfoClose+0xa>
    25b6:	f7ff fffe 	bl	0 <__rt_stkovf_split_small>
    25ba:	2900      	cmp	r1, #0
    25bc:	d101      	bne.n	25c2 <mrc_GetMrpInfoClose+0x12>
    25be:	43c8      	mvns	r0, r1
    25c0:	bd80      	pop	{r7, pc}
    25c2:	2800      	cmp	r0, #0
    25c4:	d001      	beq.n	25ca <mrc_GetMrpInfoClose+0x1a>
    25c6:	2000      	movs	r0, #0
    25c8:	bd80      	pop	{r7, pc}
    25ca:	1c08      	adds	r0, r1, #0
    25cc:	f7ff fffe 	bl	0 <mr_close>
    25d0:	bd80      	pop	{r7, pc}

000025d2 <mrc_GetMrpInfoOpen>:
    25d2:	b580      	push	{r7, lr}
    25d4:	45d5      	cmp	sp, sl
    25d6:	d201      	bcs.n	25dc <mrc_GetMrpInfoOpen+0xa>
    25d8:	f7ff fffe 	bl	0 <__rt_stkovf_split_small>
    25dc:	2900      	cmp	r1, #0
    25de:	d001      	beq.n	25e4 <mrc_GetMrpInfoOpen+0x12>
    25e0:	2800      	cmp	r0, #0
    25e2:	d101      	bne.n	25e8 <mrc_GetMrpInfoOpen+0x16>
    25e4:	2000      	movs	r0, #0
    25e6:	bd80      	pop	{r7, pc}
    25e8:	7802      	ldrb	r2, [r0, #0]
    25ea:	2301      	movs	r3, #1
    25ec:	2a2a      	cmp	r2, #42	; 0x2a
    25ee:	d108      	bne.n	2602 <mrc_GetMrpInfoOpen+0x30>
    25f0:	600b      	str	r3, [r1, #0]
    25f2:	7840      	ldrb	r0, [r0, #1]
    25f4:	49e9      	ldr	r1, [pc, #932]	; (299c <_mr_getMetaMemLimit+0x3c>)
    25f6:	0080      	lsls	r0, r0, #2
    25f8:	1840      	adds	r0, r0, r1
    25fa:	38ff      	subs	r0, #255	; 0xff
    25fc:	3841      	subs	r0, #65	; 0x41
    25fe:	6bc0      	ldr	r0, [r0, #60]	; 0x3c
    2600:	bd80      	pop	{r7, pc}
    2602:	2a24      	cmp	r2, #36	; 0x24
    2604:	d104      	bne.n	2610 <mrc_GetMrpInfoOpen+0x3e>
    2606:	600b      	str	r3, [r1, #0]
    2608:	48e4      	ldr	r0, [pc, #912]	; (299c <_mr_getMetaMemLimit+0x3c>)
    260a:	38a0      	subs	r0, #160	; 0xa0
    260c:	6980      	ldr	r0, [r0, #24]
    260e:	bd80      	pop	{r7, pc}
    2610:	2200      	movs	r2, #0
    2612:	600a      	str	r2, [r1, #0]
    2614:	2101      	movs	r1, #1
    2616:	f7ff fffe 	bl	0 <mr_open>
    261a:	bd80      	pop	{r7, pc}

0000261c <mrc_GetMrpInfoRead>:
    261c:	b5f8      	push	{r3, r4, r5, r6, r7, lr}
    261e:	45d5      	cmp	sp, sl
    2620:	d201      	bcs.n	2626 <mrc_GetMrpInfoRead+0xa>
    2622:	f7ff fffe 	bl	0 <__rt_stkovf_split_small>
    2626:	1c0e      	adds	r6, r1, #0
    2628:	1c11      	adds	r1, r2, #0
    262a:	9c06      	ldr	r4, [sp, #24]
    262c:	1c1d      	adds	r5, r3, #0
    262e:	2700      	movs	r7, #0
    2630:	43ff      	mvns	r7, r7
    2632:	2d00      	cmp	r5, #0
    2634:	d101      	bne.n	263a <mrc_GetMrpInfoRead+0x1e>
    2636:	1c38      	adds	r0, r7, #0
    2638:	bdf8      	pop	{r3, r4, r5, r6, r7, pc}
    263a:	2800      	cmp	r0, #0
    263c:	d006      	beq.n	264c <mrc_GetMrpInfoRead+0x30>
    263e:	1871      	adds	r1, r6, r1
    2640:	1c22      	adds	r2, r4, #0
    2642:	1c28      	adds	r0, r5, #0
    2644:	f7ff fffe 	bl	0 <__rt_memcpy>
    2648:	1c20      	adds	r0, r4, #0
    264a:	e7f5      	b.n	2638 <mrc_GetMrpInfoRead+0x1c>
    264c:	2200      	movs	r2, #0
    264e:	1c30      	adds	r0, r6, #0
    2650:	f7ff fffe 	bl	0 <mr_seek>
    2654:	2800      	cmp	r0, #0
    2656:	d001      	beq.n	265c <mrc_GetMrpInfoRead+0x40>
    2658:	1c38      	adds	r0, r7, #0
    265a:	e7ed      	b.n	2638 <mrc_GetMrpInfoRead+0x1c>
    265c:	1c22      	adds	r2, r4, #0
    265e:	1c29      	adds	r1, r5, #0
    2660:	1c30      	adds	r0, r6, #0
    2662:	f7ff fffe 	bl	0 <mr_read>
    2666:	42a0      	cmp	r0, r4
    2668:	d0e6      	beq.n	2638 <mrc_GetMrpInfoRead+0x1c>
    266a:	1c38      	adds	r0, r7, #0
    266c:	e7e4      	b.n	2638 <mrc_GetMrpInfoRead+0x1c>

0000266e <mrc_GetMrpInfoEx>:
    266e:	b5ff      	push	{r0, r1, r2, r3, r4, r5, r6, r7, lr}
    2670:	b085      	sub	sp, #20
    2672:	45d5      	cmp	sp, sl
    2674:	d201      	bcs.n	267a <mrc_GetMrpInfoEx+0xc>
    2676:	f7ff fffe 	bl	0 <__rt_stkovf_split_small>
    267a:	1c0f      	adds	r7, r1, #0
    267c:	9e0e      	ldr	r6, [sp, #56]	; 0x38
    267e:	1c1c      	adds	r4, r3, #0
    2680:	2500      	movs	r5, #0
    2682:	43ed      	mvns	r5, r5
    2684:	1c31      	adds	r1, r6, #0
    2686:	1c20      	adds	r0, r4, #0
    2688:	f7ff fffe 	bl	0 <__rt_memclr>
    268c:	9807      	ldr	r0, [sp, #28]
    268e:	2803      	cmp	r0, #3
    2690:	d04d      	beq.n	272e <mrc_GetMrpInfoEx+0xc0>
    2692:	2804      	cmp	r0, #4
    2694:	d06a      	beq.n	276c <mrc_GetMrpInfoEx+0xfe>
    2696:	2809      	cmp	r0, #9
    2698:	d148      	bne.n	272c <mrc_GetMrpInfoEx+0xbe>
    269a:	2e04      	cmp	r6, #4
    269c:	db46      	blt.n	272c <mrc_GetMrpInfoEx+0xbe>
    269e:	2202      	movs	r2, #2
    26a0:	9200      	str	r2, [sp, #0]
    26a2:	22e4      	movs	r2, #228	; 0xe4
    26a4:	1c39      	adds	r1, r7, #0
    26a6:	ab03      	add	r3, sp, #12
    26a8:	9805      	ldr	r0, [sp, #20]
    26aa:	f7ff fffe 	bl	261c <mrc_GetMrpInfoRead>
    26ae:	2202      	movs	r2, #2
    26b0:	9200      	str	r2, [sp, #0]
    26b2:	22e6      	movs	r2, #230	; 0xe6
    26b4:	1c39      	adds	r1, r7, #0
    26b6:	ab02      	add	r3, sp, #8
    26b8:	9805      	ldr	r0, [sp, #20]
    26ba:	f7ff fffe 	bl	261c <mrc_GetMrpInfoRead>
    26be:	1c05      	adds	r5, r0, #0
    26c0:	ab00      	add	r3, sp, #0
    26c2:	8999      	ldrh	r1, [r3, #12]
    26c4:	899b      	ldrh	r3, [r3, #12]
    26c6:	2000      	movs	r0, #0
    26c8:	0a0a      	lsrs	r2, r1, #8
    26ca:	21ff      	movs	r1, #255	; 0xff
    26cc:	0209      	lsls	r1, r1, #8
    26ce:	400a      	ands	r2, r1
    26d0:	400b      	ands	r3, r1
    26d2:	021b      	lsls	r3, r3, #8
    26d4:	4302      	orrs	r2, r0
    26d6:	431a      	orrs	r2, r3
    26d8:	ab00      	add	r3, sp, #0
    26da:	899b      	ldrh	r3, [r3, #12]
    26dc:	061b      	lsls	r3, r3, #24
    26de:	431a      	orrs	r2, r3
    26e0:	ab00      	add	r3, sp, #0
    26e2:	819a      	strh	r2, [r3, #12]
    26e4:	891a      	ldrh	r2, [r3, #8]
    26e6:	0a12      	lsrs	r2, r2, #8
    26e8:	400a      	ands	r2, r1
    26ea:	4310      	orrs	r0, r2
    26ec:	891a      	ldrh	r2, [r3, #8]
    26ee:	400a      	ands	r2, r1
    26f0:	0211      	lsls	r1, r2, #8
    26f2:	4308      	orrs	r0, r1
    26f4:	8919      	ldrh	r1, [r3, #8]
    26f6:	0609      	lsls	r1, r1, #24
    26f8:	4308      	orrs	r0, r1
    26fa:	8118      	strh	r0, [r3, #8]
    26fc:	2100      	movs	r1, #0
    26fe:	2000      	movs	r0, #0
    2700:	f7ff fffe 	bl	0 <mr_updcrc>
    2704:	2102      	movs	r1, #2
    2706:	a803      	add	r0, sp, #12
    2708:	f7ff fffe 	bl	0 <mr_updcrc>
    270c:	2102      	movs	r1, #2
    270e:	a803      	add	r0, sp, #12
    2710:	f7ff fffe 	bl	0 <mr_updcrc>
    2714:	2100      	movs	r1, #0
    2716:	a803      	add	r0, sp, #12
    2718:	f7ff fffe 	bl	0 <mr_updcrc>
    271c:	ab00      	add	r3, sp, #0
    271e:	8919      	ldrh	r1, [r3, #8]
    2720:	0600      	lsls	r0, r0, #24
    2722:	0e00      	lsrs	r0, r0, #24
    2724:	4288      	cmp	r0, r1
    2726:	d101      	bne.n	272c <mrc_GetMrpInfoEx+0xbe>
    2728:	8998      	ldrh	r0, [r3, #12]
    272a:	6020      	str	r0, [r4, #0]
    272c:	e03d      	b.n	27aa <mrc_GetMrpInfoEx+0x13c>
    272e:	2e04      	cmp	r6, #4
    2730:	db3b      	blt.n	27aa <mrc_GetMrpInfoEx+0x13c>
    2732:	2204      	movs	r2, #4
    2734:	9200      	str	r2, [sp, #0]
    2736:	22c0      	movs	r2, #192	; 0xc0
    2738:	1c23      	adds	r3, r4, #0
    273a:	1c39      	adds	r1, r7, #0
    273c:	9805      	ldr	r0, [sp, #20]
    273e:	f7ff fffe 	bl	261c <mrc_GetMrpInfoRead>
    2742:	1c05      	adds	r5, r0, #0
    2744:	6820      	ldr	r0, [r4, #0]
    2746:	23ff      	movs	r3, #255	; 0xff
    2748:	021b      	lsls	r3, r3, #8
    274a:	0a02      	lsrs	r2, r0, #8
    274c:	401a      	ands	r2, r3
    274e:	0e01      	lsrs	r1, r0, #24
    2750:	4311      	orrs	r1, r2
    2752:	1c02      	adds	r2, r0, #0
    2754:	401a      	ands	r2, r3
    2756:	0212      	lsls	r2, r2, #8
    2758:	4311      	orrs	r1, r2
    275a:	0600      	lsls	r0, r0, #24
    275c:	4308      	orrs	r0, r1
    275e:	9004      	str	r0, [sp, #16]
    2760:	2204      	movs	r2, #4
    2762:	1c20      	adds	r0, r4, #0
    2764:	a904      	add	r1, sp, #16
    2766:	f7ff fffe 	bl	0 <__rt_memcpy>
    276a:	e01e      	b.n	27aa <mrc_GetMrpInfoEx+0x13c>
    276c:	e7ff      	b.n	276e <mrc_GetMrpInfoEx+0x100>
    276e:	2e04      	cmp	r6, #4
    2770:	db1b      	blt.n	27aa <mrc_GetMrpInfoEx+0x13c>
    2772:	2204      	movs	r2, #4
    2774:	9200      	str	r2, [sp, #0]
    2776:	22c4      	movs	r2, #196	; 0xc4
    2778:	1c23      	adds	r3, r4, #0
    277a:	1c39      	adds	r1, r7, #0
    277c:	9805      	ldr	r0, [sp, #20]
    277e:	f7ff fffe 	bl	261c <mrc_GetMrpInfoRead>
    2782:	1c05      	adds	r5, r0, #0
    2784:	6820      	ldr	r0, [r4, #0]
    2786:	23ff      	movs	r3, #255	; 0xff
    2788:	021b      	lsls	r3, r3, #8
    278a:	0a02      	lsrs	r2, r0, #8
    278c:	401a      	ands	r2, r3
    278e:	0e01      	lsrs	r1, r0, #24
    2790:	4311      	orrs	r1, r2
    2792:	1c02      	adds	r2, r0, #0
    2794:	401a      	ands	r2, r3
    2796:	0212      	lsls	r2, r2, #8
    2798:	4311      	orrs	r1, r2
    279a:	0600      	lsls	r0, r0, #24
    279c:	4308      	orrs	r0, r1
    279e:	9004      	str	r0, [sp, #16]
    27a0:	2204      	movs	r2, #4
    27a2:	1c20      	adds	r0, r4, #0
    27a4:	a904      	add	r1, sp, #16
    27a6:	f7ff fffe 	bl	0 <__rt_memcpy>
    27aa:	1c28      	adds	r0, r5, #0
    27ac:	b009      	add	sp, #36	; 0x24
    27ae:	bdf0      	pop	{r4, r5, r6, r7, pc}

000027b0 <getAppInfo>:
    27b0:	b5bc      	push	{r2, r3, r4, r5, r7, lr}
    27b2:	45d5      	cmp	sp, sl
    27b4:	d201      	bcs.n	27ba <getAppInfo+0xa>
    27b6:	f7ff fffe 	bl	0 <__rt_stkovf_split_small>
    27ba:	2000      	movs	r0, #0
    27bc:	9001      	str	r0, [sp, #4]
    27be:	a901      	add	r1, sp, #4
    27c0:	4877      	ldr	r0, [pc, #476]	; (29a0 <_mr_getMetaMemLimit+0x40>)
    27c2:	f7ff fffe 	bl	25d2 <mrc_GetMrpInfoOpen>
    27c6:	1c04      	adds	r4, r0, #0
    27c8:	d101      	bne.n	27ce <getAppInfo+0x1e>
    27ca:	43c0      	mvns	r0, r0
    27cc:	bdbc      	pop	{r2, r3, r4, r5, r7, pc}
    27ce:	2204      	movs	r2, #4
    27d0:	4d74      	ldr	r5, [pc, #464]	; (29a4 <_mr_getMetaMemLimit+0x44>)
    27d2:	9200      	str	r2, [sp, #0]
    27d4:	2203      	movs	r2, #3
    27d6:	1c2b      	adds	r3, r5, #0
    27d8:	1c21      	adds	r1, r4, #0
    27da:	9801      	ldr	r0, [sp, #4]
    27dc:	f7ff fffe 	bl	266e <mrc_GetMrpInfoEx>
    27e0:	2204      	movs	r2, #4
    27e2:	18ab      	adds	r3, r5, r2
    27e4:	1c21      	adds	r1, r4, #0
    27e6:	9200      	str	r2, [sp, #0]
    27e8:	9801      	ldr	r0, [sp, #4]
    27ea:	f7ff fffe 	bl	266e <mrc_GetMrpInfoEx>
    27ee:	68e8      	ldr	r0, [r5, #12]
    27f0:	2800      	cmp	r0, #0
    27f2:	d108      	bne.n	2806 <getAppInfo+0x56>
    27f4:	2204      	movs	r2, #4
    27f6:	9200      	str	r2, [sp, #0]
    27f8:	1c2b      	adds	r3, r5, #0
    27fa:	330c      	adds	r3, #12
    27fc:	2209      	movs	r2, #9
    27fe:	1c21      	adds	r1, r4, #0
    2800:	9801      	ldr	r0, [sp, #4]
    2802:	f7ff fffe 	bl	266e <mrc_GetMrpInfoEx>
    2806:	2000      	movs	r0, #0
    2808:	60a8      	str	r0, [r5, #8]
    280a:	1c21      	adds	r1, r4, #0
    280c:	9801      	ldr	r0, [sp, #4]
    280e:	f7ff fffe 	bl	25b0 <mrc_GetMrpInfoClose>
    2812:	2000      	movs	r0, #0
    2814:	e7da      	b.n	27cc <getAppInfo+0x1c>

00002816 <mrp_version>:
    2816:	4864      	ldr	r0, [pc, #400]	; (29a8 <_mr_getMetaMemLimit+0x48>)
    2818:	4770      	bx	lr

0000281a <mr_doExt>:
    281a:	b5f8      	push	{r3, r4, r5, r6, r7, lr}
    281c:	45d5      	cmp	sp, sl
    281e:	d201      	bcs.n	2824 <mr_doExt+0xa>
    2820:	f7ff fffe 	bl	0 <__rt_stkovf_split_small>
    2824:	2200      	movs	r2, #0
    2826:	4669      	mov	r1, sp
    2828:	f7ff fffe 	bl	1320 <_mr_readFile>
    282c:	1c04      	adds	r4, r0, #0
    282e:	2500      	movs	r5, #0
    2830:	43ed      	mvns	r5, r5
    2832:	2c00      	cmp	r4, #0
    2834:	d105      	bne.n	2842 <mr_doExt+0x28>
    2836:	495d      	ldr	r1, [pc, #372]	; (29ac <_mr_getMetaMemLimit+0x4c>)
    2838:	a05d      	add	r0, pc, #372	; (adr r0, 29b0 <_mr_getMetaMemLimit+0x50>)
    283a:	f7ff fffe 	bl	0 <mr_printf>
    283e:	1c28      	adds	r0, r5, #0
    2840:	bdf8      	pop	{r3, r4, r5, r6, r7, pc}
    2842:	4a5d      	ldr	r2, [pc, #372]	; (29b8 <_mr_getMetaMemLimit+0x58>)
    2844:	495d      	ldr	r1, [pc, #372]	; (29bc <_mr_getMetaMemLimit+0x5c>)
    2846:	2000      	movs	r0, #0
    2848:	f7ff fffe 	bl	1ca2 <_mr_TestCom>
    284c:	2600      	movs	r6, #0
    284e:	1c33      	adds	r3, r6, #0
    2850:	1c21      	adds	r1, r4, #0
    2852:	2019      	movs	r0, #25
    2854:	0140      	lsls	r0, r0, #5
    2856:	9a00      	ldr	r2, [sp, #0]
    2858:	f7ff fffe 	bl	2164 <_mr_TestComC>
    285c:	2800      	cmp	r0, #0
    285e:	d113      	bne.n	2888 <mr_doExt+0x6e>
    2860:	2306      	movs	r3, #6
    2862:	1c21      	adds	r1, r4, #0
    2864:	4a50      	ldr	r2, [pc, #320]	; (29a8 <_mr_getMetaMemLimit+0x48>)
    2866:	4856      	ldr	r0, [pc, #344]	; (29c0 <_mr_getMetaMemLimit+0x60>)
    2868:	f7ff fffe 	bl	2164 <_mr_TestComC>
    286c:	2308      	movs	r3, #8
    286e:	2210      	movs	r2, #16
    2870:	494c      	ldr	r1, [pc, #304]	; (29a4 <_mr_getMetaMemLimit+0x44>)
    2872:	4853      	ldr	r0, [pc, #332]	; (29c0 <_mr_getMetaMemLimit+0x60>)
    2874:	f7ff fffe 	bl	2164 <_mr_TestComC>
    2878:	1c33      	adds	r3, r6, #0
    287a:	1c21      	adds	r1, r4, #0
    287c:	4a4a      	ldr	r2, [pc, #296]	; (29a8 <_mr_getMetaMemLimit+0x48>)
    287e:	4850      	ldr	r0, [pc, #320]	; (29c0 <_mr_getMetaMemLimit+0x60>)
    2880:	f7ff fffe 	bl	2164 <_mr_TestComC>
    2884:	2000      	movs	r0, #0
    2886:	e7db      	b.n	2840 <mr_doExt+0x26>
    2888:	4948      	ldr	r1, [pc, #288]	; (29ac <_mr_getMetaMemLimit+0x4c>)
    288a:	a049      	add	r0, pc, #292	; (adr r0, 29b0 <_mr_getMetaMemLimit+0x50>)
    288c:	3101      	adds	r1, #1
    288e:	f7ff fffe 	bl	0 <mr_printf>
    2892:	1c28      	adds	r0, r5, #0
    2894:	e7d4      	b.n	2840 <mr_doExt+0x26>

00002896 <mr_stop_ex>:
    2896:	b57c      	push	{r2, r3, r4, r5, r6, lr}
    2898:	45d5      	cmp	sp, sl
    289a:	d201      	bcs.n	28a0 <mr_stop_ex+0xa>
    289c:	f7ff fffe 	bl	0 <__rt_stkovf_split_small>
    28a0:	1c04      	adds	r4, r0, #0
    28a2:	4d3e      	ldr	r5, [pc, #248]	; (299c <_mr_getMetaMemLimit+0x3c>)
    28a4:	3da0      	subs	r5, #160	; 0xa0
    28a6:	6868      	ldr	r0, [r5, #4]
    28a8:	2800      	cmp	r0, #0
    28aa:	d101      	bne.n	28b0 <mr_stop_ex+0x1a>
    28ac:	2001      	movs	r0, #1
    28ae:	bd7c      	pop	{r2, r3, r4, r5, r6, pc}
    28b0:	2600      	movs	r6, #0
    28b2:	2801      	cmp	r0, #1
    28b4:	d001      	beq.n	28ba <mr_stop_ex+0x24>
    28b6:	2802      	cmp	r0, #2
    28b8:	d10a      	bne.n	28d0 <mr_stop_ex+0x3a>
    28ba:	4938      	ldr	r1, [pc, #224]	; (299c <_mr_getMetaMemLimit+0x3c>)
    28bc:	2008      	movs	r0, #8
    28be:	31d8      	adds	r1, #216	; 0xd8
    28c0:	6008      	str	r0, [r1, #0]
    28c2:	604e      	str	r6, [r1, #4]
    28c4:	608e      	str	r6, [r1, #8]
    28c6:	2301      	movs	r3, #1
    28c8:	2214      	movs	r2, #20
    28ca:	483d      	ldr	r0, [pc, #244]	; (29c0 <_mr_getMetaMemLimit+0x60>)
    28cc:	f7ff fffe 	bl	2164 <_mr_TestComC>
    28d0:	606e      	str	r6, [r5, #4]
    28d2:	60ee      	str	r6, [r5, #12]
    28d4:	612e      	str	r6, [r5, #16]
    28d6:	2c00      	cmp	r4, #0
    28d8:	d011      	beq.n	28fe <mr_stop_ex+0x68>
    28da:	4831      	ldr	r0, [pc, #196]	; (29a0 <_mr_getMetaMemLimit+0x40>)
    28dc:	38c8      	subs	r0, #200	; 0xc8
    28de:	6a81      	ldr	r1, [r0, #40]	; 0x28
    28e0:	2900      	cmp	r1, #0
    28e2:	d00b      	beq.n	28fc <mr_stop_ex+0x66>
    28e4:	2901      	cmp	r1, #1
    28e6:	d109      	bne.n	28fc <mr_stop_ex+0x66>
    28e8:	2200      	movs	r2, #0
    28ea:	9200      	str	r2, [sp, #0]
    28ec:	9201      	str	r2, [sp, #4]
    28ee:	6a42      	ldr	r2, [r0, #36]	; 0x24
    28f0:	4833      	ldr	r0, [pc, #204]	; (29c0 <_mr_getMetaMemLimit+0x60>)
    28f2:	1c33      	adds	r3, r6, #0
    28f4:	30c9      	adds	r0, #201	; 0xc9
    28f6:	6ba9      	ldr	r1, [r5, #56]	; 0x38
    28f8:	f7ff fffe 	bl	0 <mr_platEx>
    28fc:	63ae      	str	r6, [r5, #56]	; 0x38
    28fe:	2c00      	cmp	r4, #0
    2900:	d003      	beq.n	290a <mr_stop_ex+0x74>
    2902:	6f28      	ldr	r0, [r5, #112]	; 0x70
    2904:	6f69      	ldr	r1, [r5, #116]	; 0x74
    2906:	f7ff fffe 	bl	0 <mr_mem_free>
    290a:	2000      	movs	r0, #0
    290c:	e7cf      	b.n	28ae <mr_stop_ex+0x18>

0000290e <mr_stop>:
    290e:	b510      	push	{r4, lr}
    2910:	45d5      	cmp	sp, sl
    2912:	d201      	bcs.n	2918 <mr_stop+0xa>
    2914:	f7ff fffe 	bl	0 <__rt_stkovf_split_small>
    2918:	4c20      	ldr	r4, [pc, #128]	; (299c <_mr_getMetaMemLimit+0x3c>)
    291a:	3ca0      	subs	r4, #160	; 0xa0
    291c:	6aa0      	ldr	r0, [r4, #40]	; 0x28
    291e:	2800      	cmp	r0, #0
    2920:	d004      	beq.n	292c <mr_stop+0x1e>
    2922:	4780      	blx	r0
    2924:	2100      	movs	r1, #0
    2926:	62a1      	str	r1, [r4, #40]	; 0x28
    2928:	2801      	cmp	r0, #1
    292a:	d102      	bne.n	2932 <mr_stop+0x24>
    292c:	2001      	movs	r0, #1
    292e:	f7ff fffe 	bl	2896 <mr_stop_ex>
    2932:	bd10      	pop	{r4, pc}

00002934 <mr_ntohl>:
    2934:	7801      	ldrb	r1, [r0, #0]
    2936:	7842      	ldrb	r2, [r0, #1]
    2938:	0609      	lsls	r1, r1, #24
    293a:	0412      	lsls	r2, r2, #16
    293c:	4311      	orrs	r1, r2
    293e:	7882      	ldrb	r2, [r0, #2]
    2940:	78c0      	ldrb	r0, [r0, #3]
    2942:	0212      	lsls	r2, r2, #8
    2944:	4311      	orrs	r1, r2
    2946:	4308      	orrs	r0, r1
    2948:	4770      	bx	lr

0000294a <mr_ltoh>:
    294a:	78c1      	ldrb	r1, [r0, #3]
    294c:	7882      	ldrb	r2, [r0, #2]
    294e:	0609      	lsls	r1, r1, #24
    2950:	0412      	lsls	r2, r2, #16
    2952:	4311      	orrs	r1, r2
    2954:	7842      	ldrb	r2, [r0, #1]
    2956:	7800      	ldrb	r0, [r0, #0]
    2958:	0212      	lsls	r2, r2, #8
    295a:	4311      	orrs	r1, r2
    295c:	4308      	orrs	r0, r1
    295e:	4770      	bx	lr

00002960 <_mr_getMetaMemLimit>:
    2960:	b5f0      	push	{r4, r5, r6, r7, lr}
    2962:	b0a5      	sub	sp, #148	; 0x94
    2964:	45d5      	cmp	sp, sl
    2966:	d201      	bcs.n	296c <_mr_getMetaMemLimit+0xc>
    2968:	f7ff fffe 	bl	0 <__rt_stkovf_split_small>
    296c:	4e0c      	ldr	r6, [pc, #48]	; (29a0 <_mr_getMetaMemLimit+0x40>)
    296e:	7830      	ldrb	r0, [r6, #0]
    2970:	282a      	cmp	r0, #42	; 0x2a
    2972:	d001      	beq.n	2978 <_mr_getMetaMemLimit+0x18>
    2974:	2824      	cmp	r0, #36	; 0x24
    2976:	d171      	bne.n	2a5c <_mr_getMetaMemLimit+0xfc>
    2978:	4f08      	ldr	r7, [pc, #32]	; (299c <_mr_getMetaMemLimit+0x3c>)
    297a:	3fa0      	subs	r7, #160	; 0xa0
    297c:	282a      	cmp	r0, #42	; 0x2a
    297e:	d107      	bne.n	2990 <_mr_getMetaMemLimit+0x30>
    2980:	7870      	ldrb	r0, [r6, #1]
    2982:	4906      	ldr	r1, [pc, #24]	; (299c <_mr_getMetaMemLimit+0x3c>)
    2984:	0080      	lsls	r0, r0, #2
    2986:	1840      	adds	r0, r0, r1
    2988:	38ff      	subs	r0, #255	; 0xff
    298a:	3841      	subs	r0, #65	; 0x41
    298c:	6bc4      	ldr	r4, [r0, #60]	; 0x3c
    298e:	e000      	b.n	2992 <_mr_getMetaMemLimit+0x32>
    2990:	69bc      	ldr	r4, [r7, #24]
    2992:	2c00      	cmp	r4, #0
    2994:	d116      	bne.n	29c4 <_mr_getMetaMemLimit+0x64>
    2996:	2000      	movs	r0, #0
    2998:	b025      	add	sp, #148	; 0x94
    299a:	bdf0      	pop	{r4, r5, r6, r7, pc}
    299c:	000000a0 	.word	0x000000a0
    29a0:	00000414 	.word	0x00000414
    29a4:	000017f4 	.word	0x000017f4
    29a8:	000007db 	.word	0x000007db
    29ac:	00002af9 	.word	0x00002af9
    29b0:	3a727265 	.word	0x3a727265
    29b4:	00006425 	.word	0x00006425
    29b8:	00000b61 	.word	0x00000b61
    29bc:	00000e2d 	.word	0x00000e2d
    29c0:	00000321 	.word	0x00000321
    29c4:	1d21      	adds	r1, r4, #4
    29c6:	2204      	movs	r2, #4
    29c8:	4668      	mov	r0, sp
    29ca:	f7ff fffe 	bl	0 <__rt_memcpy>
    29ce:	4668      	mov	r0, sp
    29d0:	f7ff fffe 	bl	294a <mr_ltoh>
    29d4:	1c05      	adds	r5, r0, #0
    29d6:	7830      	ldrb	r0, [r6, #0]
    29d8:	2824      	cmp	r0, #36	; 0x24
    29da:	d101      	bne.n	29e0 <_mr_getMetaMemLimit+0x80>
    29dc:	6cfe      	ldr	r6, [r7, #76]	; 0x4c
    29de:	e009      	b.n	29f4 <_mr_getMetaMemLimit+0x94>
    29e0:	1c21      	adds	r1, r4, #0
    29e2:	3108      	adds	r1, #8
    29e4:	2204      	movs	r2, #4
    29e6:	4668      	mov	r0, sp
    29e8:	f7ff fffe 	bl	0 <__rt_memcpy>
    29ec:	4668      	mov	r0, sp
    29ee:	f7ff fffe 	bl	294a <mr_ltoh>
    29f2:	1c06      	adds	r6, r0, #0
    29f4:	1c28      	adds	r0, r5, #0
    29f6:	3008      	adds	r0, #8
    29f8:	1d07      	adds	r7, r0, #4
    29fa:	42b7      	cmp	r7, r6
    29fc:	d204      	bcs.n	2a08 <_mr_getMetaMemLimit+0xa8>
    29fe:	2d01      	cmp	r5, #1
    2a00:	db02      	blt.n	2a08 <_mr_getMetaMemLimit+0xa8>
    2a02:	49ef      	ldr	r1, [pc, #956]	; (2dc0 <mr_start_dsm_ex+0x4e>)
    2a04:	428d      	cmp	r5, r1
    2a06:	db01      	blt.n	2a0c <_mr_getMetaMemLimit+0xac>
    2a08:	2000      	movs	r0, #0
    2a0a:	e7c5      	b.n	2998 <_mr_getMetaMemLimit+0x38>
    2a0c:	1821      	adds	r1, r4, r0
    2a0e:	4668      	mov	r0, sp
    2a10:	2204      	movs	r2, #4
    2a12:	f7ff fffe 	bl	0 <__rt_memcpy>
    2a16:	4668      	mov	r0, sp
    2a18:	f7ff fffe 	bl	294a <mr_ltoh>
    2a1c:	1c05      	adds	r5, r0, #0
    2a1e:	19e8      	adds	r0, r5, r7
    2a20:	42b0      	cmp	r0, r6
    2a22:	d203      	bcs.n	2a2c <_mr_getMetaMemLimit+0xcc>
    2a24:	2d01      	cmp	r5, #1
    2a26:	db01      	blt.n	2a2c <_mr_getMetaMemLimit+0xcc>
    2a28:	2d80      	cmp	r5, #128	; 0x80
    2a2a:	db01      	blt.n	2a30 <_mr_getMetaMemLimit+0xd0>
    2a2c:	2000      	movs	r0, #0
    2a2e:	e7b3      	b.n	2998 <_mr_getMetaMemLimit+0x38>
    2a30:	19e1      	adds	r1, r4, r7
    2a32:	1c2a      	adds	r2, r5, #0
    2a34:	a805      	add	r0, sp, #20
    2a36:	f7ff fffe 	bl	0 <__rt_memcpy>
    2a3a:	2000      	movs	r0, #0
    2a3c:	a905      	add	r1, sp, #20
    2a3e:	5548      	strb	r0, [r1, r5]
    2a40:	197d      	adds	r5, r7, r5
    2a42:	a905      	add	r1, sp, #20
    2a44:	a0df      	add	r0, pc, #892	; (adr r0, 2dc4 <mr_start_dsm_ex+0x52>)
    2a46:	f7ff fffe 	bl	0 <strcmp>
    2a4a:	2800      	cmp	r0, #0
    2a4c:	d114      	bne.n	2a78 <_mr_getMetaMemLimit+0x118>
    2a4e:	1961      	adds	r1, r4, r5
    2a50:	2204      	movs	r2, #4
    2a52:	4668      	mov	r0, sp
    2a54:	f7ff fffe 	bl	0 <__rt_memcpy>
    2a58:	4668      	mov	r0, sp
    2a5a:	e000      	b.n	2a5e <_mr_getMetaMemLimit+0xfe>
    2a5c:	e016      	b.n	2a8c <_mr_getMetaMemLimit+0x12c>
    2a5e:	f7ff fffe 	bl	294a <mr_ltoh>
    2a62:	1d29      	adds	r1, r5, #4
    2a64:	1842      	adds	r2, r0, r1
    2a66:	42b2      	cmp	r2, r6
    2a68:	d804      	bhi.n	2a74 <_mr_getMetaMemLimit+0x114>
    2a6a:	2801      	cmp	r0, #1
    2a6c:	db02      	blt.n	2a74 <_mr_getMetaMemLimit+0x114>
    2a6e:	4ad4      	ldr	r2, [pc, #848]	; (2dc0 <mr_start_dsm_ex+0x4e>)
    2a70:	4290      	cmp	r0, r2
    2a72:	db03      	blt.n	2a7c <_mr_getMetaMemLimit+0x11c>
    2a74:	2000      	movs	r0, #0
    2a76:	e78f      	b.n	2998 <_mr_getMetaMemLimit+0x38>
    2a78:	2000      	movs	r0, #0
    2a7a:	e78d      	b.n	2998 <_mr_getMetaMemLimit+0x38>
    2a7c:	1c08      	adds	r0, r1, #0
    2a7e:	300c      	adds	r0, #12
    2a80:	1821      	adds	r1, r4, r0
    2a82:	4668      	mov	r0, sp
    2a84:	2204      	movs	r2, #4
    2a86:	f7ff fffe 	bl	0 <__rt_memcpy>
    2a8a:	e0b4      	b.n	2bf6 <_mr_getMetaMemLimit+0x296>
    2a8c:	2101      	movs	r1, #1
    2a8e:	1c30      	adds	r0, r6, #0
    2a90:	f7ff fffe 	bl	0 <mr_open>
    2a94:	1c04      	adds	r4, r0, #0
    2a96:	2100      	movs	r1, #0
    2a98:	2200      	movs	r2, #0
    2a9a:	a801      	add	r0, sp, #4
    2a9c:	c006      	stmia	r0!, {r1, r2}
    2a9e:	c006      	stmia	r0!, {r1, r2}
    2aa0:	2210      	movs	r2, #16
    2aa2:	1c20      	adds	r0, r4, #0
    2aa4:	a901      	add	r1, sp, #4
    2aa6:	f7ff fffe 	bl	0 <mr_read>
    2aaa:	1c05      	adds	r5, r0, #0
    2aac:	a801      	add	r0, sp, #4
    2aae:	f7ff fffe 	bl	294a <mr_ltoh>
    2ab2:	9001      	str	r0, [sp, #4]
    2ab4:	a802      	add	r0, sp, #8
    2ab6:	f7ff fffe 	bl	294a <mr_ltoh>
    2aba:	9002      	str	r0, [sp, #8]
    2abc:	a803      	add	r0, sp, #12
    2abe:	f7ff fffe 	bl	294a <mr_ltoh>
    2ac2:	9003      	str	r0, [sp, #12]
    2ac4:	a804      	add	r0, sp, #16
    2ac6:	f7ff fffe 	bl	294a <mr_ltoh>
    2aca:	9004      	str	r0, [sp, #16]
    2acc:	2d10      	cmp	r5, #16
    2ace:	d106      	bne.n	2ade <_mr_getMetaMemLimit+0x17e>
    2ad0:	49bf      	ldr	r1, [pc, #764]	; (2dd0 <mr_start_dsm_ex+0x5e>)
    2ad2:	9801      	ldr	r0, [sp, #4]
    2ad4:	4288      	cmp	r0, r1
    2ad6:	d102      	bne.n	2ade <_mr_getMetaMemLimit+0x17e>
    2ad8:	9802      	ldr	r0, [sp, #8]
    2ada:	28e8      	cmp	r0, #232	; 0xe8
    2adc:	d804      	bhi.n	2ae8 <_mr_getMetaMemLimit+0x188>
    2ade:	1c20      	adds	r0, r4, #0
    2ae0:	f7ff fffe 	bl	0 <mr_close>
    2ae4:	2000      	movs	r0, #0
    2ae6:	e757      	b.n	2998 <_mr_getMetaMemLimit+0x38>
    2ae8:	9802      	ldr	r0, [sp, #8]
    2aea:	9904      	ldr	r1, [sp, #16]
    2aec:	3008      	adds	r0, #8
    2aee:	1a46      	subs	r6, r0, r1
    2af0:	9904      	ldr	r1, [sp, #16]
    2af2:	2201      	movs	r2, #1
    2af4:	3910      	subs	r1, #16
    2af6:	1c20      	adds	r0, r4, #0
    2af8:	f7ff fffe 	bl	0 <mr_seek>
    2afc:	2800      	cmp	r0, #0
    2afe:	da04      	bge.n	2b0a <_mr_getMetaMemLimit+0x1aa>
    2b00:	1c20      	adds	r0, r4, #0
    2b02:	f7ff fffe 	bl	0 <mr_close>
    2b06:	2000      	movs	r0, #0
    2b08:	e746      	b.n	2998 <_mr_getMetaMemLimit+0x38>
    2b0a:	2204      	movs	r2, #4
    2b0c:	1c20      	adds	r0, r4, #0
    2b0e:	4669      	mov	r1, sp
    2b10:	f7ff fffe 	bl	0 <mr_read>
    2b14:	2804      	cmp	r0, #4
    2b16:	d004      	beq.n	2b22 <_mr_getMetaMemLimit+0x1c2>
    2b18:	1c20      	adds	r0, r4, #0
    2b1a:	f7ff fffe 	bl	0 <mr_close>
    2b1e:	2000      	movs	r0, #0
    2b20:	e73a      	b.n	2998 <_mr_getMetaMemLimit+0x38>
    2b22:	4668      	mov	r0, sp
    2b24:	f7ff fffe 	bl	294a <mr_ltoh>
    2b28:	1c05      	adds	r5, r0, #0
    2b2a:	1d28      	adds	r0, r5, #4
    2b2c:	42b0      	cmp	r0, r6
    2b2e:	d803      	bhi.n	2b38 <_mr_getMetaMemLimit+0x1d8>
    2b30:	2d01      	cmp	r5, #1
    2b32:	db01      	blt.n	2b38 <_mr_getMetaMemLimit+0x1d8>
    2b34:	2d80      	cmp	r5, #128	; 0x80
    2b36:	db04      	blt.n	2b42 <_mr_getMetaMemLimit+0x1e2>
    2b38:	1c20      	adds	r0, r4, #0
    2b3a:	f7ff fffe 	bl	0 <mr_close>
    2b3e:	2000      	movs	r0, #0
    2b40:	e72a      	b.n	2998 <_mr_getMetaMemLimit+0x38>
    2b42:	1c2a      	adds	r2, r5, #0
    2b44:	1c20      	adds	r0, r4, #0
    2b46:	a905      	add	r1, sp, #20
    2b48:	f7ff fffe 	bl	0 <mr_read>
    2b4c:	42a8      	cmp	r0, r5
    2b4e:	d004      	beq.n	2b5a <_mr_getMetaMemLimit+0x1fa>
    2b50:	1c20      	adds	r0, r4, #0
    2b52:	f7ff fffe 	bl	0 <mr_close>
    2b56:	2000      	movs	r0, #0
    2b58:	e71e      	b.n	2998 <_mr_getMetaMemLimit+0x38>
    2b5a:	2000      	movs	r0, #0
    2b5c:	a905      	add	r1, sp, #20
    2b5e:	5548      	strb	r0, [r1, r5]
    2b60:	a905      	add	r1, sp, #20
    2b62:	a098      	add	r0, pc, #608	; (adr r0, 2dc4 <mr_start_dsm_ex+0x52>)
    2b64:	f7ff fffe 	bl	0 <strcmp>
    2b68:	2800      	cmp	r0, #0
    2b6a:	d11a      	bne.n	2ba2 <_mr_getMetaMemLimit+0x242>
    2b6c:	2204      	movs	r2, #4
    2b6e:	1c20      	adds	r0, r4, #0
    2b70:	4669      	mov	r1, sp
    2b72:	f7ff fffe 	bl	0 <mr_read>
    2b76:	4668      	mov	r0, sp
    2b78:	f7ff fffe 	bl	294a <mr_ltoh>
    2b7c:	1c06      	adds	r6, r0, #0
    2b7e:	2204      	movs	r2, #4
    2b80:	1c20      	adds	r0, r4, #0
    2b82:	4669      	mov	r1, sp
    2b84:	f7ff fffe 	bl	0 <mr_read>
    2b88:	4668      	mov	r0, sp
    2b8a:	f7ff fffe 	bl	294a <mr_ltoh>
    2b8e:	1c05      	adds	r5, r0, #0
    2b90:	9903      	ldr	r1, [sp, #12]
    2b92:	1970      	adds	r0, r6, r5
    2b94:	4288      	cmp	r0, r1
    2b96:	d90d      	bls.n	2bb4 <_mr_getMetaMemLimit+0x254>
    2b98:	1c20      	adds	r0, r4, #0
    2b9a:	f7ff fffe 	bl	0 <mr_close>
    2b9e:	2000      	movs	r0, #0
    2ba0:	e6fa      	b.n	2998 <_mr_getMetaMemLimit+0x38>
    2ba2:	1c20      	adds	r0, r4, #0
    2ba4:	f7ff fffe 	bl	0 <mr_close>
    2ba8:	a186      	add	r1, pc, #536	; (adr r1, 2dc4 <mr_start_dsm_ex+0x52>)
    2baa:	a08a      	add	r0, pc, #552	; (adr r0, 2dd4 <mr_start_dsm_ex+0x62>)
    2bac:	f7ff fffe 	bl	0 <mr_printf>
    2bb0:	2000      	movs	r0, #0
    2bb2:	e6f1      	b.n	2998 <_mr_getMetaMemLimit+0x38>
    2bb4:	1c31      	adds	r1, r6, #0
    2bb6:	310c      	adds	r1, #12
    2bb8:	2200      	movs	r2, #0
    2bba:	1c20      	adds	r0, r4, #0
    2bbc:	f7ff fffe 	bl	0 <mr_seek>
    2bc0:	2800      	cmp	r0, #0
    2bc2:	da04      	bge.n	2bce <_mr_getMetaMemLimit+0x26e>
    2bc4:	1c20      	adds	r0, r4, #0
    2bc6:	f7ff fffe 	bl	0 <mr_close>
    2bca:	2000      	movs	r0, #0
    2bcc:	e6e4      	b.n	2998 <_mr_getMetaMemLimit+0x38>
    2bce:	2d00      	cmp	r5, #0
    2bd0:	da04      	bge.n	2bdc <_mr_getMetaMemLimit+0x27c>
    2bd2:	1c20      	adds	r0, r4, #0
    2bd4:	f7ff fffe 	bl	0 <mr_close>
    2bd8:	2000      	movs	r0, #0
    2bda:	e6dd      	b.n	2998 <_mr_getMetaMemLimit+0x38>
    2bdc:	2204      	movs	r2, #4
    2bde:	1c20      	adds	r0, r4, #0
    2be0:	4669      	mov	r1, sp
    2be2:	f7ff fffe 	bl	0 <mr_read>
    2be6:	1c05      	adds	r5, r0, #0
    2be8:	1c20      	adds	r0, r4, #0
    2bea:	f7ff fffe 	bl	0 <mr_close>
    2bee:	2d04      	cmp	r5, #4
    2bf0:	d001      	beq.n	2bf6 <_mr_getMetaMemLimit+0x296>
    2bf2:	1c28      	adds	r0, r5, #0
    2bf4:	e6d0      	b.n	2998 <_mr_getMetaMemLimit+0x38>
    2bf6:	4668      	mov	r0, sp
    2bf8:	f7ff fffe 	bl	2934 <mr_ntohl>
    2bfc:	e6cc      	b.n	2998 <_mr_getMetaMemLimit+0x38>

00002bfe <_mr_intra_start>:
    2bfe:	b5f3      	push	{r0, r1, r4, r5, r6, r7, lr}
    2c00:	b083      	sub	sp, #12
    2c02:	45d5      	cmp	sp, sl
    2c04:	d201      	bcs.n	2c0a <_mr_intra_start+0xc>
    2c06:	f7ff fffe 	bl	0 <__rt_stkovf_split_small>
    2c0a:	1c0c      	adds	r4, r1, #0
    2c0c:	f7ff fffe 	bl	27b0 <getAppInfo>
    2c10:	f7ff fffe 	bl	2960 <_mr_getMetaMemLimit>
    2c14:	4e74      	ldr	r6, [pc, #464]	; (2de8 <mr_start_dsm_ex+0x76>)
    2c16:	6770      	str	r0, [r6, #116]	; 0x74
    2c18:	4874      	ldr	r0, [pc, #464]	; (2dec <mr_start_dsm_ex+0x7a>)
    2c1a:	68c0      	ldr	r0, [r0, #12]
    2c1c:	f7ff fffe 	bl	2e <_mr_mem_init_ex>
    2c20:	2800      	cmp	r0, #0
    2c22:	d003      	beq.n	2c2c <_mr_intra_start+0x2e>
    2c24:	2000      	movs	r0, #0
    2c26:	43c0      	mvns	r0, r0
    2c28:	b005      	add	sp, #20
    2c2a:	bdf0      	pop	{r4, r5, r6, r7, pc}
    2c2c:	2700      	movs	r7, #0
    2c2e:	6237      	str	r7, [r6, #32]
    2c30:	6277      	str	r7, [r6, #36]	; 0x24
    2c32:	62b7      	str	r7, [r6, #40]	; 0x28
    2c34:	62f7      	str	r7, [r6, #44]	; 0x2c
    2c36:	6337      	str	r7, [r6, #48]	; 0x30
    2c38:	61b7      	str	r7, [r6, #24]
    2c3a:	486b      	ldr	r0, [pc, #428]	; (2de8 <mr_start_dsm_ex+0x76>)
    2c3c:	3080      	adds	r0, #128	; 0x80
    2c3e:	60c7      	str	r7, [r0, #12]
    2c40:	6107      	str	r7, [r0, #16]
    2c42:	6147      	str	r7, [r0, #20]
    2c44:	6177      	str	r7, [r6, #20]
    2c46:	2000      	movs	r0, #0
    2c48:	9002      	str	r0, [sp, #8]
    2c4a:	63b7      	str	r7, [r6, #56]	; 0x38
    2c4c:	4b66      	ldr	r3, [pc, #408]	; (2de8 <mr_start_dsm_ex+0x76>)
    2c4e:	2200      	movs	r2, #0
    2c50:	a902      	add	r1, sp, #8
    2c52:	9100      	str	r1, [sp, #0]
    2c54:	3338      	adds	r3, #56	; 0x38
    2c56:	2100      	movs	r1, #0
    2c58:	9201      	str	r2, [sp, #4]
    2c5a:	4865      	ldr	r0, [pc, #404]	; (2df0 <mr_start_dsm_ex+0x7e>)
    2c5c:	f7ff fffe 	bl	0 <mr_platEx>
    2c60:	4d64      	ldr	r5, [pc, #400]	; (2df4 <mr_start_dsm_ex+0x82>)
    2c62:	2800      	cmp	r0, #0
    2c64:	d11a      	bne.n	2c9c <_mr_intra_start+0x9e>
    2c66:	6bb0      	ldr	r0, [r6, #56]	; 0x38
    2c68:	2800      	cmp	r0, #0
    2c6a:	d00a      	beq.n	2c82 <_mr_intra_start+0x84>
    2c6c:	6bf1      	ldr	r1, [r6, #60]	; 0x3c
    2c6e:	6c32      	ldr	r2, [r6, #64]	; 0x40
    2c70:	4351      	muls	r1, r2
    2c72:	004a      	lsls	r2, r1, #1
    2c74:	9902      	ldr	r1, [sp, #8]
    2c76:	428a      	cmp	r2, r1
    2c78:	dc03      	bgt.n	2c82 <_mr_intra_start+0x84>
    2c7a:	2001      	movs	r0, #1
    2c7c:	62a8      	str	r0, [r5, #40]	; 0x28
    2c7e:	6269      	str	r1, [r5, #36]	; 0x24
    2c80:	e00c      	b.n	2c9c <_mr_intra_start+0x9e>
    2c82:	2800      	cmp	r0, #0
    2c84:	d00a      	beq.n	2c9c <_mr_intra_start+0x9e>
    2c86:	2200      	movs	r2, #0
    2c88:	1c01      	adds	r1, r0, #0
    2c8a:	4859      	ldr	r0, [pc, #356]	; (2df0 <mr_start_dsm_ex+0x7e>)
    2c8c:	9200      	str	r2, [sp, #0]
    2c8e:	9201      	str	r2, [sp, #4]
    2c90:	1c3b      	adds	r3, r7, #0
    2c92:	3001      	adds	r0, #1
    2c94:	9a02      	ldr	r2, [sp, #8]
    2c96:	f7ff fffe 	bl	0 <mr_platEx>
    2c9a:	63b7      	str	r7, [r6, #56]	; 0x38
    2c9c:	6bb0      	ldr	r0, [r6, #56]	; 0x38
    2c9e:	2800      	cmp	r0, #0
    2ca0:	d10c      	bne.n	2cbc <_mr_intra_start+0xbe>
    2ca2:	6bf0      	ldr	r0, [r6, #60]	; 0x3c
    2ca4:	6c31      	ldr	r1, [r6, #64]	; 0x40
    2ca6:	4348      	muls	r0, r1
    2ca8:	0040      	lsls	r0, r0, #1
    2caa:	f7ff fffe 	bl	84 <mr_malloc>
    2cae:	63b0      	str	r0, [r6, #56]	; 0x38
    2cb0:	62af      	str	r7, [r5, #40]	; 0x28
    2cb2:	6bf0      	ldr	r0, [r6, #60]	; 0x3c
    2cb4:	6c31      	ldr	r1, [r6, #64]	; 0x40
    2cb6:	4348      	muls	r0, r1
    2cb8:	0040      	lsls	r0, r0, #1
    2cba:	6268      	str	r0, [r5, #36]	; 0x24
    2cbc:	494a      	ldr	r1, [pc, #296]	; (2de8 <mr_start_dsm_ex+0x76>)
    2cbe:	484e      	ldr	r0, [pc, #312]	; (2df8 <mr_start_dsm_ex+0x86>)
    2cc0:	6b8a      	ldr	r2, [r1, #56]	; 0x38
    2cc2:	62ea      	str	r2, [r5, #44]	; 0x2c
    2cc4:	1c02      	adds	r2, r0, #0
    2cc6:	32ff      	adds	r2, #255	; 0xff
    2cc8:	6c0d      	ldr	r5, [r1, #64]	; 0x40
    2cca:	32e1      	adds	r2, #225	; 0xe1
    2ccc:	8055      	strh	r5, [r2, #2]
    2cce:	6bce      	ldr	r6, [r1, #60]	; 0x3c
    2cd0:	8016      	strh	r6, [r2, #0]
    2cd2:	2700      	movs	r7, #0
    2cd4:	634f      	str	r7, [r1, #52]	; 0x34
    2cd6:	60cf      	str	r7, [r1, #12]
    2cd8:	610f      	str	r7, [r1, #16]
    2cda:	688a      	ldr	r2, [r1, #8]
    2cdc:	2302      	movs	r3, #2
    2cde:	401a      	ands	r2, r3
    2ce0:	608a      	str	r2, [r1, #8]
    2ce2:	21ff      	movs	r1, #255	; 0xff
    2ce4:	31e1      	adds	r1, #225	; 0xe1
    2ce6:	f7ff fffe 	bl	0 <__rt_memclr_w>
    2cea:	4842      	ldr	r0, [pc, #264]	; (2df4 <mr_start_dsm_ex+0x82>)
    2cec:	213c      	movs	r1, #60	; 0x3c
    2cee:	3078      	adds	r0, #120	; 0x78
    2cf0:	f7ff fffe 	bl	0 <__rt_memclr_w>
    2cf4:	483f      	ldr	r0, [pc, #252]	; (2df4 <mr_start_dsm_ex+0x82>)
    2cf6:	2114      	movs	r1, #20
    2cf8:	30b4      	adds	r0, #180	; 0xb4
    2cfa:	f7ff fffe 	bl	0 <__rt_memclr_w>
    2cfe:	4f3d      	ldr	r7, [pc, #244]	; (2df4 <mr_start_dsm_ex+0x82>)
    2d00:	213c      	movs	r1, #60	; 0x3c
    2d02:	3730      	adds	r7, #48	; 0x30
    2d04:	1c38      	adds	r0, r7, #0
    2d06:	f7ff fffe 	bl	0 <__rt_memclr_w>
    2d0a:	483a      	ldr	r0, [pc, #232]	; (2df4 <mr_start_dsm_ex+0x82>)
    2d0c:	2100      	movs	r1, #0
    2d0e:	306c      	adds	r0, #108	; 0x6c
    2d10:	2200      	movs	r2, #0
    2d12:	c006      	stmia	r0!, {r1, r2}
    2d14:	c004      	stmia	r0!, {r2}
    2d16:	042a      	lsls	r2, r5, #16
    2d18:	0435      	lsls	r5, r6, #16
    2d1a:	4e33      	ldr	r6, [pc, #204]	; (2de8 <mr_start_dsm_ex+0x76>)
    2d1c:	1412      	asrs	r2, r2, #16
    2d1e:	2000      	movs	r0, #0
    2d20:	142d      	asrs	r5, r5, #16
    2d22:	2314      	movs	r3, #20
    2d24:	4343      	muls	r3, r0
    2d26:	19db      	adds	r3, r3, r7
    2d28:	8119      	strh	r1, [r3, #8]
    2d2a:	8159      	strh	r1, [r3, #10]
    2d2c:	819d      	strh	r5, [r3, #12]
    2d2e:	81da      	strh	r2, [r3, #14]
    2d30:	3001      	adds	r0, #1
    2d32:	2803      	cmp	r0, #3
    2d34:	dbf5      	blt.n	2d22 <_mr_intra_start+0x124>
    2d36:	2c00      	cmp	r4, #0
    2d38:	d100      	bne.n	2d3c <_mr_intra_start+0x13e>
    2d3a:	a430      	add	r4, pc, #192	; (adr r4, 2dfc <mr_start_dsm_ex+0x8a>)
    2d3c:	227f      	movs	r2, #127	; 0x7f
    2d3e:	1c21      	adds	r1, r4, #0
    2d40:	4830      	ldr	r0, [pc, #192]	; (2e04 <mr_start_dsm_ex+0x92>)
    2d42:	f7ff fffe 	bl	23f2 <mr_strncpy>
    2d46:	2001      	movs	r0, #1
    2d48:	6070      	str	r0, [r6, #4]
    2d4a:	9803      	ldr	r0, [sp, #12]
    2d4c:	f7ff fffe 	bl	281a <mr_doExt>
    2d50:	2800      	cmp	r0, #0
    2d52:	d00c      	beq.n	2d6e <_mr_intra_start+0x170>
    2d54:	2005      	movs	r0, #5
    2d56:	6070      	str	r0, [r6, #4]
    2d58:	f7ff fffe 	bl	290e <mr_stop>
    2d5c:	a02a      	add	r0, pc, #168	; (adr r0, 2e08 <mr_start_dsm_ex+0x96>)
    2d5e:	f7ff fffe 	bl	0 <mr_printf>
    2d62:	a02c      	add	r0, pc, #176	; (adr r0, 2e14 <mr_start_dsm_ex+0xa2>)
    2d64:	f7ff fffe 	bl	0 <mr_connectWAP>
    2d68:	2000      	movs	r0, #0
    2d6a:	43c0      	mvns	r0, r0
    2d6c:	e75c      	b.n	2c28 <_mr_intra_start+0x2a>
    2d6e:	2000      	movs	r0, #0
    2d70:	e75a      	b.n	2c28 <_mr_intra_start+0x2a>

00002d72 <mr_start_dsm_ex>:
    2d72:	b5fe      	push	{r1, r2, r3, r4, r5, r6, r7, lr}
    2d74:	45d5      	cmp	sp, sl
    2d76:	d201      	bcs.n	2d7c <mr_start_dsm_ex+0xa>
    2d78:	f7ff fffe 	bl	0 <__rt_stkovf_split_small>
    2d7c:	1c04      	adds	r4, r0, #0
    2d7e:	1c0e      	adds	r6, r1, #0
    2d80:	4668      	mov	r0, sp
    2d82:	f7ff fffe 	bl	0 <mr_getScreenInfo>
    2d86:	2800      	cmp	r0, #0
    2d88:	d002      	beq.n	2d90 <mr_start_dsm_ex+0x1e>
    2d8a:	2000      	movs	r0, #0
    2d8c:	43c0      	mvns	r0, r0
    2d8e:	bdfe      	pop	{r1, r2, r3, r4, r5, r6, r7, pc}
    2d90:	4815      	ldr	r0, [pc, #84]	; (2de8 <mr_start_dsm_ex+0x76>)
    2d92:	9900      	ldr	r1, [sp, #0]
    2d94:	63c1      	str	r1, [r0, #60]	; 0x3c
    2d96:	9901      	ldr	r1, [sp, #4]
    2d98:	6401      	str	r1, [r0, #64]	; 0x40
    2d9a:	9902      	ldr	r1, [sp, #8]
    2d9c:	6441      	str	r1, [r0, #68]	; 0x44
    2d9e:	4d15      	ldr	r5, [pc, #84]	; (2df4 <mr_start_dsm_ex+0x82>)
    2da0:	2180      	movs	r1, #128	; 0x80
    2da2:	35c8      	adds	r5, #200	; 0xc8
    2da4:	1c28      	adds	r0, r5, #0
    2da6:	f7ff fffe 	bl	0 <__rt_memclr_w>
    2daa:	2c00      	cmp	r4, #0
    2dac:	d046      	beq.n	2e3c <mr_start_dsm_ex+0xca>
    2dae:	7820      	ldrb	r0, [r4, #0]
    2db0:	282a      	cmp	r0, #42	; 0x2a
    2db2:	d143      	bne.n	2e3c <mr_start_dsm_ex+0xca>
    2db4:	1c21      	adds	r1, r4, #0
    2db6:	1c28      	adds	r0, r5, #0
    2db8:	f7ff fffe 	bl	0 <strcpy>
    2dbc:	e05a      	b.n	2e74 <mr_start_dsm_ex+0x102>
    2dbe:	0000      	.short	0x0000
    2dc0:	7fffffff 	.word	0x7fffffff
    2dc4:	37303823 	.word	0x37303823
    2dc8:	23323230 	.word	0x23323230
    2dcc:	0000002a 	.word	0x0000002a
    2dd0:	4750524d 	.word	0x4750524d
    2dd4:	206e6163 	.word	0x206e6163
    2dd8:	20746f6e 	.word	0x20746f6e
    2ddc:	6e756f66 	.word	0x6e756f66
    2de0:	73252064 	.word	0x73252064
	...
    2dec:	000017f4 	.word	0x000017f4
    2df0:	000003e9 	.word	0x000003e9
    2df4:	0000034c 	.word	0x0000034c
    2df8:	0000018c 	.word	0x0000018c
    2dfc:	6d73645f 	.word	0x6d73645f
    2e00:	00000000 	.word	0x00000000
    2e04:	00000694 	.word	0x00000694
    2e08:	74696e69 	.word	0x74696e69
    2e0c:	69616620 	.word	0x69616620
    2e10:	0064656c 	.word	0x0064656c
    2e14:	70747468 	.word	0x70747468
    2e18:	772f2f3a 	.word	0x772f2f3a
    2e1c:	732e7061 	.word	0x732e7061
    2e20:	67656d6b 	.word	0x67656d6b
    2e24:	6d6f632e 	.word	0x6d6f632e
    2e28:	6d73642f 	.word	0x6d73642f
    2e2c:	2f706157 	.word	0x2f706157
    2e30:	6f727265 	.word	0x6f727265
    2e34:	736a2e72 	.word	0x736a2e72
    2e38:	00000070 	.word	0x00000070
    2e3c:	2c00      	cmp	r4, #0
    2e3e:	d007      	beq.n	2e50 <mr_start_dsm_ex+0xde>
    2e40:	7820      	ldrb	r0, [r4, #0]
    2e42:	2825      	cmp	r0, #37	; 0x25
    2e44:	d104      	bne.n	2e50 <mr_start_dsm_ex+0xde>
    2e46:	1c61      	adds	r1, r4, #1
    2e48:	1c28      	adds	r0, r5, #0
    2e4a:	f7ff fffe 	bl	0 <strcpy>
    2e4e:	e011      	b.n	2e74 <mr_start_dsm_ex+0x102>
    2e50:	2c00      	cmp	r4, #0
    2e52:	d00a      	beq.n	2e6a <mr_start_dsm_ex+0xf8>
    2e54:	7820      	ldrb	r0, [r4, #0]
    2e56:	2823      	cmp	r0, #35	; 0x23
    2e58:	d107      	bne.n	2e6a <mr_start_dsm_ex+0xf8>
    2e5a:	7860      	ldrb	r0, [r4, #1]
    2e5c:	283c      	cmp	r0, #60	; 0x3c
    2e5e:	d104      	bne.n	2e6a <mr_start_dsm_ex+0xf8>
    2e60:	1ca1      	adds	r1, r4, #2
    2e62:	1c28      	adds	r0, r5, #0
    2e64:	f7ff fffe 	bl	0 <strcpy>
    2e68:	e004      	b.n	2e74 <mr_start_dsm_ex+0x102>
    2e6a:	2203      	movs	r2, #3
    2e6c:	1c28      	adds	r0, r5, #0
    2e6e:	a1eb      	add	r1, pc, #940	; (adr r1, 321c <mr_timer+0x48>)
    2e70:	f7ff fffe 	bl	0 <__rt_memcpy>
    2e74:	2180      	movs	r1, #128	; 0x80
    2e76:	48ea      	ldr	r0, [pc, #936]	; (3220 <mr_timer+0x4c>)
    2e78:	f7ff fffe 	bl	0 <__rt_memclr_w>
    2e7c:	48e8      	ldr	r0, [pc, #928]	; (3220 <mr_timer+0x4c>)
    2e7e:	2180      	movs	r1, #128	; 0x80
    2e80:	3080      	adds	r0, #128	; 0x80
    2e82:	f7ff fffe 	bl	0 <__rt_memclr_w>
    2e86:	48e6      	ldr	r0, [pc, #920]	; (3220 <mr_timer+0x4c>)
    2e88:	2180      	movs	r1, #128	; 0x80
    2e8a:	3880      	subs	r0, #128	; 0x80
    2e8c:	f7ff fffe 	bl	0 <__rt_memclr_w>
    2e90:	49e4      	ldr	r1, [pc, #912]	; (3224 <mr_timer+0x50>)
    2e92:	2000      	movs	r0, #0
    2e94:	60c8      	str	r0, [r1, #12]
    2e96:	1c31      	adds	r1, r6, #0
    2e98:	a0e3      	add	r0, pc, #908	; (adr r0, 3228 <mr_timer+0x54>)
    2e9a:	f7ff fffe 	bl	2bfe <_mr_intra_start>
    2e9e:	e776      	b.n	2d8e <mr_start_dsm_ex+0x1c>

00002ea0 <mr_start_dsmB>:
    2ea0:	b5fe      	push	{r1, r2, r3, r4, r5, r6, r7, lr}
    2ea2:	45d5      	cmp	sp, sl
    2ea4:	d201      	bcs.n	2eaa <mr_start_dsmB+0xa>
    2ea6:	f7ff fffe 	bl	0 <__rt_stkovf_split_small>
    2eaa:	1c04      	adds	r4, r0, #0
    2eac:	4668      	mov	r0, sp
    2eae:	f7ff fffe 	bl	0 <mr_getScreenInfo>
    2eb2:	2800      	cmp	r0, #0
    2eb4:	d002      	beq.n	2ebc <mr_start_dsmB+0x1c>
    2eb6:	2000      	movs	r0, #0
    2eb8:	43c0      	mvns	r0, r0
    2eba:	bdfe      	pop	{r1, r2, r3, r4, r5, r6, r7, pc}
    2ebc:	48dd      	ldr	r0, [pc, #884]	; (3234 <mr_timer+0x60>)
    2ebe:	9900      	ldr	r1, [sp, #0]
    2ec0:	63c1      	str	r1, [r0, #60]	; 0x3c
    2ec2:	9901      	ldr	r1, [sp, #4]
    2ec4:	6401      	str	r1, [r0, #64]	; 0x40
    2ec6:	9902      	ldr	r1, [sp, #8]
    2ec8:	6441      	str	r1, [r0, #68]	; 0x44
    2eca:	4edb      	ldr	r6, [pc, #876]	; (3238 <mr_timer+0x64>)
    2ecc:	2180      	movs	r1, #128	; 0x80
    2ece:	1c30      	adds	r0, r6, #0
    2ed0:	f7ff fffe 	bl	0 <__rt_memclr_w>
    2ed4:	2700      	movs	r7, #0
    2ed6:	2c00      	cmp	r4, #0
    2ed8:	d007      	beq.n	2eea <mr_start_dsmB+0x4a>
    2eda:	7820      	ldrb	r0, [r4, #0]
    2edc:	282a      	cmp	r0, #42	; 0x2a
    2ede:	d104      	bne.n	2eea <mr_start_dsmB+0x4a>
    2ee0:	1c21      	adds	r1, r4, #0
    2ee2:	1c30      	adds	r0, r6, #0
    2ee4:	f7ff fffe 	bl	0 <strcpy>
    2ee8:	e029      	b.n	2f3e <mr_start_dsmB+0x9e>
    2eea:	2c00      	cmp	r4, #0
    2eec:	d015      	beq.n	2f1a <mr_start_dsmB+0x7a>
    2eee:	7820      	ldrb	r0, [r4, #0]
    2ef0:	2825      	cmp	r0, #37	; 0x25
    2ef2:	d112      	bne.n	2f1a <mr_start_dsmB+0x7a>
    2ef4:	212c      	movs	r1, #44	; 0x2c
    2ef6:	1c20      	adds	r0, r4, #0
    2ef8:	f7ff fffe 	bl	0 <strchr>
    2efc:	1c05      	adds	r5, r0, #0
    2efe:	1c61      	adds	r1, r4, #1
    2f00:	2d00      	cmp	r5, #0
    2f02:	d006      	beq.n	2f12 <mr_start_dsmB+0x72>
    2f04:	702f      	strb	r7, [r5, #0]
    2f06:	1c30      	adds	r0, r6, #0
    2f08:	f7ff fffe 	bl	0 <strcpy>
    2f0c:	202c      	movs	r0, #44	; 0x2c
    2f0e:	7028      	strb	r0, [r5, #0]
    2f10:	e015      	b.n	2f3e <mr_start_dsmB+0x9e>
    2f12:	1c30      	adds	r0, r6, #0
    2f14:	f7ff fffe 	bl	0 <strcpy>
    2f18:	e011      	b.n	2f3e <mr_start_dsmB+0x9e>
    2f1a:	2c00      	cmp	r4, #0
    2f1c:	d00a      	beq.n	2f34 <mr_start_dsmB+0x94>
    2f1e:	7820      	ldrb	r0, [r4, #0]
    2f20:	2823      	cmp	r0, #35	; 0x23
    2f22:	d107      	bne.n	2f34 <mr_start_dsmB+0x94>
    2f24:	7860      	ldrb	r0, [r4, #1]
    2f26:	283c      	cmp	r0, #60	; 0x3c
    2f28:	d104      	bne.n	2f34 <mr_start_dsmB+0x94>
    2f2a:	1ca1      	adds	r1, r4, #2
    2f2c:	1c30      	adds	r0, r6, #0
    2f2e:	f7ff fffe 	bl	0 <strcpy>
    2f32:	e004      	b.n	2f3e <mr_start_dsmB+0x9e>
    2f34:	2203      	movs	r2, #3
    2f36:	1c30      	adds	r0, r6, #0
    2f38:	a1b8      	add	r1, pc, #736	; (adr r1, 321c <mr_timer+0x48>)
    2f3a:	f7ff fffe 	bl	0 <__rt_memcpy>
    2f3e:	1c30      	adds	r0, r6, #0
    2f40:	f7ff fffe 	bl	0 <mr_printf>
    2f44:	2180      	movs	r1, #128	; 0x80
    2f46:	48b6      	ldr	r0, [pc, #728]	; (3220 <mr_timer+0x4c>)
    2f48:	f7ff fffe 	bl	0 <__rt_memclr_w>
    2f4c:	48b4      	ldr	r0, [pc, #720]	; (3220 <mr_timer+0x4c>)
    2f4e:	2180      	movs	r1, #128	; 0x80
    2f50:	3080      	adds	r0, #128	; 0x80
    2f52:	f7ff fffe 	bl	0 <__rt_memclr_w>
    2f56:	48b2      	ldr	r0, [pc, #712]	; (3220 <mr_timer+0x4c>)
    2f58:	2180      	movs	r1, #128	; 0x80
    2f5a:	3880      	subs	r0, #128	; 0x80
    2f5c:	f7ff fffe 	bl	0 <__rt_memclr_w>
    2f60:	48b0      	ldr	r0, [pc, #704]	; (3224 <mr_timer+0x50>)
    2f62:	60c7      	str	r7, [r0, #12]
    2f64:	1c21      	adds	r1, r4, #0
    2f66:	a0b0      	add	r0, pc, #704	; (adr r0, 3228 <mr_timer+0x54>)
    2f68:	f7ff fffe 	bl	2bfe <_mr_intra_start>
    2f6c:	e7a5      	b.n	2eba <mr_start_dsmB+0x1a>

00002f6e <mr_start_dsm>:
    2f6e:	b53e      	push	{r1, r2, r3, r4, r5, lr}
    2f70:	45d5      	cmp	sp, sl
    2f72:	d201      	bcs.n	2f78 <mr_start_dsm+0xa>
    2f74:	f7ff fffe 	bl	0 <__rt_stkovf_split_small>
    2f78:	1c04      	adds	r4, r0, #0
    2f7a:	4668      	mov	r0, sp
    2f7c:	f7ff fffe 	bl	0 <mr_getScreenInfo>
    2f80:	2800      	cmp	r0, #0
    2f82:	d002      	beq.n	2f8a <mr_start_dsm+0x1c>
    2f84:	2000      	movs	r0, #0
    2f86:	43c0      	mvns	r0, r0
    2f88:	bd3e      	pop	{r1, r2, r3, r4, r5, pc}
    2f8a:	48aa      	ldr	r0, [pc, #680]	; (3234 <mr_timer+0x60>)
    2f8c:	9900      	ldr	r1, [sp, #0]
    2f8e:	63c1      	str	r1, [r0, #60]	; 0x3c
    2f90:	9901      	ldr	r1, [sp, #4]
    2f92:	6401      	str	r1, [r0, #64]	; 0x40
    2f94:	9902      	ldr	r1, [sp, #8]
    2f96:	6441      	str	r1, [r0, #68]	; 0x44
    2f98:	4da7      	ldr	r5, [pc, #668]	; (3238 <mr_timer+0x64>)
    2f9a:	2180      	movs	r1, #128	; 0x80
    2f9c:	1c28      	adds	r0, r5, #0
    2f9e:	f7ff fffe 	bl	0 <__rt_memclr_w>
    2fa2:	2c00      	cmp	r4, #0
    2fa4:	d007      	beq.n	2fb6 <mr_start_dsm+0x48>
    2fa6:	7820      	ldrb	r0, [r4, #0]
    2fa8:	282a      	cmp	r0, #42	; 0x2a
    2faa:	d104      	bne.n	2fb6 <mr_start_dsm+0x48>
    2fac:	1c21      	adds	r1, r4, #0
    2fae:	1c28      	adds	r0, r5, #0
    2fb0:	f7ff fffe 	bl	0 <strcpy>
    2fb4:	e01b      	b.n	2fee <mr_start_dsm+0x80>
    2fb6:	2c00      	cmp	r4, #0
    2fb8:	d007      	beq.n	2fca <mr_start_dsm+0x5c>
    2fba:	7820      	ldrb	r0, [r4, #0]
    2fbc:	2825      	cmp	r0, #37	; 0x25
    2fbe:	d104      	bne.n	2fca <mr_start_dsm+0x5c>
    2fc0:	1c61      	adds	r1, r4, #1
    2fc2:	1c28      	adds	r0, r5, #0
    2fc4:	f7ff fffe 	bl	0 <strcpy>
    2fc8:	e011      	b.n	2fee <mr_start_dsm+0x80>
    2fca:	2c00      	cmp	r4, #0
    2fcc:	d00a      	beq.n	2fe4 <mr_start_dsm+0x76>
    2fce:	7820      	ldrb	r0, [r4, #0]
    2fd0:	2823      	cmp	r0, #35	; 0x23
    2fd2:	d107      	bne.n	2fe4 <mr_start_dsm+0x76>
    2fd4:	7860      	ldrb	r0, [r4, #1]
    2fd6:	283c      	cmp	r0, #60	; 0x3c
    2fd8:	d104      	bne.n	2fe4 <mr_start_dsm+0x76>
    2fda:	1ca1      	adds	r1, r4, #2
    2fdc:	1c28      	adds	r0, r5, #0
    2fde:	f7ff fffe 	bl	0 <strcpy>
    2fe2:	e004      	b.n	2fee <mr_start_dsm+0x80>
    2fe4:	2203      	movs	r2, #3
    2fe6:	1c28      	adds	r0, r5, #0
    2fe8:	a18c      	add	r1, pc, #560	; (adr r1, 321c <mr_timer+0x48>)
    2fea:	f7ff fffe 	bl	0 <__rt_memcpy>
    2fee:	1c28      	adds	r0, r5, #0
    2ff0:	f7ff fffe 	bl	0 <mr_printf>
    2ff4:	2180      	movs	r1, #128	; 0x80
    2ff6:	488a      	ldr	r0, [pc, #552]	; (3220 <mr_timer+0x4c>)
    2ff8:	f7ff fffe 	bl	0 <__rt_memclr_w>
    2ffc:	4888      	ldr	r0, [pc, #544]	; (3220 <mr_timer+0x4c>)
    2ffe:	2180      	movs	r1, #128	; 0x80
    3000:	3080      	adds	r0, #128	; 0x80
    3002:	f7ff fffe 	bl	0 <__rt_memclr_w>
    3006:	4886      	ldr	r0, [pc, #536]	; (3220 <mr_timer+0x4c>)
    3008:	2180      	movs	r1, #128	; 0x80
    300a:	3880      	subs	r0, #128	; 0x80
    300c:	f7ff fffe 	bl	0 <__rt_memclr_w>
    3010:	4984      	ldr	r1, [pc, #528]	; (3224 <mr_timer+0x50>)
    3012:	2000      	movs	r0, #0
    3014:	60c8      	str	r0, [r1, #12]
    3016:	1c21      	adds	r1, r4, #0
    3018:	a083      	add	r0, pc, #524	; (adr r0, 3228 <mr_timer+0x54>)
    301a:	f7ff fffe 	bl	2bfe <_mr_intra_start>
    301e:	e7b3      	b.n	2f88 <mr_start_dsm+0x1a>

00003020 <mr_start_dsmC>:
    3020:	b5fe      	push	{r1, r2, r3, r4, r5, r6, r7, lr}
    3022:	45d5      	cmp	sp, sl
    3024:	d201      	bcs.n	302a <mr_start_dsmC+0xa>
    3026:	f7ff fffe 	bl	0 <__rt_stkovf_split_small>
    302a:	1c06      	adds	r6, r0, #0
    302c:	1c0c      	adds	r4, r1, #0
    302e:	4668      	mov	r0, sp
    3030:	f7ff fffe 	bl	0 <mr_getScreenInfo>
    3034:	2800      	cmp	r0, #0
    3036:	d002      	beq.n	303e <mr_start_dsmC+0x1e>
    3038:	2000      	movs	r0, #0
    303a:	43c0      	mvns	r0, r0
    303c:	bdfe      	pop	{r1, r2, r3, r4, r5, r6, r7, pc}
    303e:	487d      	ldr	r0, [pc, #500]	; (3234 <mr_timer+0x60>)
    3040:	9900      	ldr	r1, [sp, #0]
    3042:	63c1      	str	r1, [r0, #60]	; 0x3c
    3044:	9901      	ldr	r1, [sp, #4]
    3046:	6401      	str	r1, [r0, #64]	; 0x40
    3048:	9902      	ldr	r1, [sp, #8]
    304a:	6441      	str	r1, [r0, #68]	; 0x44
    304c:	4d7a      	ldr	r5, [pc, #488]	; (3238 <mr_timer+0x64>)
    304e:	2180      	movs	r1, #128	; 0x80
    3050:	1c28      	adds	r0, r5, #0
    3052:	f7ff fffe 	bl	0 <__rt_memclr_w>
    3056:	2c00      	cmp	r4, #0
    3058:	d007      	beq.n	306a <mr_start_dsmC+0x4a>
    305a:	7820      	ldrb	r0, [r4, #0]
    305c:	282a      	cmp	r0, #42	; 0x2a
    305e:	d104      	bne.n	306a <mr_start_dsmC+0x4a>
    3060:	1c21      	adds	r1, r4, #0
    3062:	1c28      	adds	r0, r5, #0
    3064:	f7ff fffe 	bl	0 <strcpy>
    3068:	e01b      	b.n	30a2 <mr_start_dsmC+0x82>
    306a:	2c00      	cmp	r4, #0
    306c:	d007      	beq.n	307e <mr_start_dsmC+0x5e>
    306e:	7820      	ldrb	r0, [r4, #0]
    3070:	2825      	cmp	r0, #37	; 0x25
    3072:	d104      	bne.n	307e <mr_start_dsmC+0x5e>
    3074:	1c61      	adds	r1, r4, #1
    3076:	1c28      	adds	r0, r5, #0
    3078:	f7ff fffe 	bl	0 <strcpy>
    307c:	e011      	b.n	30a2 <mr_start_dsmC+0x82>
    307e:	2c00      	cmp	r4, #0
    3080:	d00a      	beq.n	3098 <mr_start_dsmC+0x78>
    3082:	7820      	ldrb	r0, [r4, #0]
    3084:	2823      	cmp	r0, #35	; 0x23
    3086:	d107      	bne.n	3098 <mr_start_dsmC+0x78>
    3088:	7860      	ldrb	r0, [r4, #1]
    308a:	283c      	cmp	r0, #60	; 0x3c
    308c:	d104      	bne.n	3098 <mr_start_dsmC+0x78>
    308e:	1ca1      	adds	r1, r4, #2
    3090:	1c28      	adds	r0, r5, #0
    3092:	f7ff fffe 	bl	0 <strcpy>
    3096:	e004      	b.n	30a2 <mr_start_dsmC+0x82>
    3098:	2203      	movs	r2, #3
    309a:	1c28      	adds	r0, r5, #0
    309c:	a15f      	add	r1, pc, #380	; (adr r1, 321c <mr_timer+0x48>)
    309e:	f7ff fffe 	bl	0 <__rt_memcpy>
    30a2:	1c28      	adds	r0, r5, #0
    30a4:	f7ff fffe 	bl	0 <mr_printf>
    30a8:	2180      	movs	r1, #128	; 0x80
    30aa:	485d      	ldr	r0, [pc, #372]	; (3220 <mr_timer+0x4c>)
    30ac:	f7ff fffe 	bl	0 <__rt_memclr_w>
    30b0:	485b      	ldr	r0, [pc, #364]	; (3220 <mr_timer+0x4c>)
    30b2:	2180      	movs	r1, #128	; 0x80
    30b4:	3080      	adds	r0, #128	; 0x80
    30b6:	f7ff fffe 	bl	0 <__rt_memclr_w>
    30ba:	4859      	ldr	r0, [pc, #356]	; (3220 <mr_timer+0x4c>)
    30bc:	2180      	movs	r1, #128	; 0x80
    30be:	3880      	subs	r0, #128	; 0x80
    30c0:	f7ff fffe 	bl	0 <__rt_memclr_w>
    30c4:	4957      	ldr	r1, [pc, #348]	; (3224 <mr_timer+0x50>)
    30c6:	2000      	movs	r0, #0
    30c8:	60c8      	str	r0, [r1, #12]
    30ca:	1c21      	adds	r1, r4, #0
    30cc:	1c30      	adds	r0, r6, #0
    30ce:	f7ff fffe 	bl	2bfe <_mr_intra_start>
    30d2:	e7b3      	b.n	303c <mr_start_dsmC+0x1c>

000030d4 <mr_pauseApp>:
    30d4:	b5b0      	push	{r4, r5, r7, lr}
    30d6:	45d5      	cmp	sp, sl
    30d8:	d201      	bcs.n	30de <mr_pauseApp+0xa>
    30da:	f7ff fffe 	bl	0 <__rt_stkovf_split_small>
    30de:	4c55      	ldr	r4, [pc, #340]	; (3234 <mr_timer+0x60>)
    30e0:	2500      	movs	r5, #0
    30e2:	6860      	ldr	r0, [r4, #4]
    30e4:	2801      	cmp	r0, #1
    30e6:	d118      	bne.n	311a <mr_pauseApp+0x46>
    30e8:	2502      	movs	r5, #2
    30ea:	6065      	str	r5, [r4, #4]
    30ec:	6ae0      	ldr	r0, [r4, #44]	; 0x2c
    30ee:	2800      	cmp	r0, #0
    30f0:	d002      	beq.n	30f8 <mr_pauseApp+0x24>
    30f2:	4780      	blx	r0
    30f4:	2801      	cmp	r0, #1
    30f6:	d10f      	bne.n	3118 <mr_pauseApp+0x44>
    30f8:	2304      	movs	r3, #4
    30fa:	2201      	movs	r2, #1
    30fc:	2100      	movs	r1, #0
    30fe:	484f      	ldr	r0, [pc, #316]	; (323c <mr_timer+0x68>)
    3100:	f7ff fffe 	bl	2164 <_mr_TestComC>
    3104:	6920      	ldr	r0, [r4, #16]
    3106:	2800      	cmp	r0, #0
    3108:	d105      	bne.n	3116 <mr_pauseApp+0x42>
    310a:	68e0      	ldr	r0, [r4, #12]
    310c:	2801      	cmp	r0, #1
    310e:	d102      	bne.n	3116 <mr_pauseApp+0x42>
    3110:	f7ff fffe 	bl	0 <mr_timerStop>
    3114:	60e5      	str	r5, [r4, #12]
    3116:	2000      	movs	r0, #0
    3118:	bdb0      	pop	{r4, r5, r7, pc}
    311a:	2803      	cmp	r0, #3
    311c:	d104      	bne.n	3128 <mr_pauseApp+0x54>
    311e:	f7ff fffe 	bl	0 <mr_timerStop>
    3122:	60e5      	str	r5, [r4, #12]
    3124:	2000      	movs	r0, #0
    3126:	bdb0      	pop	{r4, r5, r7, pc}
    3128:	2001      	movs	r0, #1
    312a:	bdb0      	pop	{r4, r5, r7, pc}

0000312c <mr_resumeApp>:
    312c:	b5b0      	push	{r4, r5, r7, lr}
    312e:	45d5      	cmp	sp, sl
    3130:	d201      	bcs.n	3136 <mr_resumeApp+0xa>
    3132:	f7ff fffe 	bl	0 <__rt_stkovf_split_small>
    3136:	4d3f      	ldr	r5, [pc, #252]	; (3234 <mr_timer+0x60>)
    3138:	2401      	movs	r4, #1
    313a:	6868      	ldr	r0, [r5, #4]
    313c:	2802      	cmp	r0, #2
    313e:	d116      	bne.n	316e <mr_resumeApp+0x42>
    3140:	606c      	str	r4, [r5, #4]
    3142:	6b28      	ldr	r0, [r5, #48]	; 0x30
    3144:	2800      	cmp	r0, #0
    3146:	d002      	beq.n	314e <mr_resumeApp+0x22>
    3148:	4780      	blx	r0
    314a:	2801      	cmp	r0, #1
    314c:	d10e      	bne.n	316c <mr_resumeApp+0x40>
    314e:	2305      	movs	r3, #5
    3150:	2201      	movs	r2, #1
    3152:	2100      	movs	r1, #0
    3154:	4839      	ldr	r0, [pc, #228]	; (323c <mr_timer+0x68>)
    3156:	f7ff fffe 	bl	2164 <_mr_TestComC>
    315a:	68e8      	ldr	r0, [r5, #12]
    315c:	2802      	cmp	r0, #2
    315e:	d104      	bne.n	316a <mr_resumeApp+0x3e>
    3160:	20ff      	movs	r0, #255	; 0xff
    3162:	302d      	adds	r0, #45	; 0x2d
    3164:	f7ff fffe 	bl	0 <mr_timerStart>
    3168:	60ec      	str	r4, [r5, #12]
    316a:	2000      	movs	r0, #0
    316c:	bdb0      	pop	{r4, r5, r7, pc}
    316e:	2803      	cmp	r0, #3
    3170:	d107      	bne.n	3182 <mr_resumeApp+0x56>
    3172:	a033      	add	r0, pc, #204	; (adr r0, 3240 <mr_timer+0x6c>)
    3174:	64a8      	str	r0, [r5, #72]	; 0x48
    3176:	2064      	movs	r0, #100	; 0x64
    3178:	f7ff fffe 	bl	0 <mr_timerStart>
    317c:	60ec      	str	r4, [r5, #12]
    317e:	2000      	movs	r0, #0
    3180:	bdb0      	pop	{r4, r5, r7, pc}
    3182:	2001      	movs	r0, #1
    3184:	bdb0      	pop	{r4, r5, r7, pc}

00003186 <mr_event>:
    3186:	b570      	push	{r4, r5, r6, lr}
    3188:	45d5      	cmp	sp, sl
    318a:	d201      	bcs.n	3190 <mr_event+0xa>
    318c:	f7ff fffe 	bl	0 <__rt_stkovf_split_small>
    3190:	1c04      	adds	r4, r0, #0
    3192:	1c0d      	adds	r5, r1, #0
    3194:	1c16      	adds	r6, r2, #0
    3196:	4927      	ldr	r1, [pc, #156]	; (3234 <mr_timer+0x60>)
    3198:	6848      	ldr	r0, [r1, #4]
    319a:	2801      	cmp	r0, #1
    319c:	d004      	beq.n	31a8 <mr_event+0x22>
    319e:	690a      	ldr	r2, [r1, #16]
    31a0:	2a00      	cmp	r2, #0
    31a2:	d015      	beq.n	31d0 <mr_event+0x4a>
    31a4:	2802      	cmp	r0, #2
    31a6:	d113      	bne.n	31d0 <mr_event+0x4a>
    31a8:	6a0b      	ldr	r3, [r1, #32]
    31aa:	2b00      	cmp	r3, #0
    31ac:	d005      	beq.n	31ba <mr_event+0x34>
    31ae:	1c32      	adds	r2, r6, #0
    31b0:	1c29      	adds	r1, r5, #0
    31b2:	1c20      	adds	r0, r4, #0
    31b4:	4798      	blx	r3
    31b6:	2801      	cmp	r0, #1
    31b8:	d109      	bne.n	31ce <mr_event+0x48>
    31ba:	4923      	ldr	r1, [pc, #140]	; (3248 <mr_timer+0x74>)
    31bc:	600c      	str	r4, [r1, #0]
    31be:	604d      	str	r5, [r1, #4]
    31c0:	608e      	str	r6, [r1, #8]
    31c2:	2301      	movs	r3, #1
    31c4:	2214      	movs	r2, #20
    31c6:	481d      	ldr	r0, [pc, #116]	; (323c <mr_timer+0x68>)
    31c8:	f7ff fffe 	bl	2164 <_mr_TestComC>
    31cc:	2000      	movs	r0, #0
    31ce:	bd70      	pop	{r4, r5, r6, pc}
    31d0:	2001      	movs	r0, #1
    31d2:	bd70      	pop	{r4, r5, r6, pc}

000031d4 <mr_timer>:
    31d4:	b580      	push	{r7, lr}
    31d6:	45d5      	cmp	sp, sl
    31d8:	d201      	bcs.n	31de <mr_timer+0xa>
    31da:	f7ff fffe 	bl	0 <__rt_stkovf_split_small>
    31de:	4915      	ldr	r1, [pc, #84]	; (3234 <mr_timer+0x60>)
    31e0:	68c8      	ldr	r0, [r1, #12]
    31e2:	2801      	cmp	r0, #1
    31e4:	d004      	beq.n	31f0 <mr_timer+0x1c>
    31e6:	a019      	add	r0, pc, #100	; (adr r0, 324c <mr_timer+0x78>)
    31e8:	f7ff fffe 	bl	0 <mr_printf>
    31ec:	2001      	movs	r0, #1
    31ee:	bd80      	pop	{r7, pc}
    31f0:	2000      	movs	r0, #0
    31f2:	60c8      	str	r0, [r1, #12]
    31f4:	6848      	ldr	r0, [r1, #4]
    31f6:	2801      	cmp	r0, #1
    31f8:	d03c      	beq.n	3274 <mr_timer+0xa0>
    31fa:	690a      	ldr	r2, [r1, #16]
    31fc:	2a00      	cmp	r2, #0
    31fe:	d001      	beq.n	3204 <mr_timer+0x30>
    3200:	2802      	cmp	r0, #2
    3202:	d037      	beq.n	3274 <mr_timer+0xa0>
    3204:	2803      	cmp	r0, #3
    3206:	d133      	bne.n	3270 <mr_timer+0x9c>
    3208:	f7ff fffe 	bl	290e <mr_stop>
    320c:	480a      	ldr	r0, [pc, #40]	; (3238 <mr_timer+0x64>)
    320e:	2100      	movs	r1, #0
    3210:	3080      	adds	r0, #128	; 0x80
    3212:	f7ff fffe 	bl	2bfe <_mr_intra_start>
    3216:	2000      	movs	r0, #0
    3218:	bd80      	pop	{r7, pc}
    321a:	0000      	.short	0x0000
    321c:	0000412a 	.word	0x0000412a
    3220:	00000594 	.word	0x00000594
    3224:	000017f4 	.word	0x000017f4
    3228:	6f676f6c 	.word	0x6f676f6c
    322c:	7478652e 	.word	0x7478652e
	...
    3238:	00000414 	.word	0x00000414
    323c:	00000321 	.word	0x00000321
    3240:	74736572 	.word	0x74736572
    3244:	00747261 	.word	0x00747261
    3248:	00000178 	.word	0x00000178
    324c:	6e726177 	.word	0x6e726177
    3250:	3a676e69 	.word	0x3a676e69
    3254:	745f726d 	.word	0x745f726d
    3258:	72656d69 	.word	0x72656d69
    325c:	65766520 	.word	0x65766520
    3260:	7520746e 	.word	0x7520746e
    3264:	7078656e 	.word	0x7078656e
    3268:	65746365 	.word	0x65746365
    326c:	00002164 	.word	0x00002164
    3270:	2001      	movs	r0, #1
    3272:	bd80      	pop	{r7, pc}
    3274:	6a48      	ldr	r0, [r1, #36]	; 0x24
    3276:	2800      	cmp	r0, #0
    3278:	d002      	beq.n	3280 <mr_timer+0xac>
    327a:	4780      	blx	r0
    327c:	2801      	cmp	r0, #1
    327e:	d1f8      	bne.n	3272 <mr_timer+0x9e>
    3280:	2302      	movs	r3, #2
    3282:	2201      	movs	r2, #1
    3284:	2100      	movs	r1, #0
    3286:	48f4      	ldr	r0, [pc, #976]	; (3658 <md5_process+0x2fa>)
    3288:	f7ff fffe 	bl	2164 <_mr_TestComC>
    328c:	2000      	movs	r0, #0
    328e:	bd80      	pop	{r7, pc}

00003290 <mr_registerAPP>:
    3290:	b5b0      	push	{r4, r5, r7, lr}
    3292:	45d5      	cmp	sp, sl
    3294:	d201      	bcs.n	329a <mr_registerAPP+0xa>
    3296:	f7ff fffe 	bl	0 <__rt_stkovf_split_small>
    329a:	1c05      	adds	r5, r0, #0
    329c:	1c14      	adds	r4, r2, #0
    329e:	1c2a      	adds	r2, r5, #0
    32a0:	1c21      	adds	r1, r4, #0
    32a2:	a0ee      	add	r0, pc, #952	; (adr r0, 365c <md5_process+0x2fe>)
    32a4:	f7ff fffe 	bl	0 <mr_printf>
    32a8:	2c32      	cmp	r4, #50	; 0x32
    32aa:	d209      	bcs.n	32c0 <mr_registerAPP+0x30>
    32ac:	00a0      	lsls	r0, r4, #2
    32ae:	49f1      	ldr	r1, [pc, #964]	; (3674 <md5_process+0x316>)
    32b0:	1c2a      	adds	r2, r5, #0
    32b2:	500d      	str	r5, [r1, r0]
    32b4:	1c21      	adds	r1, r4, #0
    32b6:	a0f0      	add	r0, pc, #960	; (adr r0, 3678 <md5_process+0x31a>)
    32b8:	f7ff fffe 	bl	0 <mr_printf>
    32bc:	2000      	movs	r0, #0
    32be:	bdb0      	pop	{r4, r5, r7, pc}
    32c0:	a0f6      	add	r0, pc, #984	; (adr r0, 369c <md5_process+0x33e>)
    32c2:	f7ff fffe 	bl	0 <mr_printf>
    32c6:	2000      	movs	r0, #0
    32c8:	43c0      	mvns	r0, r0
    32ca:	bdb0      	pop	{r4, r5, r7, pc}

000032cc <mr_transBMP>:
    32cc:	230b      	movs	r3, #11
    32ce:	4358      	muls	r0, r3
    32d0:	49f7      	ldr	r1, [pc, #988]	; (36b0 <md5_process+0x352>)
    32d2:	1840      	adds	r0, r0, r1
    32d4:	4770      	bx	lr

000032d6 <mr_save_mrp>:
    32d6:	b5f0      	push	{r4, r5, r6, r7, lr}
    32d8:	b085      	sub	sp, #20
    32da:	45d5      	cmp	sp, sl
    32dc:	d201      	bcs.n	32e2 <mr_save_mrp+0xc>
    32de:	f7ff fffe 	bl	0 <__rt_stkovf_split_small>
    32e2:	1c04      	adds	r4, r0, #0
    32e4:	1c0e      	adds	r6, r1, #0
    32e6:	2700      	movs	r7, #0
    32e8:	43ff      	mvns	r7, r7
    32ea:	2c00      	cmp	r4, #0
    32ec:	d001      	beq.n	32f2 <mr_save_mrp+0x1c>
    32ee:	2e00      	cmp	r6, #0
    32f0:	d102      	bne.n	32f8 <mr_save_mrp+0x22>
    32f2:	1c38      	adds	r0, r7, #0
    32f4:	b005      	add	sp, #20
    32f6:	bdf0      	pop	{r4, r5, r6, r7, pc}
    32f8:	7820      	ldrb	r0, [r4, #0]
    32fa:	284d      	cmp	r0, #77	; 0x4d
    32fc:	d12d      	bne.n	335a <mr_save_mrp+0x84>
    32fe:	7860      	ldrb	r0, [r4, #1]
    3300:	2852      	cmp	r0, #82	; 0x52
    3302:	d12a      	bne.n	335a <mr_save_mrp+0x84>
    3304:	78a0      	ldrb	r0, [r4, #2]
    3306:	2850      	cmp	r0, #80	; 0x50
    3308:	d127      	bne.n	335a <mr_save_mrp+0x84>
    330a:	78e0      	ldrb	r0, [r4, #3]
    330c:	2847      	cmp	r0, #71	; 0x47
    330e:	d124      	bne.n	335a <mr_save_mrp+0x84>
    3310:	2100      	movs	r1, #0
    3312:	2200      	movs	r2, #0
    3314:	a801      	add	r0, sp, #4
    3316:	c006      	stmia	r0!, {r1, r2}
    3318:	c006      	stmia	r0!, {r1, r2}
    331a:	220c      	movs	r2, #12
    331c:	1c21      	adds	r1, r4, #0
    331e:	3110      	adds	r1, #16
    3320:	a801      	add	r0, sp, #4
    3322:	f7ff fffe 	bl	0 <__rt_memcpy>
    3326:	a801      	add	r0, sp, #4
    3328:	f7ff fffe 	bl	0 <mr_remove>
    332c:	210a      	movs	r1, #10
    332e:	a801      	add	r0, sp, #4
    3330:	f7ff fffe 	bl	0 <mr_open>
    3334:	1c05      	adds	r5, r0, #0
    3336:	d00b      	beq.n	3350 <mr_save_mrp+0x7a>
    3338:	1c32      	adds	r2, r6, #0
    333a:	1c21      	adds	r1, r4, #0
    333c:	1c28      	adds	r0, r5, #0
    333e:	f7ff fffe 	bl	0 <mr_write>
    3342:	42b0      	cmp	r0, r6
    3344:	d004      	beq.n	3350 <mr_save_mrp+0x7a>
    3346:	1c28      	adds	r0, r5, #0
    3348:	f7ff fffe 	bl	0 <mr_close>
    334c:	1c38      	adds	r0, r7, #0
    334e:	e7d1      	b.n	32f4 <mr_save_mrp+0x1e>
    3350:	1c28      	adds	r0, r5, #0
    3352:	f7ff fffe 	bl	0 <mr_close>
    3356:	2000      	movs	r0, #0
    3358:	e7cc      	b.n	32f4 <mr_save_mrp+0x1e>
    335a:	2001      	movs	r0, #1
    335c:	e7ca      	b.n	32f4 <mr_save_mrp+0x1e>

0000335e <md5_process>:
    335e:	b5f0      	push	{r4, r5, r6, r7, lr}
    3360:	b0a3      	sub	sp, #140	; 0x8c
    3362:	45d5      	cmp	sp, sl
    3364:	d201      	bcs.n	336a <md5_process+0xc>
    3366:	f7ff fffe 	bl	0 <__rt_stkovf_split_small>
    336a:	1c04      	adds	r4, r0, #0
    336c:	68a2      	ldr	r2, [r4, #8]
    336e:	9210      	str	r2, [sp, #64]	; 0x40
    3370:	68e5      	ldr	r5, [r4, #12]
    3372:	6927      	ldr	r7, [r4, #16]
    3374:	6966      	ldr	r6, [r4, #20]
    3376:	0788      	lsls	r0, r1, #30
    3378:	d004      	beq.n	3384 <md5_process+0x26>
    337a:	2240      	movs	r2, #64	; 0x40
    337c:	4668      	mov	r0, sp
    337e:	f7ff fffe 	bl	0 <__rt_memcpy>
    3382:	4669      	mov	r1, sp
    3384:	1c28      	adds	r0, r5, #0
    3386:	1c32      	adds	r2, r6, #0
    3388:	43aa      	bics	r2, r5
    338a:	4038      	ands	r0, r7
    338c:	4310      	orrs	r0, r2
    338e:	9a10      	ldr	r2, [sp, #64]	; 0x40
    3390:	1880      	adds	r0, r0, r2
    3392:	680a      	ldr	r2, [r1, #0]
    3394:	9222      	str	r2, [sp, #136]	; 0x88
    3396:	9221      	str	r2, [sp, #132]	; 0x84
    3398:	1880      	adds	r0, r0, r2
    339a:	4ac6      	ldr	r2, [pc, #792]	; (36b4 <md5_process+0x356>)
    339c:	1880      	adds	r0, r0, r2
    339e:	01c2      	lsls	r2, r0, #7
    33a0:	0e40      	lsrs	r0, r0, #25
    33a2:	4310      	orrs	r0, r2
    33a4:	1943      	adds	r3, r0, r5
    33a6:	1c18      	adds	r0, r3, #0
    33a8:	1c3a      	adds	r2, r7, #0
    33aa:	439a      	bics	r2, r3
    33ac:	4028      	ands	r0, r5
    33ae:	4310      	orrs	r0, r2
    33b0:	1980      	adds	r0, r0, r6
    33b2:	684e      	ldr	r6, [r1, #4]
    33b4:	4ac0      	ldr	r2, [pc, #768]	; (36b8 <md5_process+0x35a>)
    33b6:	1980      	adds	r0, r0, r6
    33b8:	1880      	adds	r0, r0, r2
    33ba:	9620      	str	r6, [sp, #128]	; 0x80
    33bc:	961f      	str	r6, [sp, #124]	; 0x7c
    33be:	0302      	lsls	r2, r0, #12
    33c0:	0d00      	lsrs	r0, r0, #20
    33c2:	4310      	orrs	r0, r2
    33c4:	18c2      	adds	r2, r0, r3
    33c6:	1c10      	adds	r0, r2, #0
    33c8:	1c2e      	adds	r6, r5, #0
    33ca:	4396      	bics	r6, r2
    33cc:	4018      	ands	r0, r3
    33ce:	4330      	orrs	r0, r6
    33d0:	688e      	ldr	r6, [r1, #8]
    33d2:	19c0      	adds	r0, r0, r7
    33d4:	1980      	adds	r0, r0, r6
    33d6:	46b4      	mov	ip, r6
    33d8:	4eb8      	ldr	r6, [pc, #736]	; (36bc <md5_process+0x35e>)
    33da:	1980      	adds	r0, r0, r6
    33dc:	0446      	lsls	r6, r0, #17
    33de:	0bc0      	lsrs	r0, r0, #15
    33e0:	4330      	orrs	r0, r6
    33e2:	1880      	adds	r0, r0, r2
    33e4:	1c06      	adds	r6, r0, #0
    33e6:	1c1f      	adds	r7, r3, #0
    33e8:	4387      	bics	r7, r0
    33ea:	4016      	ands	r6, r2
    33ec:	433e      	orrs	r6, r7
    33ee:	1975      	adds	r5, r6, r5
    33f0:	68ce      	ldr	r6, [r1, #12]
    33f2:	46b6      	mov	lr, r6
    33f4:	19ad      	adds	r5, r5, r6
    33f6:	4eb2      	ldr	r6, [pc, #712]	; (36c0 <md5_process+0x362>)
    33f8:	19ad      	adds	r5, r5, r6
    33fa:	05ae      	lsls	r6, r5, #22
    33fc:	0aad      	lsrs	r5, r5, #10
    33fe:	4335      	orrs	r5, r6
    3400:	182d      	adds	r5, r5, r0
    3402:	1c2e      	adds	r6, r5, #0
    3404:	1c17      	adds	r7, r2, #0
    3406:	43af      	bics	r7, r5
    3408:	4006      	ands	r6, r0
    340a:	433e      	orrs	r6, r7
    340c:	18f3      	adds	r3, r6, r3
    340e:	690e      	ldr	r6, [r1, #16]
    3410:	961e      	str	r6, [sp, #120]	; 0x78
    3412:	199b      	adds	r3, r3, r6
    3414:	4eab      	ldr	r6, [pc, #684]	; (36c4 <md5_process+0x366>)
    3416:	199b      	adds	r3, r3, r6
    3418:	01de      	lsls	r6, r3, #7
    341a:	0e5b      	lsrs	r3, r3, #25
    341c:	4333      	orrs	r3, r6
    341e:	195b      	adds	r3, r3, r5
    3420:	1c1e      	adds	r6, r3, #0
    3422:	1c07      	adds	r7, r0, #0
    3424:	439f      	bics	r7, r3
    3426:	402e      	ands	r6, r5
    3428:	433e      	orrs	r6, r7
    342a:	18b2      	adds	r2, r6, r2
    342c:	694e      	ldr	r6, [r1, #20]
    342e:	961d      	str	r6, [sp, #116]	; 0x74
    3430:	961c      	str	r6, [sp, #112]	; 0x70
    3432:	1992      	adds	r2, r2, r6
    3434:	4ea4      	ldr	r6, [pc, #656]	; (36c8 <md5_process+0x36a>)
    3436:	1992      	adds	r2, r2, r6
    3438:	0316      	lsls	r6, r2, #12
    343a:	0d12      	lsrs	r2, r2, #20
    343c:	4332      	orrs	r2, r6
    343e:	18d2      	adds	r2, r2, r3
    3440:	1c16      	adds	r6, r2, #0
    3442:	1c2f      	adds	r7, r5, #0
    3444:	4397      	bics	r7, r2
    3446:	401e      	ands	r6, r3
    3448:	433e      	orrs	r6, r7
    344a:	1830      	adds	r0, r6, r0
    344c:	698e      	ldr	r6, [r1, #24]
    344e:	961b      	str	r6, [sp, #108]	; 0x6c
    3450:	961a      	str	r6, [sp, #104]	; 0x68
    3452:	1980      	adds	r0, r0, r6
    3454:	4e9d      	ldr	r6, [pc, #628]	; (36cc <md5_process+0x36e>)
    3456:	1980      	adds	r0, r0, r6
    3458:	0446      	lsls	r6, r0, #17
    345a:	0bc0      	lsrs	r0, r0, #15
    345c:	4330      	orrs	r0, r6
    345e:	1880      	adds	r0, r0, r2
    3460:	1c06      	adds	r6, r0, #0
    3462:	1c1f      	adds	r7, r3, #0
    3464:	4387      	bics	r7, r0
    3466:	4016      	ands	r6, r2
    3468:	433e      	orrs	r6, r7
    346a:	1975      	adds	r5, r6, r5
    346c:	69ce      	ldr	r6, [r1, #28]
    346e:	9619      	str	r6, [sp, #100]	; 0x64
    3470:	19ad      	adds	r5, r5, r6
    3472:	4e97      	ldr	r6, [pc, #604]	; (36d0 <md5_process+0x372>)
    3474:	19ad      	adds	r5, r5, r6
    3476:	05ae      	lsls	r6, r5, #22
    3478:	0aad      	lsrs	r5, r5, #10
    347a:	4335      	orrs	r5, r6
    347c:	182d      	adds	r5, r5, r0
    347e:	1c2e      	adds	r6, r5, #0
    3480:	1c17      	adds	r7, r2, #0
    3482:	43af      	bics	r7, r5
    3484:	4006      	ands	r6, r0
    3486:	433e      	orrs	r6, r7
    3488:	18f3      	adds	r3, r6, r3
    348a:	6a0e      	ldr	r6, [r1, #32]
    348c:	9618      	str	r6, [sp, #96]	; 0x60
    348e:	199b      	adds	r3, r3, r6
    3490:	4e90      	ldr	r6, [pc, #576]	; (36d4 <md5_process+0x376>)
    3492:	199b      	adds	r3, r3, r6
    3494:	01de      	lsls	r6, r3, #7
    3496:	0e5b      	lsrs	r3, r3, #25
    3498:	4333      	orrs	r3, r6
    349a:	195b      	adds	r3, r3, r5
    349c:	1c1e      	adds	r6, r3, #0
    349e:	1c07      	adds	r7, r0, #0
    34a0:	439f      	bics	r7, r3
    34a2:	402e      	ands	r6, r5
    34a4:	433e      	orrs	r6, r7
    34a6:	18b2      	adds	r2, r6, r2
    34a8:	6a4e      	ldr	r6, [r1, #36]	; 0x24
    34aa:	9617      	str	r6, [sp, #92]	; 0x5c
    34ac:	1992      	adds	r2, r2, r6
    34ae:	4e8a      	ldr	r6, [pc, #552]	; (36d8 <md5_process+0x37a>)
    34b0:	1992      	adds	r2, r2, r6
    34b2:	0316      	lsls	r6, r2, #12
    34b4:	0d12      	lsrs	r2, r2, #20
    34b6:	4332      	orrs	r2, r6
    34b8:	18d2      	adds	r2, r2, r3
    34ba:	1c16      	adds	r6, r2, #0
    34bc:	1c2f      	adds	r7, r5, #0
    34be:	4397      	bics	r7, r2
    34c0:	401e      	ands	r6, r3
    34c2:	433e      	orrs	r6, r7
    34c4:	1830      	adds	r0, r6, r0
    34c6:	6a8e      	ldr	r6, [r1, #40]	; 0x28
    34c8:	9616      	str	r6, [sp, #88]	; 0x58
    34ca:	1980      	adds	r0, r0, r6
    34cc:	4e83      	ldr	r6, [pc, #524]	; (36dc <md5_process+0x37e>)
    34ce:	1980      	adds	r0, r0, r6
    34d0:	0446      	lsls	r6, r0, #17
    34d2:	0bc0      	lsrs	r0, r0, #15
    34d4:	4330      	orrs	r0, r6
    34d6:	1880      	adds	r0, r0, r2
    34d8:	1c06      	adds	r6, r0, #0
    34da:	1c1f      	adds	r7, r3, #0
    34dc:	4387      	bics	r7, r0
